Archive member included to satisfy reference by file (symbol)

d:/pico/armcc/10 2021.10/bin/../lib/gcc/arm-none-eabi/10.3.1/thumb/v6-m/nofp\libgcc.a(_dvmd_tls.o)
                              CMakeFiles/ex1_create_task.dir/D_/pico/pico-sdk/src/rp2_common/pico_divider/divider.S.obj (__aeabi_idiv0)
d:/pico/armcc/10 2021.10/bin/../lib/gcc/arm-none-eabi/10.3.1/../../../../arm-none-eabi/lib/thumb/v6-m/nofp\libg.a(lib_a-calloc.o)
                              CMakeFiles/ex1_create_task.dir/D_/pico/pico-sdk/src/rp2_common/pico_malloc/pico_malloc.c.obj (calloc)
d:/pico/armcc/10 2021.10/bin/../lib/gcc/arm-none-eabi/10.3.1/../../../../arm-none-eabi/lib/thumb/v6-m/nofp\libg.a(lib_a-callocr.o)
                              d:/pico/armcc/10 2021.10/bin/../lib/gcc/arm-none-eabi/10.3.1/../../../../arm-none-eabi/lib/thumb/v6-m/nofp\libg.a(lib_a-calloc.o) (_calloc_r)
d:/pico/armcc/10 2021.10/bin/../lib/gcc/arm-none-eabi/10.3.1/../../../../arm-none-eabi/lib/thumb/v6-m/nofp\libg.a(lib_a-ctype_.o)
                              CMakeFiles/ex1_create_task.dir/D_/pico/pico-sdk/lib/tinyusb/src/tusb.c.obj (_ctype_)
d:/pico/armcc/10 2021.10/bin/../lib/gcc/arm-none-eabi/10.3.1/../../../../arm-none-eabi/lib/thumb/v6-m/nofp\libg.a(lib_a-errno.o)
                              d:/pico/armcc/10 2021.10/bin/../lib/gcc/arm-none-eabi/10.3.1/../../../../arm-none-eabi/lib/thumb/v6-m/nofp\libg.a(lib_a-callocr.o) (__errno)
d:/pico/armcc/10 2021.10/bin/../lib/gcc/arm-none-eabi/10.3.1/../../../../arm-none-eabi/lib/thumb/v6-m/nofp\libg.a(lib_a-impure.o)
                              d:/pico/armcc/10 2021.10/bin/../lib/gcc/arm-none-eabi/10.3.1/../../../../arm-none-eabi/lib/thumb/v6-m/nofp\libg.a(lib_a-calloc.o) (_impure_ptr)
d:/pico/armcc/10 2021.10/bin/../lib/gcc/arm-none-eabi/10.3.1/../../../../arm-none-eabi/lib/thumb/v6-m/nofp\libg.a(lib_a-init.o)
                              d:/pico/armcc/10 2021.10/bin/../lib/gcc/arm-none-eabi/10.3.1/../../../../arm-none-eabi/lib/thumb/v6-m/nofp/crt0.o (__libc_init_array)
d:/pico/armcc/10 2021.10/bin/../lib/gcc/arm-none-eabi/10.3.1/../../../../arm-none-eabi/lib/thumb/v6-m/nofp\libg.a(lib_a-malloc.o)
                              CMakeFiles/ex1_create_task.dir/D_/pico/pico-sdk/src/rp2_common/pico_malloc/pico_malloc.c.obj (malloc)
d:/pico/armcc/10 2021.10/bin/../lib/gcc/arm-none-eabi/10.3.1/../../../../arm-none-eabi/lib/thumb/v6-m/nofp\libg.a(lib_a-mallocr.o)
                              d:/pico/armcc/10 2021.10/bin/../lib/gcc/arm-none-eabi/10.3.1/../../../../arm-none-eabi/lib/thumb/v6-m/nofp\libg.a(lib_a-callocr.o) (_malloc_r)
d:/pico/armcc/10 2021.10/bin/../lib/gcc/arm-none-eabi/10.3.1/../../../../arm-none-eabi/lib/thumb/v6-m/nofp\libg.a(lib_a-mlock.o)
                              d:/pico/armcc/10 2021.10/bin/../lib/gcc/arm-none-eabi/10.3.1/../../../../arm-none-eabi/lib/thumb/v6-m/nofp\libg.a(lib_a-mallocr.o) (__malloc_lock)
d:/pico/armcc/10 2021.10/bin/../lib/gcc/arm-none-eabi/10.3.1/../../../../arm-none-eabi/lib/thumb/v6-m/nofp\libg.a(lib_a-realloc.o)
                              CMakeFiles/ex1_create_task.dir/D_/pico/pico-sdk/src/rp2_common/pico_malloc/pico_malloc.c.obj (realloc)
d:/pico/armcc/10 2021.10/bin/../lib/gcc/arm-none-eabi/10.3.1/../../../../arm-none-eabi/lib/thumb/v6-m/nofp\libg.a(lib_a-reallocr.o)
                              d:/pico/armcc/10 2021.10/bin/../lib/gcc/arm-none-eabi/10.3.1/../../../../arm-none-eabi/lib/thumb/v6-m/nofp\libg.a(lib_a-realloc.o) (_realloc_r)
d:/pico/armcc/10 2021.10/bin/../lib/gcc/arm-none-eabi/10.3.1/../../../../arm-none-eabi/lib/thumb/v6-m/nofp\libg.a(lib_a-sbrkr.o)
                              d:/pico/armcc/10 2021.10/bin/../lib/gcc/arm-none-eabi/10.3.1/../../../../arm-none-eabi/lib/thumb/v6-m/nofp\libg.a(lib_a-mallocr.o) (_sbrk_r)
d:/pico/armcc/10 2021.10/bin/../lib/gcc/arm-none-eabi/10.3.1/../../../../arm-none-eabi/lib/thumb/v6-m/nofp\libg.a(lib_a-strlen-stub.o)
                              CMakeFiles/ex1_create_task.dir/D_/pico/pico-sdk/src/rp2_common/pico_stdio/stdio.c.obj (strlen)
d:/pico/armcc/10 2021.10/bin/../lib/gcc/arm-none-eabi/10.3.1/../../../../arm-none-eabi/lib/thumb/v6-m/nofp\libg.a(lib_a-freer.o)
                              d:/pico/armcc/10 2021.10/bin/../lib/gcc/arm-none-eabi/10.3.1/../../../../arm-none-eabi/lib/thumb/v6-m/nofp\libg.a(lib_a-malloc.o) (_free_r)
d:/pico/armcc/10 2021.10/bin/../lib/gcc/arm-none-eabi/10.3.1/../../../../arm-none-eabi/lib/thumb/v6-m/nofp\libg.a(lib_a-lock.o)
                              d:/pico/armcc/10 2021.10/bin/../lib/gcc/arm-none-eabi/10.3.1/../../../../arm-none-eabi/lib/thumb/v6-m/nofp\libg.a(lib_a-mlock.o) (__retarget_lock_acquire_recursive)
d:/pico/armcc/10 2021.10/bin/../lib/gcc/arm-none-eabi/10.3.1/../../../../arm-none-eabi/lib/thumb/v6-m/nofp\libg.a(lib_a-memmove.o)
                              d:/pico/armcc/10 2021.10/bin/../lib/gcc/arm-none-eabi/10.3.1/../../../../arm-none-eabi/lib/thumb/v6-m/nofp\libg.a(lib_a-reallocr.o) (memmove)
d:/pico/armcc/10 2021.10/bin/../lib/gcc/arm-none-eabi/10.3.1/../../../../arm-none-eabi/lib/thumb/v6-m/nofp\libg.a(lib_a-reent.o)
                              d:/pico/armcc/10 2021.10/bin/../lib/gcc/arm-none-eabi/10.3.1/../../../../arm-none-eabi/lib/thumb/v6-m/nofp\libg.a(lib_a-sbrkr.o) (errno)

Discarded input sections

 .text          0x00000000        0x0 d:/pico/armcc/10 2021.10/bin/../lib/gcc/arm-none-eabi/10.3.1/thumb/v6-m/nofp/crti.o
 .data          0x00000000        0x0 d:/pico/armcc/10 2021.10/bin/../lib/gcc/arm-none-eabi/10.3.1/thumb/v6-m/nofp/crti.o
 .bss           0x00000000        0x0 d:/pico/armcc/10 2021.10/bin/../lib/gcc/arm-none-eabi/10.3.1/thumb/v6-m/nofp/crti.o
 .data          0x00000000        0x4 d:/pico/armcc/10 2021.10/bin/../lib/gcc/arm-none-eabi/10.3.1/thumb/v6-m/nofp/crtbegin.o
 .rodata        0x00000000       0x24 d:/pico/armcc/10 2021.10/bin/../lib/gcc/arm-none-eabi/10.3.1/thumb/v6-m/nofp/crtbegin.o
 .fini_array    0x00000000        0x4 d:/pico/armcc/10 2021.10/bin/../lib/gcc/arm-none-eabi/10.3.1/thumb/v6-m/nofp/crtbegin.o
 .text          0x00000000       0x80 d:/pico/armcc/10 2021.10/bin/../lib/gcc/arm-none-eabi/10.3.1/../../../../arm-none-eabi/lib/thumb/v6-m/nofp/crt0.o
 .data          0x00000000        0x0 d:/pico/armcc/10 2021.10/bin/../lib/gcc/arm-none-eabi/10.3.1/../../../../arm-none-eabi/lib/thumb/v6-m/nofp/crt0.o
 .bss           0x00000000        0x0 d:/pico/armcc/10 2021.10/bin/../lib/gcc/arm-none-eabi/10.3.1/../../../../arm-none-eabi/lib/thumb/v6-m/nofp/crt0.o
 .ARM.extab     0x00000000        0x0 d:/pico/armcc/10 2021.10/bin/../lib/gcc/arm-none-eabi/10.3.1/../../../../arm-none-eabi/lib/thumb/v6-m/nofp/crt0.o
 .ARM.exidx     0x00000000       0x10 d:/pico/armcc/10 2021.10/bin/../lib/gcc/arm-none-eabi/10.3.1/../../../../arm-none-eabi/lib/thumb/v6-m/nofp/crt0.o
 .ARM.attributes
                0x00000000       0x1b d:/pico/armcc/10 2021.10/bin/../lib/gcc/arm-none-eabi/10.3.1/../../../../arm-none-eabi/lib/thumb/v6-m/nofp/crt0.o
 .text          0x00000000        0x0 CMakeFiles/ex1_create_task.dir/main.c.obj
 .data          0x00000000        0x0 CMakeFiles/ex1_create_task.dir/main.c.obj
 .bss           0x00000000        0x0 CMakeFiles/ex1_create_task.dir/main.c.obj
 .text.vApplicationIdleHook
                0x00000000       0x10 CMakeFiles/ex1_create_task.dir/main.c.obj
 .text          0x00000000        0x0 CMakeFiles/ex1_create_task.dir/D_/pico/pico-sdk/src/rp2_common/pico_stdlib/stdlib.c.obj
 .data          0x00000000        0x0 CMakeFiles/ex1_create_task.dir/D_/pico/pico-sdk/src/rp2_common/pico_stdlib/stdlib.c.obj
 .bss           0x00000000        0x0 CMakeFiles/ex1_create_task.dir/D_/pico/pico-sdk/src/rp2_common/pico_stdlib/stdlib.c.obj
 .text.set_sys_clock_48mhz
                0x00000000       0x40 CMakeFiles/ex1_create_task.dir/D_/pico/pico-sdk/src/rp2_common/pico_stdlib/stdlib.c.obj
 .text.set_sys_clock_pll
                0x00000000       0x78 CMakeFiles/ex1_create_task.dir/D_/pico/pico-sdk/src/rp2_common/pico_stdlib/stdlib.c.obj
 .text.check_sys_clock_khz
                0x00000000       0xb0 CMakeFiles/ex1_create_task.dir/D_/pico/pico-sdk/src/rp2_common/pico_stdlib/stdlib.c.obj
 .text.setup_default_uart
                0x00000000       0x2c CMakeFiles/ex1_create_task.dir/D_/pico/pico-sdk/src/rp2_common/pico_stdlib/stdlib.c.obj
 .binary_info.__bi_ptr102
                0x00000000        0x4 CMakeFiles/ex1_create_task.dir/D_/pico/pico-sdk/src/rp2_common/pico_stdlib/stdlib.c.obj
 .rodata.__bi_102.0
                0x00000000        0x8 CMakeFiles/ex1_create_task.dir/D_/pico/pico-sdk/src/rp2_common/pico_stdlib/stdlib.c.obj
 .debug_info    0x00000000      0x775 CMakeFiles/ex1_create_task.dir/D_/pico/pico-sdk/src/rp2_common/pico_stdlib/stdlib.c.obj
 .debug_abbrev  0x00000000      0x1e9 CMakeFiles/ex1_create_task.dir/D_/pico/pico-sdk/src/rp2_common/pico_stdlib/stdlib.c.obj
 .debug_loc     0x00000000      0x2d7 CMakeFiles/ex1_create_task.dir/D_/pico/pico-sdk/src/rp2_common/pico_stdlib/stdlib.c.obj
 .debug_aranges
                0x00000000       0x38 CMakeFiles/ex1_create_task.dir/D_/pico/pico-sdk/src/rp2_common/pico_stdlib/stdlib.c.obj
 .debug_ranges  0x00000000       0x98 CMakeFiles/ex1_create_task.dir/D_/pico/pico-sdk/src/rp2_common/pico_stdlib/stdlib.c.obj
 .debug_line    0x00000000      0x533 CMakeFiles/ex1_create_task.dir/D_/pico/pico-sdk/src/rp2_common/pico_stdlib/stdlib.c.obj
 .debug_str     0x00000000      0x52b CMakeFiles/ex1_create_task.dir/D_/pico/pico-sdk/src/rp2_common/pico_stdlib/stdlib.c.obj
 .comment       0x00000000       0x4a CMakeFiles/ex1_create_task.dir/D_/pico/pico-sdk/src/rp2_common/pico_stdlib/stdlib.c.obj
 .debug_frame   0x00000000       0x90 CMakeFiles/ex1_create_task.dir/D_/pico/pico-sdk/src/rp2_common/pico_stdlib/stdlib.c.obj
 .ARM.attributes
                0x00000000       0x2c CMakeFiles/ex1_create_task.dir/D_/pico/pico-sdk/src/rp2_common/pico_stdlib/stdlib.c.obj
 .text          0x00000000        0x0 CMakeFiles/ex1_create_task.dir/D_/pico/pico-sdk/src/rp2_common/hardware_gpio/gpio.c.obj
 .data          0x00000000        0x0 CMakeFiles/ex1_create_task.dir/D_/pico/pico-sdk/src/rp2_common/hardware_gpio/gpio.c.obj
 .bss           0x00000000        0x0 CMakeFiles/ex1_create_task.dir/D_/pico/pico-sdk/src/rp2_common/hardware_gpio/gpio.c.obj
 .text.gpio_get_pad
                0x00000000       0x28 CMakeFiles/ex1_create_task.dir/D_/pico/pico-sdk/src/rp2_common/hardware_gpio/gpio.c.obj
 .text.gpio_set_function
                0x00000000       0x30 CMakeFiles/ex1_create_task.dir/D_/pico/pico-sdk/src/rp2_common/hardware_gpio/gpio.c.obj
 .text.gpio_get_function
                0x00000000       0x14 CMakeFiles/ex1_create_task.dir/D_/pico/pico-sdk/src/rp2_common/hardware_gpio/gpio.c.obj
 .text.gpio_set_pulls
                0x00000000       0x34 CMakeFiles/ex1_create_task.dir/D_/pico/pico-sdk/src/rp2_common/hardware_gpio/gpio.c.obj
 .text.gpio_set_irqover
                0x00000000       0x24 CMakeFiles/ex1_create_task.dir/D_/pico/pico-sdk/src/rp2_common/hardware_gpio/gpio.c.obj
 .text.gpio_set_inover
                0x00000000       0x24 CMakeFiles/ex1_create_task.dir/D_/pico/pico-sdk/src/rp2_common/hardware_gpio/gpio.c.obj
 .text.gpio_set_outover
                0x00000000       0x24 CMakeFiles/ex1_create_task.dir/D_/pico/pico-sdk/src/rp2_common/hardware_gpio/gpio.c.obj
 .text.gpio_set_oeover
                0x00000000       0x24 CMakeFiles/ex1_create_task.dir/D_/pico/pico-sdk/src/rp2_common/hardware_gpio/gpio.c.obj
 .text.gpio_set_input_hysteresis_enabled
                0x00000000       0x30 CMakeFiles/ex1_create_task.dir/D_/pico/pico-sdk/src/rp2_common/hardware_gpio/gpio.c.obj
 .text.gpio_is_input_hysteresis_enabled
                0x00000000       0x1c CMakeFiles/ex1_create_task.dir/D_/pico/pico-sdk/src/rp2_common/hardware_gpio/gpio.c.obj
 .text.gpio_set_slew_rate
                0x00000000       0x20 CMakeFiles/ex1_create_task.dir/D_/pico/pico-sdk/src/rp2_common/hardware_gpio/gpio.c.obj
 .text.gpio_get_slew_rate
                0x00000000       0x14 CMakeFiles/ex1_create_task.dir/D_/pico/pico-sdk/src/rp2_common/hardware_gpio/gpio.c.obj
 .text.gpio_set_drive_strength
                0x00000000       0x20 CMakeFiles/ex1_create_task.dir/D_/pico/pico-sdk/src/rp2_common/hardware_gpio/gpio.c.obj
 .text.gpio_get_drive_strength
                0x00000000       0x18 CMakeFiles/ex1_create_task.dir/D_/pico/pico-sdk/src/rp2_common/hardware_gpio/gpio.c.obj
 .text.gpio_set_irq_callback
                0x00000000       0x48 CMakeFiles/ex1_create_task.dir/D_/pico/pico-sdk/src/rp2_common/hardware_gpio/gpio.c.obj
 .rodata.gpio_add_raw_irq_handler_with_order_priority_masked.str1.4
                0x00000000       0x61 CMakeFiles/ex1_create_task.dir/D_/pico/pico-sdk/src/rp2_common/hardware_gpio/gpio.c.obj
 .text.gpio_add_raw_irq_handler_with_order_priority_masked
                0x00000000       0x40 CMakeFiles/ex1_create_task.dir/D_/pico/pico-sdk/src/rp2_common/hardware_gpio/gpio.c.obj
 .text.gpio_add_raw_irq_handler_masked
                0x00000000        0xa CMakeFiles/ex1_create_task.dir/D_/pico/pico-sdk/src/rp2_common/hardware_gpio/gpio.c.obj
 .rodata.gpio_remove_raw_irq_handler_masked.str1.4
                0x00000000       0x29 CMakeFiles/ex1_create_task.dir/D_/pico/pico-sdk/src/rp2_common/hardware_gpio/gpio.c.obj
 .text.gpio_remove_raw_irq_handler_masked
                0x00000000       0x48 CMakeFiles/ex1_create_task.dir/D_/pico/pico-sdk/src/rp2_common/hardware_gpio/gpio.c.obj
 .text.gpio_acknowledge_irq
                0x00000000       0x18 CMakeFiles/ex1_create_task.dir/D_/pico/pico-sdk/src/rp2_common/hardware_gpio/gpio.c.obj
 .text._gpio_set_irq_enabled
                0x00000000       0x34 CMakeFiles/ex1_create_task.dir/D_/pico/pico-sdk/src/rp2_common/hardware_gpio/gpio.c.obj
 .text.gpio_set_irq_enabled
                0x00000000       0x20 CMakeFiles/ex1_create_task.dir/D_/pico/pico-sdk/src/rp2_common/hardware_gpio/gpio.c.obj
 .text.gpio_set_irq_enabled_with_callback
                0x00000000       0x20 CMakeFiles/ex1_create_task.dir/D_/pico/pico-sdk/src/rp2_common/hardware_gpio/gpio.c.obj
 .text.gpio_set_dormant_irq_enabled
                0x00000000       0x10 CMakeFiles/ex1_create_task.dir/D_/pico/pico-sdk/src/rp2_common/hardware_gpio/gpio.c.obj
 .text.gpio_default_irq_handler
                0x00000000       0x98 CMakeFiles/ex1_create_task.dir/D_/pico/pico-sdk/src/rp2_common/hardware_gpio/gpio.c.obj
 .text.gpio_set_input_enabled
                0x00000000       0x30 CMakeFiles/ex1_create_task.dir/D_/pico/pico-sdk/src/rp2_common/hardware_gpio/gpio.c.obj
 .text.gpio_init
                0x00000000       0x16 CMakeFiles/ex1_create_task.dir/D_/pico/pico-sdk/src/rp2_common/hardware_gpio/gpio.c.obj
 .text.gpio_deinit
                0x00000000        0xa CMakeFiles/ex1_create_task.dir/D_/pico/pico-sdk/src/rp2_common/hardware_gpio/gpio.c.obj
 .text.gpio_init_mask
                0x00000000       0x1e CMakeFiles/ex1_create_task.dir/D_/pico/pico-sdk/src/rp2_common/hardware_gpio/gpio.c.obj
 .text.gpio_debug_pins_init
                0x00000000       0x18 CMakeFiles/ex1_create_task.dir/D_/pico/pico-sdk/src/rp2_common/hardware_gpio/gpio.c.obj
 .bss.callbacks
                0x00000000        0x8 CMakeFiles/ex1_create_task.dir/D_/pico/pico-sdk/src/rp2_common/hardware_gpio/gpio.c.obj
 .bss.raw_irq_mask
                0x00000000        0x8 CMakeFiles/ex1_create_task.dir/D_/pico/pico-sdk/src/rp2_common/hardware_gpio/gpio.c.obj
 .rodata.__func__.0
                0x00000000       0x23 CMakeFiles/ex1_create_task.dir/D_/pico/pico-sdk/src/rp2_common/hardware_gpio/gpio.c.obj
 .rodata.__func__.1
                0x00000000       0x34 CMakeFiles/ex1_create_task.dir/D_/pico/pico-sdk/src/rp2_common/hardware_gpio/gpio.c.obj
 .debug_info    0x00000000     0x16d7 CMakeFiles/ex1_create_task.dir/D_/pico/pico-sdk/src/rp2_common/hardware_gpio/gpio.c.obj
 .debug_abbrev  0x00000000      0x326 CMakeFiles/ex1_create_task.dir/D_/pico/pico-sdk/src/rp2_common/hardware_gpio/gpio.c.obj
 .debug_loc     0x00000000     0x118d CMakeFiles/ex1_create_task.dir/D_/pico/pico-sdk/src/rp2_common/hardware_gpio/gpio.c.obj
 .debug_aranges
                0x00000000      0x100 CMakeFiles/ex1_create_task.dir/D_/pico/pico-sdk/src/rp2_common/hardware_gpio/gpio.c.obj
 .debug_ranges  0x00000000      0x150 CMakeFiles/ex1_create_task.dir/D_/pico/pico-sdk/src/rp2_common/hardware_gpio/gpio.c.obj
 .debug_line    0x00000000      0xc20 CMakeFiles/ex1_create_task.dir/D_/pico/pico-sdk/src/rp2_common/hardware_gpio/gpio.c.obj
 .debug_str     0x00000000      0x99e CMakeFiles/ex1_create_task.dir/D_/pico/pico-sdk/src/rp2_common/hardware_gpio/gpio.c.obj
 .comment       0x00000000       0x4a CMakeFiles/ex1_create_task.dir/D_/pico/pico-sdk/src/rp2_common/hardware_gpio/gpio.c.obj
 .debug_frame   0x00000000      0x278 CMakeFiles/ex1_create_task.dir/D_/pico/pico-sdk/src/rp2_common/hardware_gpio/gpio.c.obj
 .ARM.attributes
                0x00000000       0x2c CMakeFiles/ex1_create_task.dir/D_/pico/pico-sdk/src/rp2_common/hardware_gpio/gpio.c.obj
 .text          0x00000000        0x0 CMakeFiles/ex1_create_task.dir/D_/pico/pico-sdk/src/rp2_common/hardware_claim/claim.c.obj
 .data          0x00000000        0x0 CMakeFiles/ex1_create_task.dir/D_/pico/pico-sdk/src/rp2_common/hardware_claim/claim.c.obj
 .bss           0x00000000        0x0 CMakeFiles/ex1_create_task.dir/D_/pico/pico-sdk/src/rp2_common/hardware_claim/claim.c.obj
 .text.hw_is_claimed
                0x00000000       0x16 CMakeFiles/ex1_create_task.dir/D_/pico/pico-sdk/src/rp2_common/hardware_claim/claim.c.obj
 .rodata.hw_claim_clear.str1.4
                0x00000000       0x57 CMakeFiles/ex1_create_task.dir/D_/pico/pico-sdk/src/rp2_common/hardware_claim/claim.c.obj
 .text.hw_claim_clear
                0x00000000       0x40 CMakeFiles/ex1_create_task.dir/D_/pico/pico-sdk/src/rp2_common/hardware_claim/claim.c.obj
 .rodata.__func__.0
                0x00000000        0xf CMakeFiles/ex1_create_task.dir/D_/pico/pico-sdk/src/rp2_common/hardware_claim/claim.c.obj
 .text          0x00000000        0x0 CMakeFiles/ex1_create_task.dir/D_/pico/pico-sdk/src/rp2_common/pico_platform/platform.c.obj
 .data          0x00000000        0x0 CMakeFiles/ex1_create_task.dir/D_/pico/pico-sdk/src/rp2_common/pico_platform/platform.c.obj
 .bss           0x00000000        0x0 CMakeFiles/ex1_create_task.dir/D_/pico/pico-sdk/src/rp2_common/pico_platform/platform.c.obj
 .rodata.rp2040_chip_version.str1.4
                0x00000000       0x71 CMakeFiles/ex1_create_task.dir/D_/pico/pico-sdk/src/rp2_common/pico_platform/platform.c.obj
 .text.rp2040_chip_version
                0x00000000       0x4c CMakeFiles/ex1_create_task.dir/D_/pico/pico-sdk/src/rp2_common/pico_platform/platform.c.obj
 .rodata.__func__.0
                0x00000000       0x14 CMakeFiles/ex1_create_task.dir/D_/pico/pico-sdk/src/rp2_common/pico_platform/platform.c.obj
 .text          0x00000000        0x0 CMakeFiles/ex1_create_task.dir/D_/pico/pico-sdk/src/rp2_common/hardware_sync/sync.c.obj
 .data          0x00000000        0x0 CMakeFiles/ex1_create_task.dir/D_/pico/pico-sdk/src/rp2_common/hardware_sync/sync.c.obj
 .bss           0x00000000        0x0 CMakeFiles/ex1_create_task.dir/D_/pico/pico-sdk/src/rp2_common/hardware_sync/sync.c.obj
 .rodata.spin_lock_init.str1.4
                0x00000000       0x51 CMakeFiles/ex1_create_task.dir/D_/pico/pico-sdk/src/rp2_common/hardware_sync/sync.c.obj
 .text.spin_lock_init
                0x00000000       0x34 CMakeFiles/ex1_create_task.dir/D_/pico/pico-sdk/src/rp2_common/hardware_sync/sync.c.obj
 .text.spin_lock_claim_mask
                0x00000000       0x1e CMakeFiles/ex1_create_task.dir/D_/pico/pico-sdk/src/rp2_common/hardware_sync/sync.c.obj
 .text.spin_lock_unclaim
                0x00000000       0x24 CMakeFiles/ex1_create_task.dir/D_/pico/pico-sdk/src/rp2_common/hardware_sync/sync.c.obj
 .text.spin_lock_is_claimed
                0x00000000       0x10 CMakeFiles/ex1_create_task.dir/D_/pico/pico-sdk/src/rp2_common/hardware_sync/sync.c.obj
 .rodata.__func__.0
                0x00000000        0xf CMakeFiles/ex1_create_task.dir/D_/pico/pico-sdk/src/rp2_common/hardware_sync/sync.c.obj
 .text          0x00000000        0x0 CMakeFiles/ex1_create_task.dir/D_/pico/pico-sdk/src/rp2_common/hardware_irq/irq.c.obj
 .data          0x00000000        0x0 CMakeFiles/ex1_create_task.dir/D_/pico/pico-sdk/src/rp2_common/hardware_irq/irq.c.obj
 .bss           0x00000000        0x0 CMakeFiles/ex1_create_task.dir/D_/pico/pico-sdk/src/rp2_common/hardware_irq/irq.c.obj
 .text.get_user_irq_claim_index
                0x00000000        0x6 CMakeFiles/ex1_create_task.dir/D_/pico/pico-sdk/src/rp2_common/hardware_irq/irq.c.obj
 .text.irq_get_exclusive_handler
                0x00000000       0x4c CMakeFiles/ex1_create_task.dir/D_/pico/pico-sdk/src/rp2_common/hardware_irq/irq.c.obj
 .text.irq_get_priority
                0x00000000       0x20 CMakeFiles/ex1_create_task.dir/D_/pico/pico-sdk/src/rp2_common/hardware_irq/irq.c.obj
 .rodata.user_irq_claim.str1.4
                0x00000000       0x1c CMakeFiles/ex1_create_task.dir/D_/pico/pico-sdk/src/rp2_common/hardware_irq/irq.c.obj
 .text.user_irq_claim
                0x00000000       0x24 CMakeFiles/ex1_create_task.dir/D_/pico/pico-sdk/src/rp2_common/hardware_irq/irq.c.obj
 .text.user_irq_unclaim
                0x00000000       0x1c CMakeFiles/ex1_create_task.dir/D_/pico/pico-sdk/src/rp2_common/hardware_irq/irq.c.obj
 .text.user_irq_is_claimed
                0x00000000       0x20 CMakeFiles/ex1_create_task.dir/D_/pico/pico-sdk/src/rp2_common/hardware_irq/irq.c.obj
 .text          0x00000000        0x0 CMakeFiles/ex1_create_task.dir/D_/pico/pico-sdk/src/rp2_common/hardware_irq/irq_handler_chain.S.obj
 .bss           0x00000000        0x0 CMakeFiles/ex1_create_task.dir/D_/pico/pico-sdk/src/rp2_common/hardware_irq/irq_handler_chain.S.obj
 .text          0x00000000        0x0 CMakeFiles/ex1_create_task.dir/D_/pico/pico-sdk/src/common/pico_sync/sem.c.obj
 .data          0x00000000        0x0 CMakeFiles/ex1_create_task.dir/D_/pico/pico-sdk/src/common/pico_sync/sem.c.obj
 .bss           0x00000000        0x0 CMakeFiles/ex1_create_task.dir/D_/pico/pico-sdk/src/common/pico_sync/sem.c.obj
 .text.sem_init
                0x00000000       0x1e CMakeFiles/ex1_create_task.dir/D_/pico/pico-sdk/src/common/pico_sync/sem.c.obj
 .time_critical.sem_available
                0x00000000        0x6 CMakeFiles/ex1_create_task.dir/D_/pico/pico-sdk/src/common/pico_sync/sem.c.obj
 .time_critical.sem_acquire_blocking
                0x00000000       0x3a CMakeFiles/ex1_create_task.dir/D_/pico/pico-sdk/src/common/pico_sync/sem.c.obj
 .time_critical.sem_acquire_block_until
                0x00000000       0x4a CMakeFiles/ex1_create_task.dir/D_/pico/pico-sdk/src/common/pico_sync/sem.c.obj
 .rodata.str1.4
                0x00000000       0xb0 CMakeFiles/ex1_create_task.dir/D_/pico/pico-sdk/src/common/pico_sync/sem.c.obj
 .time_critical.sem_acquire_timeout_ms
                0x00000000       0x74 CMakeFiles/ex1_create_task.dir/D_/pico/pico-sdk/src/common/pico_sync/sem.c.obj
 .time_critical.sem_acquire_timeout_us
                0x00000000       0x5c CMakeFiles/ex1_create_task.dir/D_/pico/pico-sdk/src/common/pico_sync/sem.c.obj
 .time_critical.sem_try_acquire
                0x00000000       0x42 CMakeFiles/ex1_create_task.dir/D_/pico/pico-sdk/src/common/pico_sync/sem.c.obj
 .time_critical.sem_release
                0x00000000       0x3e CMakeFiles/ex1_create_task.dir/D_/pico/pico-sdk/src/common/pico_sync/sem.c.obj
 .time_critical.sem_reset
                0x00000000       0x5c CMakeFiles/ex1_create_task.dir/D_/pico/pico-sdk/src/common/pico_sync/sem.c.obj
 .rodata.__func__.0
                0x00000000        0xa CMakeFiles/ex1_create_task.dir/D_/pico/pico-sdk/src/common/pico_sync/sem.c.obj
 .rodata.__func__.1
                0x00000000       0x15 CMakeFiles/ex1_create_task.dir/D_/pico/pico-sdk/src/common/pico_sync/sem.c.obj
 .debug_info    0x00000000     0x1192 CMakeFiles/ex1_create_task.dir/D_/pico/pico-sdk/src/common/pico_sync/sem.c.obj
 .debug_abbrev  0x00000000      0x336 CMakeFiles/ex1_create_task.dir/D_/pico/pico-sdk/src/common/pico_sync/sem.c.obj
 .debug_loc     0x00000000      0xa9f CMakeFiles/ex1_create_task.dir/D_/pico/pico-sdk/src/common/pico_sync/sem.c.obj
 .debug_aranges
                0x00000000       0x60 CMakeFiles/ex1_create_task.dir/D_/pico/pico-sdk/src/common/pico_sync/sem.c.obj
 .debug_ranges  0x00000000      0x528 CMakeFiles/ex1_create_task.dir/D_/pico/pico-sdk/src/common/pico_sync/sem.c.obj
 .debug_line    0x00000000      0x942 CMakeFiles/ex1_create_task.dir/D_/pico/pico-sdk/src/common/pico_sync/sem.c.obj
 .debug_str     0x00000000      0x546 CMakeFiles/ex1_create_task.dir/D_/pico/pico-sdk/src/common/pico_sync/sem.c.obj
 .comment       0x00000000       0x4a CMakeFiles/ex1_create_task.dir/D_/pico/pico-sdk/src/common/pico_sync/sem.c.obj
 .debug_frame   0x00000000       0xf8 CMakeFiles/ex1_create_task.dir/D_/pico/pico-sdk/src/common/pico_sync/sem.c.obj
 .ARM.attributes
                0x00000000       0x2c CMakeFiles/ex1_create_task.dir/D_/pico/pico-sdk/src/common/pico_sync/sem.c.obj
 .text          0x00000000        0x0 CMakeFiles/ex1_create_task.dir/D_/pico/pico-sdk/src/common/pico_sync/lock_core.c.obj
 .data          0x00000000        0x0 CMakeFiles/ex1_create_task.dir/D_/pico/pico-sdk/src/common/pico_sync/lock_core.c.obj
 .bss           0x00000000        0x0 CMakeFiles/ex1_create_task.dir/D_/pico/pico-sdk/src/common/pico_sync/lock_core.c.obj
 .text          0x00000000        0x0 CMakeFiles/ex1_create_task.dir/D_/pico/pico-sdk/src/common/pico_time/time.c.obj
 .data          0x00000000        0x0 CMakeFiles/ex1_create_task.dir/D_/pico/pico-sdk/src/common/pico_time/time.c.obj
 .bss           0x00000000        0x0 CMakeFiles/ex1_create_task.dir/D_/pico/pico-sdk/src/common/pico_time/time.c.obj
 .text.repeating_timer_callback
                0x00000000       0x40 CMakeFiles/ex1_create_task.dir/D_/pico/pico-sdk/src/common/pico_time/time.c.obj
 .text.alarm_pool_dump_key
                0x00000000       0x70 CMakeFiles/ex1_create_task.dir/D_/pico/pico-sdk/src/common/pico_time/time.c.obj
 .text.alarm_pool_create
                0x00000000       0x40 CMakeFiles/ex1_create_task.dir/D_/pico/pico-sdk/src/common/pico_time/time.c.obj
 .rodata.alarm_pool_destroy.str1.4
                0x00000000       0x30 CMakeFiles/ex1_create_task.dir/D_/pico/pico-sdk/src/common/pico_time/time.c.obj
 .text.alarm_pool_destroy
                0x00000000       0x78 CMakeFiles/ex1_create_task.dir/D_/pico/pico-sdk/src/common/pico_time/time.c.obj
 .text.alarm_pool_hardware_alarm_num
                0x00000000        0x4 CMakeFiles/ex1_create_task.dir/D_/pico/pico-sdk/src/common/pico_time/time.c.obj
 .text.alarm_pool_add_repeating_timer_us
                0x00000000       0x9c CMakeFiles/ex1_create_task.dir/D_/pico/pico-sdk/src/common/pico_time/time.c.obj
 .text.cancel_repeating_timer
                0x00000000       0x1a CMakeFiles/ex1_create_task.dir/D_/pico/pico-sdk/src/common/pico_time/time.c.obj
 .text.alarm_pool_dump
                0x00000000       0x34 CMakeFiles/ex1_create_task.dir/D_/pico/pico-sdk/src/common/pico_time/time.c.obj
 .rodata.sleep_until.str1.4
                0x00000000       0x4d CMakeFiles/ex1_create_task.dir/D_/pico/pico-sdk/src/common/pico_time/time.c.obj
 .text.sleep_until
                0x00000000       0xf0 CMakeFiles/ex1_create_task.dir/D_/pico/pico-sdk/src/common/pico_time/time.c.obj
 .text.sleep_us
                0x00000000       0x58 CMakeFiles/ex1_create_task.dir/D_/pico/pico-sdk/src/common/pico_time/time.c.obj
 .text.sleep_ms
                0x00000000       0x14 CMakeFiles/ex1_create_task.dir/D_/pico/pico-sdk/src/common/pico_time/time.c.obj
 .rodata.__func__.0
                0x00000000       0x19 CMakeFiles/ex1_create_task.dir/D_/pico/pico-sdk/src/common/pico_time/time.c.obj
 .rodata.__func__.2
                0x00000000       0x13 CMakeFiles/ex1_create_task.dir/D_/pico/pico-sdk/src/common/pico_time/time.c.obj
 .rodata.at_the_end_of_time
                0x00000000        0x8 CMakeFiles/ex1_create_task.dir/D_/pico/pico-sdk/src/common/pico_time/time.c.obj
 .rodata.nil_time
                0x00000000        0x8 CMakeFiles/ex1_create_task.dir/D_/pico/pico-sdk/src/common/pico_time/time.c.obj
 .text          0x00000000        0x0 CMakeFiles/ex1_create_task.dir/D_/pico/pico-sdk/src/common/pico_time/timeout_helper.c.obj
 .data          0x00000000        0x0 CMakeFiles/ex1_create_task.dir/D_/pico/pico-sdk/src/common/pico_time/timeout_helper.c.obj
 .bss           0x00000000        0x0 CMakeFiles/ex1_create_task.dir/D_/pico/pico-sdk/src/common/pico_time/timeout_helper.c.obj
 .rodata.check_per_iteration_timeout_us.str1.4
                0x00000000       0x57 CMakeFiles/ex1_create_task.dir/D_/pico/pico-sdk/src/common/pico_time/timeout_helper.c.obj
 .text.check_per_iteration_timeout_us
                0x00000000       0x8c CMakeFiles/ex1_create_task.dir/D_/pico/pico-sdk/src/common/pico_time/timeout_helper.c.obj
 .text.check_single_timeout_us
                0x00000000       0x2c CMakeFiles/ex1_create_task.dir/D_/pico/pico-sdk/src/common/pico_time/timeout_helper.c.obj
 .text.init_single_timeout_until
                0x00000000        0xc CMakeFiles/ex1_create_task.dir/D_/pico/pico-sdk/src/common/pico_time/timeout_helper.c.obj
 .text.init_per_iteration_timeout_us
                0x00000000       0x64 CMakeFiles/ex1_create_task.dir/D_/pico/pico-sdk/src/common/pico_time/timeout_helper.c.obj
 .rodata.__func__.0
                0x00000000       0x15 CMakeFiles/ex1_create_task.dir/D_/pico/pico-sdk/src/common/pico_time/timeout_helper.c.obj
 .debug_info    0x00000000      0x7fb CMakeFiles/ex1_create_task.dir/D_/pico/pico-sdk/src/common/pico_time/timeout_helper.c.obj
 .debug_abbrev  0x00000000      0x243 CMakeFiles/ex1_create_task.dir/D_/pico/pico-sdk/src/common/pico_time/timeout_helper.c.obj
 .debug_loc     0x00000000      0x464 CMakeFiles/ex1_create_task.dir/D_/pico/pico-sdk/src/common/pico_time/timeout_helper.c.obj
 .debug_aranges
                0x00000000       0x38 CMakeFiles/ex1_create_task.dir/D_/pico/pico-sdk/src/common/pico_time/timeout_helper.c.obj
 .debug_ranges  0x00000000      0x148 CMakeFiles/ex1_create_task.dir/D_/pico/pico-sdk/src/common/pico_time/timeout_helper.c.obj
 .debug_line    0x00000000      0x4d5 CMakeFiles/ex1_create_task.dir/D_/pico/pico-sdk/src/common/pico_time/timeout_helper.c.obj
 .debug_str     0x00000000      0x3e5 CMakeFiles/ex1_create_task.dir/D_/pico/pico-sdk/src/common/pico_time/timeout_helper.c.obj
 .comment       0x00000000       0x4a CMakeFiles/ex1_create_task.dir/D_/pico/pico-sdk/src/common/pico_time/timeout_helper.c.obj
 .debug_frame   0x00000000       0x6c CMakeFiles/ex1_create_task.dir/D_/pico/pico-sdk/src/common/pico_time/timeout_helper.c.obj
 .ARM.attributes
                0x00000000       0x2c CMakeFiles/ex1_create_task.dir/D_/pico/pico-sdk/src/common/pico_time/timeout_helper.c.obj
 .text          0x00000000        0x0 CMakeFiles/ex1_create_task.dir/D_/pico/pico-sdk/src/rp2_common/hardware_timer/timer.c.obj
 .data          0x00000000        0x0 CMakeFiles/ex1_create_task.dir/D_/pico/pico-sdk/src/rp2_common/hardware_timer/timer.c.obj
 .bss           0x00000000        0x0 CMakeFiles/ex1_create_task.dir/D_/pico/pico-sdk/src/rp2_common/hardware_timer/timer.c.obj
 .text.hardware_alarm_unclaim
                0x00000000       0x10 CMakeFiles/ex1_create_task.dir/D_/pico/pico-sdk/src/rp2_common/hardware_timer/timer.c.obj
 .text.hardware_alarm_is_claimed
                0x00000000       0x10 CMakeFiles/ex1_create_task.dir/D_/pico/pico-sdk/src/rp2_common/hardware_timer/timer.c.obj
 .text.busy_wait_until
                0x00000000       0x28 CMakeFiles/ex1_create_task.dir/D_/pico/pico-sdk/src/rp2_common/hardware_timer/timer.c.obj
 .rodata.busy_wait_us.str1.4
                0x00000000       0x57 CMakeFiles/ex1_create_task.dir/D_/pico/pico-sdk/src/rp2_common/hardware_timer/timer.c.obj
 .text.busy_wait_us
                0x00000000       0x48 CMakeFiles/ex1_create_task.dir/D_/pico/pico-sdk/src/rp2_common/hardware_timer/timer.c.obj
 .text.busy_wait_us_32
                0x00000000       0x24 CMakeFiles/ex1_create_task.dir/D_/pico/pico-sdk/src/rp2_common/hardware_timer/timer.c.obj
 .text.busy_wait_ms
                0x00000000       0x30 CMakeFiles/ex1_create_task.dir/D_/pico/pico-sdk/src/rp2_common/hardware_timer/timer.c.obj
 .rodata.__func__.1
                0x00000000       0x15 CMakeFiles/ex1_create_task.dir/D_/pico/pico-sdk/src/rp2_common/hardware_timer/timer.c.obj
 .text          0x00000000        0x0 CMakeFiles/ex1_create_task.dir/D_/pico/pico-sdk/src/common/pico_util/datetime.c.obj
 .data          0x00000000        0x0 CMakeFiles/ex1_create_task.dir/D_/pico/pico-sdk/src/common/pico_util/datetime.c.obj
 .bss           0x00000000        0x0 CMakeFiles/ex1_create_task.dir/D_/pico/pico-sdk/src/common/pico_util/datetime.c.obj
 .rodata.datetime_to_str.str1.4
                0x00000000       0x19 CMakeFiles/ex1_create_task.dir/D_/pico/pico-sdk/src/common/pico_util/datetime.c.obj
 .text.datetime_to_str
                0x00000000       0x64 CMakeFiles/ex1_create_task.dir/D_/pico/pico-sdk/src/common/pico_util/datetime.c.obj
 .rodata.str1.4
                0x00000000       0xad CMakeFiles/ex1_create_task.dir/D_/pico/pico-sdk/src/common/pico_util/datetime.c.obj
 .rodata.DATETIME_DOWS
                0x00000000       0x1c CMakeFiles/ex1_create_task.dir/D_/pico/pico-sdk/src/common/pico_util/datetime.c.obj
 .rodata.DATETIME_MONTHS
                0x00000000       0x30 CMakeFiles/ex1_create_task.dir/D_/pico/pico-sdk/src/common/pico_util/datetime.c.obj
 .debug_info    0x00000000      0x21a CMakeFiles/ex1_create_task.dir/D_/pico/pico-sdk/src/common/pico_util/datetime.c.obj
 .debug_abbrev  0x00000000      0x10b CMakeFiles/ex1_create_task.dir/D_/pico/pico-sdk/src/common/pico_util/datetime.c.obj
 .debug_loc     0x00000000       0x7c CMakeFiles/ex1_create_task.dir/D_/pico/pico-sdk/src/common/pico_util/datetime.c.obj
 .debug_aranges
                0x00000000       0x20 CMakeFiles/ex1_create_task.dir/D_/pico/pico-sdk/src/common/pico_util/datetime.c.obj
 .debug_ranges  0x00000000       0x10 CMakeFiles/ex1_create_task.dir/D_/pico/pico-sdk/src/common/pico_util/datetime.c.obj
 .debug_line    0x00000000      0x18b CMakeFiles/ex1_create_task.dir/D_/pico/pico-sdk/src/common/pico_util/datetime.c.obj
 .debug_str     0x00000000      0x20e CMakeFiles/ex1_create_task.dir/D_/pico/pico-sdk/src/common/pico_util/datetime.c.obj
 .comment       0x00000000       0x4a CMakeFiles/ex1_create_task.dir/D_/pico/pico-sdk/src/common/pico_util/datetime.c.obj
 .debug_frame   0x00000000       0x38 CMakeFiles/ex1_create_task.dir/D_/pico/pico-sdk/src/common/pico_util/datetime.c.obj
 .ARM.attributes
                0x00000000       0x2c CMakeFiles/ex1_create_task.dir/D_/pico/pico-sdk/src/common/pico_util/datetime.c.obj
 .text          0x00000000        0x0 CMakeFiles/ex1_create_task.dir/D_/pico/pico-sdk/src/common/pico_util/pheap.c.obj
 .data          0x00000000        0x0 CMakeFiles/ex1_create_task.dir/D_/pico/pico-sdk/src/common/pico_util/pheap.c.obj
 .bss           0x00000000        0x0 CMakeFiles/ex1_create_task.dir/D_/pico/pico-sdk/src/common/pico_util/pheap.c.obj
 .rodata.ph_dump_node.str1.4
                0x00000000       0x15 CMakeFiles/ex1_create_task.dir/D_/pico/pico-sdk/src/common/pico_util/pheap.c.obj
 .text.ph_dump_node
                0x00000000       0xb4 CMakeFiles/ex1_create_task.dir/D_/pico/pico-sdk/src/common/pico_util/pheap.c.obj
 .text.ph_create
                0x00000000       0x2c CMakeFiles/ex1_create_task.dir/D_/pico/pico-sdk/src/common/pico_util/pheap.c.obj
 .text.ph_destroy
                0x00000000       0x12 CMakeFiles/ex1_create_task.dir/D_/pico/pico-sdk/src/common/pico_util/pheap.c.obj
 .rodata.ph_dump.str1.4
                0x00000000        0xf CMakeFiles/ex1_create_task.dir/D_/pico/pico-sdk/src/common/pico_util/pheap.c.obj
 .text.ph_dump  0x00000000       0x24 CMakeFiles/ex1_create_task.dir/D_/pico/pico-sdk/src/common/pico_util/pheap.c.obj
 .text          0x00000000        0x0 CMakeFiles/ex1_create_task.dir/D_/pico/pico-sdk/src/common/pico_util/queue.c.obj
 .data          0x00000000        0x0 CMakeFiles/ex1_create_task.dir/D_/pico/pico-sdk/src/common/pico_util/queue.c.obj
 .bss           0x00000000        0x0 CMakeFiles/ex1_create_task.dir/D_/pico/pico-sdk/src/common/pico_util/queue.c.obj
 .rodata.queue_add_internal.str1.4
                0x00000000       0x4a CMakeFiles/ex1_create_task.dir/D_/pico/pico-sdk/src/common/pico_util/queue.c.obj
 .text.queue_add_internal
                0x00000000       0x98 CMakeFiles/ex1_create_task.dir/D_/pico/pico-sdk/src/common/pico_util/queue.c.obj
 .text.queue_peek_internal
                0x00000000       0x88 CMakeFiles/ex1_create_task.dir/D_/pico/pico-sdk/src/common/pico_util/queue.c.obj
 .text.queue_remove_internal
                0x00000000       0x98 CMakeFiles/ex1_create_task.dir/D_/pico/pico-sdk/src/common/pico_util/queue.c.obj
 .text.queue_init_with_spinlock
                0x00000000       0x24 CMakeFiles/ex1_create_task.dir/D_/pico/pico-sdk/src/common/pico_util/queue.c.obj
 .text.queue_free
                0x00000000        0xa CMakeFiles/ex1_create_task.dir/D_/pico/pico-sdk/src/common/pico_util/queue.c.obj
 .text.queue_try_add
                0x00000000        0xa CMakeFiles/ex1_create_task.dir/D_/pico/pico-sdk/src/common/pico_util/queue.c.obj
 .text.queue_try_remove
                0x00000000        0xa CMakeFiles/ex1_create_task.dir/D_/pico/pico-sdk/src/common/pico_util/queue.c.obj
 .text.queue_try_peek
                0x00000000        0xa CMakeFiles/ex1_create_task.dir/D_/pico/pico-sdk/src/common/pico_util/queue.c.obj
 .text.queue_add_blocking
                0x00000000        0xa CMakeFiles/ex1_create_task.dir/D_/pico/pico-sdk/src/common/pico_util/queue.c.obj
 .text.queue_remove_blocking
                0x00000000        0xa CMakeFiles/ex1_create_task.dir/D_/pico/pico-sdk/src/common/pico_util/queue.c.obj
 .text.queue_peek_blocking
                0x00000000        0xa CMakeFiles/ex1_create_task.dir/D_/pico/pico-sdk/src/common/pico_util/queue.c.obj
 .rodata.__func__.0
                0x00000000        0xc CMakeFiles/ex1_create_task.dir/D_/pico/pico-sdk/src/common/pico_util/queue.c.obj
 .debug_info    0x00000000      0xe78 CMakeFiles/ex1_create_task.dir/D_/pico/pico-sdk/src/common/pico_util/queue.c.obj
 .debug_abbrev  0x00000000      0x31b CMakeFiles/ex1_create_task.dir/D_/pico/pico-sdk/src/common/pico_util/queue.c.obj
 .debug_loc     0x00000000      0x9fa CMakeFiles/ex1_create_task.dir/D_/pico/pico-sdk/src/common/pico_util/queue.c.obj
 .debug_aranges
                0x00000000       0x70 CMakeFiles/ex1_create_task.dir/D_/pico/pico-sdk/src/common/pico_util/queue.c.obj
 .debug_ranges  0x00000000      0x390 CMakeFiles/ex1_create_task.dir/D_/pico/pico-sdk/src/common/pico_util/queue.c.obj
 .debug_line    0x00000000      0x7e7 CMakeFiles/ex1_create_task.dir/D_/pico/pico-sdk/src/common/pico_util/queue.c.obj
 .debug_str     0x00000000      0x4a3 CMakeFiles/ex1_create_task.dir/D_/pico/pico-sdk/src/common/pico_util/queue.c.obj
 .comment       0x00000000       0x4a CMakeFiles/ex1_create_task.dir/D_/pico/pico-sdk/src/common/pico_util/queue.c.obj
 .debug_frame   0x00000000      0x134 CMakeFiles/ex1_create_task.dir/D_/pico/pico-sdk/src/common/pico_util/queue.c.obj
 .ARM.attributes
                0x00000000       0x2c CMakeFiles/ex1_create_task.dir/D_/pico/pico-sdk/src/common/pico_util/queue.c.obj
 .text          0x00000000        0x0 CMakeFiles/ex1_create_task.dir/D_/pico/pico-sdk/src/common/pico_sync/mutex.c.obj
 .data          0x00000000        0x0 CMakeFiles/ex1_create_task.dir/D_/pico/pico-sdk/src/common/pico_sync/mutex.c.obj
 .bss           0x00000000        0x0 CMakeFiles/ex1_create_task.dir/D_/pico/pico-sdk/src/common/pico_sync/mutex.c.obj
 .time_critical.recursive_mutex_enter_blocking
                0x00000000       0x64 CMakeFiles/ex1_create_task.dir/D_/pico/pico-sdk/src/common/pico_sync/mutex.c.obj
 .time_critical.recursive_mutex_try_enter
                0x00000000       0x6c CMakeFiles/ex1_create_task.dir/D_/pico/pico-sdk/src/common/pico_sync/mutex.c.obj
 .time_critical.mutex_enter_timeout_us
                0x00000000       0x5c CMakeFiles/ex1_create_task.dir/D_/pico/pico-sdk/src/common/pico_sync/mutex.c.obj
 .time_critical.recursive_mutex_enter_block_until
                0x00000000       0x98 CMakeFiles/ex1_create_task.dir/D_/pico/pico-sdk/src/common/pico_sync/mutex.c.obj
 .time_critical.recursive_mutex_enter_timeout_ms
                0x00000000       0x74 CMakeFiles/ex1_create_task.dir/D_/pico/pico-sdk/src/common/pico_sync/mutex.c.obj
 .time_critical.recursive_mutex_enter_timeout_us
                0x00000000       0x5c CMakeFiles/ex1_create_task.dir/D_/pico/pico-sdk/src/common/pico_sync/mutex.c.obj
 .time_critical.recursive_mutex_exit
                0x00000000       0x6c CMakeFiles/ex1_create_task.dir/D_/pico/pico-sdk/src/common/pico_sync/mutex.c.obj
 .rodata.__func__.0
                0x00000000       0x15 CMakeFiles/ex1_create_task.dir/D_/pico/pico-sdk/src/common/pico_sync/mutex.c.obj
 .rodata.__func__.2
                0x00000000       0x22 CMakeFiles/ex1_create_task.dir/D_/pico/pico-sdk/src/common/pico_sync/mutex.c.obj
 .rodata.__func__.5
                0x00000000       0x1a CMakeFiles/ex1_create_task.dir/D_/pico/pico-sdk/src/common/pico_sync/mutex.c.obj
 .rodata.__func__.6
                0x00000000       0x1f CMakeFiles/ex1_create_task.dir/D_/pico/pico-sdk/src/common/pico_sync/mutex.c.obj
 .text          0x00000000        0x0 CMakeFiles/ex1_create_task.dir/D_/pico/pico-sdk/src/common/pico_sync/critical_section.c.obj
 .data          0x00000000        0x0 CMakeFiles/ex1_create_task.dir/D_/pico/pico-sdk/src/common/pico_sync/critical_section.c.obj
 .bss           0x00000000        0x0 CMakeFiles/ex1_create_task.dir/D_/pico/pico-sdk/src/common/pico_sync/critical_section.c.obj
 .text.critical_section_deinit
                0x00000000       0x20 CMakeFiles/ex1_create_task.dir/D_/pico/pico-sdk/src/common/pico_sync/critical_section.c.obj
 .text          0x00000000        0x0 CMakeFiles/ex1_create_task.dir/D_/pico/pico-sdk/src/rp2_common/hardware_uart/uart.c.obj
 .data          0x00000000        0x0 CMakeFiles/ex1_create_task.dir/D_/pico/pico-sdk/src/rp2_common/hardware_uart/uart.c.obj
 .bss           0x00000000        0x0 CMakeFiles/ex1_create_task.dir/D_/pico/pico-sdk/src/rp2_common/hardware_uart/uart.c.obj
 .text.uart_deinit
                0x00000000       0x20 CMakeFiles/ex1_create_task.dir/D_/pico/pico-sdk/src/rp2_common/hardware_uart/uart.c.obj
 .text.uart_set_baudrate
                0x00000000       0x5c CMakeFiles/ex1_create_task.dir/D_/pico/pico-sdk/src/rp2_common/hardware_uart/uart.c.obj
 .text.uart_set_translate_crlf
                0x00000000       0x28 CMakeFiles/ex1_create_task.dir/D_/pico/pico-sdk/src/rp2_common/hardware_uart/uart.c.obj
 .text.uart_init
                0x00000000       0x80 CMakeFiles/ex1_create_task.dir/D_/pico/pico-sdk/src/rp2_common/hardware_uart/uart.c.obj
 .text.uart_is_readable_within_us
                0x00000000       0x20 CMakeFiles/ex1_create_task.dir/D_/pico/pico-sdk/src/rp2_common/hardware_uart/uart.c.obj
 .bss.uart_char_to_line_feed
                0x00000000        0x4 CMakeFiles/ex1_create_task.dir/D_/pico/pico-sdk/src/rp2_common/hardware_uart/uart.c.obj
 .debug_info    0x00000000      0xb65 CMakeFiles/ex1_create_task.dir/D_/pico/pico-sdk/src/rp2_common/hardware_uart/uart.c.obj
 .debug_abbrev  0x00000000      0x2d2 CMakeFiles/ex1_create_task.dir/D_/pico/pico-sdk/src/rp2_common/hardware_uart/uart.c.obj
 .debug_loc     0x00000000      0x520 CMakeFiles/ex1_create_task.dir/D_/pico/pico-sdk/src/rp2_common/hardware_uart/uart.c.obj
 .debug_aranges
                0x00000000       0x40 CMakeFiles/ex1_create_task.dir/D_/pico/pico-sdk/src/rp2_common/hardware_uart/uart.c.obj
 .debug_ranges  0x00000000       0xf8 CMakeFiles/ex1_create_task.dir/D_/pico/pico-sdk/src/rp2_common/hardware_uart/uart.c.obj
 .debug_line    0x00000000      0x6b7 CMakeFiles/ex1_create_task.dir/D_/pico/pico-sdk/src/rp2_common/hardware_uart/uart.c.obj
 .debug_str     0x00000000      0x53e CMakeFiles/ex1_create_task.dir/D_/pico/pico-sdk/src/rp2_common/hardware_uart/uart.c.obj
 .comment       0x00000000       0x4a CMakeFiles/ex1_create_task.dir/D_/pico/pico-sdk/src/rp2_common/hardware_uart/uart.c.obj
 .debug_frame   0x00000000       0x78 CMakeFiles/ex1_create_task.dir/D_/pico/pico-sdk/src/rp2_common/hardware_uart/uart.c.obj
 .ARM.attributes
                0x00000000       0x2c CMakeFiles/ex1_create_task.dir/D_/pico/pico-sdk/src/rp2_common/hardware_uart/uart.c.obj
 .text          0x00000000        0x0 CMakeFiles/ex1_create_task.dir/D_/pico/pico-sdk/src/rp2_common/hardware_divider/divider.S.obj
 .data          0x00000000        0x0 CMakeFiles/ex1_create_task.dir/D_/pico/pico-sdk/src/rp2_common/hardware_divider/divider.S.obj
 .bss           0x00000000        0x0 CMakeFiles/ex1_create_task.dir/D_/pico/pico-sdk/src/rp2_common/hardware_divider/divider.S.obj
 .text.hw_divider_divmod_s32
                0x00000000       0x18 CMakeFiles/ex1_create_task.dir/D_/pico/pico-sdk/src/rp2_common/hardware_divider/divider.S.obj
 .text.hw_divider_divmod_u32
                0x00000000       0x18 CMakeFiles/ex1_create_task.dir/D_/pico/pico-sdk/src/rp2_common/hardware_divider/divider.S.obj
 .text.hw_divider_save_state
                0x00000000       0x1c CMakeFiles/ex1_create_task.dir/D_/pico/pico-sdk/src/rp2_common/hardware_divider/divider.S.obj
 .text.hw_divider_restore_state
                0x00000000       0x14 CMakeFiles/ex1_create_task.dir/D_/pico/pico-sdk/src/rp2_common/hardware_divider/divider.S.obj
 .debug_line    0x00000000       0xc1 CMakeFiles/ex1_create_task.dir/D_/pico/pico-sdk/src/rp2_common/hardware_divider/divider.S.obj
 .debug_info    0x00000000       0x22 CMakeFiles/ex1_create_task.dir/D_/pico/pico-sdk/src/rp2_common/hardware_divider/divider.S.obj
 .debug_abbrev  0x00000000       0x12 CMakeFiles/ex1_create_task.dir/D_/pico/pico-sdk/src/rp2_common/hardware_divider/divider.S.obj
 .debug_aranges
                0x00000000       0x38 CMakeFiles/ex1_create_task.dir/D_/pico/pico-sdk/src/rp2_common/hardware_divider/divider.S.obj
 .debug_str     0x00000000       0x75 CMakeFiles/ex1_create_task.dir/D_/pico/pico-sdk/src/rp2_common/hardware_divider/divider.S.obj
 .debug_ranges  0x00000000       0x30 CMakeFiles/ex1_create_task.dir/D_/pico/pico-sdk/src/rp2_common/hardware_divider/divider.S.obj
 .ARM.attributes
                0x00000000       0x22 CMakeFiles/ex1_create_task.dir/D_/pico/pico-sdk/src/rp2_common/hardware_divider/divider.S.obj
 .text          0x00000000        0x0 CMakeFiles/ex1_create_task.dir/D_/pico/pico-sdk/src/rp2_common/pico_runtime/runtime.c.obj
 .data          0x00000000        0x0 CMakeFiles/ex1_create_task.dir/D_/pico/pico-sdk/src/rp2_common/pico_runtime/runtime.c.obj
 .bss           0x00000000        0x0 CMakeFiles/ex1_create_task.dir/D_/pico/pico-sdk/src/rp2_common/pico_runtime/runtime.c.obj
 .text.runtime_install_stack_guard
                0x00000000       0x40 CMakeFiles/ex1_create_task.dir/D_/pico/pico-sdk/src/rp2_common/pico_runtime/runtime.c.obj
 .text._sbrk    0x00000000       0x38 CMakeFiles/ex1_create_task.dir/D_/pico/pico-sdk/src/rp2_common/pico_runtime/runtime.c.obj
 .rodata.hard_assertion_failure.str1.4
                0x00000000        0xc CMakeFiles/ex1_create_task.dir/D_/pico/pico-sdk/src/rp2_common/pico_runtime/runtime.c.obj
 .text.hard_assertion_failure
                0x00000000        0xc CMakeFiles/ex1_create_task.dir/D_/pico/pico-sdk/src/rp2_common/pico_runtime/runtime.c.obj
 .bss.heap_end.0
                0x00000000        0x4 CMakeFiles/ex1_create_task.dir/D_/pico/pico-sdk/src/rp2_common/pico_runtime/runtime.c.obj
 .text          0x00000000        0x0 CMakeFiles/ex1_create_task.dir/D_/pico/pico-sdk/src/rp2_common/hardware_clocks/clocks.c.obj
 .data          0x00000000        0x0 CMakeFiles/ex1_create_task.dir/D_/pico/pico-sdk/src/rp2_common/hardware_clocks/clocks.c.obj
 .bss           0x00000000        0x0 CMakeFiles/ex1_create_task.dir/D_/pico/pico-sdk/src/rp2_common/hardware_clocks/clocks.c.obj
 .text.clock_stop
                0x00000000       0x2c CMakeFiles/ex1_create_task.dir/D_/pico/pico-sdk/src/rp2_common/hardware_clocks/clocks.c.obj
 .rodata.clocks_handle_resus.str1.4
                0x00000000       0x8b CMakeFiles/ex1_create_task.dir/D_/pico/pico-sdk/src/rp2_common/hardware_clocks/clocks.c.obj
 .text.clocks_handle_resus
                0x00000000       0x80 CMakeFiles/ex1_create_task.dir/D_/pico/pico-sdk/src/rp2_common/hardware_clocks/clocks.c.obj
 .rodata.clocks_irq_handler.str1.4
                0x00000000       0x17 CMakeFiles/ex1_create_task.dir/D_/pico/pico-sdk/src/rp2_common/hardware_clocks/clocks.c.obj
 .text.clocks_irq_handler
                0x00000000       0x2c CMakeFiles/ex1_create_task.dir/D_/pico/pico-sdk/src/rp2_common/hardware_clocks/clocks.c.obj
 .text.clock_set_reported_hz
                0x00000000        0xc CMakeFiles/ex1_create_task.dir/D_/pico/pico-sdk/src/rp2_common/hardware_clocks/clocks.c.obj
 .text.frequency_count_khz
                0x00000000       0x40 CMakeFiles/ex1_create_task.dir/D_/pico/pico-sdk/src/rp2_common/hardware_clocks/clocks.c.obj
 .text.clocks_enable_resus
                0x00000000       0x34 CMakeFiles/ex1_create_task.dir/D_/pico/pico-sdk/src/rp2_common/hardware_clocks/clocks.c.obj
 .text.clock_gpio_init
                0x00000000       0x4c CMakeFiles/ex1_create_task.dir/D_/pico/pico-sdk/src/rp2_common/hardware_clocks/clocks.c.obj
 .text.clock_configure_gpin
                0x00000000       0x5c CMakeFiles/ex1_create_task.dir/D_/pico/pico-sdk/src/rp2_common/hardware_clocks/clocks.c.obj
 .bss._resus_callback
                0x00000000        0x4 CMakeFiles/ex1_create_task.dir/D_/pico/pico-sdk/src/rp2_common/hardware_clocks/clocks.c.obj
 .rodata.__func__.0
                0x00000000       0x14 CMakeFiles/ex1_create_task.dir/D_/pico/pico-sdk/src/rp2_common/hardware_clocks/clocks.c.obj
 .rodata.gpin0_src
                0x00000000        0xa CMakeFiles/ex1_create_task.dir/D_/pico/pico-sdk/src/rp2_common/hardware_clocks/clocks.c.obj
 .text          0x00000000        0x0 CMakeFiles/ex1_create_task.dir/D_/pico/pico-sdk/src/rp2_common/hardware_pll/pll.c.obj
 .data          0x00000000        0x0 CMakeFiles/ex1_create_task.dir/D_/pico/pico-sdk/src/rp2_common/hardware_pll/pll.c.obj
 .bss           0x00000000        0x0 CMakeFiles/ex1_create_task.dir/D_/pico/pico-sdk/src/rp2_common/hardware_pll/pll.c.obj
 .text.pll_deinit
                0x00000000        0x6 CMakeFiles/ex1_create_task.dir/D_/pico/pico-sdk/src/rp2_common/hardware_pll/pll.c.obj
 .text          0x00000000        0x0 CMakeFiles/ex1_create_task.dir/D_/pico/pico-sdk/src/rp2_common/hardware_vreg/vreg.c.obj
 .data          0x00000000        0x0 CMakeFiles/ex1_create_task.dir/D_/pico/pico-sdk/src/rp2_common/hardware_vreg/vreg.c.obj
 .bss           0x00000000        0x0 CMakeFiles/ex1_create_task.dir/D_/pico/pico-sdk/src/rp2_common/hardware_vreg/vreg.c.obj
 .text.vreg_set_voltage
                0x00000000       0x1c CMakeFiles/ex1_create_task.dir/D_/pico/pico-sdk/src/rp2_common/hardware_vreg/vreg.c.obj
 .debug_info    0x00000000      0x250 CMakeFiles/ex1_create_task.dir/D_/pico/pico-sdk/src/rp2_common/hardware_vreg/vreg.c.obj
 .debug_abbrev  0x00000000      0x11d CMakeFiles/ex1_create_task.dir/D_/pico/pico-sdk/src/rp2_common/hardware_vreg/vreg.c.obj
 .debug_loc     0x00000000       0x9a CMakeFiles/ex1_create_task.dir/D_/pico/pico-sdk/src/rp2_common/hardware_vreg/vreg.c.obj
 .debug_aranges
                0x00000000       0x20 CMakeFiles/ex1_create_task.dir/D_/pico/pico-sdk/src/rp2_common/hardware_vreg/vreg.c.obj
 .debug_ranges  0x00000000       0x10 CMakeFiles/ex1_create_task.dir/D_/pico/pico-sdk/src/rp2_common/hardware_vreg/vreg.c.obj
 .debug_line    0x00000000      0x25d CMakeFiles/ex1_create_task.dir/D_/pico/pico-sdk/src/rp2_common/hardware_vreg/vreg.c.obj
 .debug_str     0x00000000      0x330 CMakeFiles/ex1_create_task.dir/D_/pico/pico-sdk/src/rp2_common/hardware_vreg/vreg.c.obj
 .comment       0x00000000       0x4a CMakeFiles/ex1_create_task.dir/D_/pico/pico-sdk/src/rp2_common/hardware_vreg/vreg.c.obj
 .debug_frame   0x00000000       0x20 CMakeFiles/ex1_create_task.dir/D_/pico/pico-sdk/src/rp2_common/hardware_vreg/vreg.c.obj
 .ARM.attributes
                0x00000000       0x2c CMakeFiles/ex1_create_task.dir/D_/pico/pico-sdk/src/rp2_common/hardware_vreg/vreg.c.obj
 .text          0x00000000        0x0 CMakeFiles/ex1_create_task.dir/D_/pico/pico-sdk/src/rp2_common/hardware_watchdog/watchdog.c.obj
 .data          0x00000000        0x0 CMakeFiles/ex1_create_task.dir/D_/pico/pico-sdk/src/rp2_common/hardware_watchdog/watchdog.c.obj
 .bss           0x00000000        0x0 CMakeFiles/ex1_create_task.dir/D_/pico/pico-sdk/src/rp2_common/hardware_watchdog/watchdog.c.obj
 .text.watchdog_get_count
                0x00000000       0x10 CMakeFiles/ex1_create_task.dir/D_/pico/pico-sdk/src/rp2_common/hardware_watchdog/watchdog.c.obj
 .text.watchdog_enable
                0x00000000       0x18 CMakeFiles/ex1_create_task.dir/D_/pico/pico-sdk/src/rp2_common/hardware_watchdog/watchdog.c.obj
 .text.watchdog_caused_reboot
                0x00000000       0x10 CMakeFiles/ex1_create_task.dir/D_/pico/pico-sdk/src/rp2_common/hardware_watchdog/watchdog.c.obj
 .text.watchdog_enable_caused_reboot
                0x00000000       0x28 CMakeFiles/ex1_create_task.dir/D_/pico/pico-sdk/src/rp2_common/hardware_watchdog/watchdog.c.obj
 .text          0x00000000        0x0 CMakeFiles/ex1_create_task.dir/D_/pico/pico-sdk/src/rp2_common/hardware_xosc/xosc.c.obj
 .data          0x00000000        0x0 CMakeFiles/ex1_create_task.dir/D_/pico/pico-sdk/src/rp2_common/hardware_xosc/xosc.c.obj
 .bss           0x00000000        0x0 CMakeFiles/ex1_create_task.dir/D_/pico/pico-sdk/src/rp2_common/hardware_xosc/xosc.c.obj
 .text.xosc_disable
                0x00000000       0x24 CMakeFiles/ex1_create_task.dir/D_/pico/pico-sdk/src/rp2_common/hardware_xosc/xosc.c.obj
 .text.xosc_dormant
                0x00000000       0x18 CMakeFiles/ex1_create_task.dir/D_/pico/pico-sdk/src/rp2_common/hardware_xosc/xosc.c.obj
 .text          0x00000000        0x0 CMakeFiles/ex1_create_task.dir/D_/pico/pico-sdk/src/rp2_common/pico_printf/printf.c.obj
 .data          0x00000000        0x0 CMakeFiles/ex1_create_task.dir/D_/pico/pico-sdk/src/rp2_common/pico_printf/printf.c.obj
 .bss           0x00000000        0x0 CMakeFiles/ex1_create_task.dir/D_/pico/pico-sdk/src/rp2_common/pico_printf/printf.c.obj
 .text._out_buffer
                0x00000000        0x8 CMakeFiles/ex1_create_task.dir/D_/pico/pico-sdk/src/rp2_common/pico_printf/printf.c.obj
 .text.__wrap_sprintf
                0x00000000       0x28 CMakeFiles/ex1_create_task.dir/D_/pico/pico-sdk/src/rp2_common/pico_printf/printf.c.obj
 .text.__wrap_snprintf
                0x00000000       0x28 CMakeFiles/ex1_create_task.dir/D_/pico/pico-sdk/src/rp2_common/pico_printf/printf.c.obj
 .text.__wrap_vsnprintf
                0x00000000       0x1c CMakeFiles/ex1_create_task.dir/D_/pico/pico-sdk/src/rp2_common/pico_printf/printf.c.obj
 .data          0x00000000        0x0 CMakeFiles/ex1_create_task.dir/D_/pico/pico-sdk/src/rp2_common/pico_bit_ops/bit_ops_aeabi.S.obj
 .bss           0x00000000        0x0 CMakeFiles/ex1_create_task.dir/D_/pico/pico-sdk/src/rp2_common/pico_bit_ops/bit_ops_aeabi.S.obj
 .text.clzsi    0x00000000        0xc CMakeFiles/ex1_create_task.dir/D_/pico/pico-sdk/src/rp2_common/pico_bit_ops/bit_ops_aeabi.S.obj
 .text.ctzsi    0x00000000        0xc CMakeFiles/ex1_create_task.dir/D_/pico/pico-sdk/src/rp2_common/pico_bit_ops/bit_ops_aeabi.S.obj
 .text.popcountsi
                0x00000000        0xc CMakeFiles/ex1_create_task.dir/D_/pico/pico-sdk/src/rp2_common/pico_bit_ops/bit_ops_aeabi.S.obj
 .text.clzdi    0x00000000       0x18 CMakeFiles/ex1_create_task.dir/D_/pico/pico-sdk/src/rp2_common/pico_bit_ops/bit_ops_aeabi.S.obj
 .text.ctzdi    0x00000000       0x18 CMakeFiles/ex1_create_task.dir/D_/pico/pico-sdk/src/rp2_common/pico_bit_ops/bit_ops_aeabi.S.obj
 .text.popcountdi
                0x00000000       0x18 CMakeFiles/ex1_create_task.dir/D_/pico/pico-sdk/src/rp2_common/pico_bit_ops/bit_ops_aeabi.S.obj
 .text.reverse32
                0x00000000        0xc CMakeFiles/ex1_create_task.dir/D_/pico/pico-sdk/src/rp2_common/pico_bit_ops/bit_ops_aeabi.S.obj
 .text.__rev    0x00000000        0xc CMakeFiles/ex1_create_task.dir/D_/pico/pico-sdk/src/rp2_common/pico_bit_ops/bit_ops_aeabi.S.obj
 .text.__revll  0x00000000       0x18 CMakeFiles/ex1_create_task.dir/D_/pico/pico-sdk/src/rp2_common/pico_bit_ops/bit_ops_aeabi.S.obj
 .text          0x00000000        0x0 CMakeFiles/ex1_create_task.dir/D_/pico/pico-sdk/src/rp2_common/pico_bootrom/bootrom.c.obj
 .data          0x00000000        0x0 CMakeFiles/ex1_create_task.dir/D_/pico/pico-sdk/src/rp2_common/pico_bootrom/bootrom.c.obj
 .bss           0x00000000        0x0 CMakeFiles/ex1_create_task.dir/D_/pico/pico-sdk/src/rp2_common/pico_bootrom/bootrom.c.obj
 .text          0x00000000        0x0 CMakeFiles/ex1_create_task.dir/D_/pico/pico-sdk/src/rp2_common/pico_divider/divider.S.obj
 .data          0x00000000        0x0 CMakeFiles/ex1_create_task.dir/D_/pico/pico-sdk/src/rp2_common/pico_divider/divider.S.obj
 .bss           0x00000000        0x0 CMakeFiles/ex1_create_task.dir/D_/pico/pico-sdk/src/rp2_common/pico_divider/divider.S.obj
 .text.divmod_s64s64_rem
                0x00000000        0xc CMakeFiles/ex1_create_task.dir/D_/pico/pico-sdk/src/rp2_common/pico_divider/divider.S.obj
 .text.divmod_u64u64_rem
                0x00000000        0xc CMakeFiles/ex1_create_task.dir/D_/pico/pico-sdk/src/rp2_common/pico_divider/divider.S.obj
 .text          0x00000000        0x0 CMakeFiles/ex1_create_task.dir/D_/pico/pico-sdk/src/rp2_common/pico_double/double_aeabi.S.obj
 .data          0x00000000        0x0 CMakeFiles/ex1_create_task.dir/D_/pico/pico-sdk/src/rp2_common/pico_double/double_aeabi.S.obj
 .bss           0x00000000        0x0 CMakeFiles/ex1_create_task.dir/D_/pico/pico-sdk/src/rp2_common/pico_double/double_aeabi.S.obj
 .text.push_r8_r11
                0x00000000        0xc CMakeFiles/ex1_create_task.dir/D_/pico/pico-sdk/src/rp2_common/pico_double/double_aeabi.S.obj
 .text.pop_r8_r11
                0x00000000        0xc CMakeFiles/ex1_create_task.dir/D_/pico/pico-sdk/src/rp2_common/pico_double/double_aeabi.S.obj
 .text.__wrap___aeabi_dcmpeq
                0x00000000       0x10 CMakeFiles/ex1_create_task.dir/D_/pico/pico-sdk/src/rp2_common/pico_double/double_aeabi.S.obj
 .text.__wrap___aeabi_ui2d
                0x00000000       0x18 CMakeFiles/ex1_create_task.dir/D_/pico/pico-sdk/src/rp2_common/pico_double/double_aeabi.S.obj
 .text.double2int
                0x00000000       0x18 CMakeFiles/ex1_create_task.dir/D_/pico/pico-sdk/src/rp2_common/pico_double/double_aeabi.S.obj
 .text.fix2double
                0x00000000       0x18 CMakeFiles/ex1_create_task.dir/D_/pico/pico-sdk/src/rp2_common/pico_double/double_aeabi.S.obj
 .text.ufix2double
                0x00000000       0x28 CMakeFiles/ex1_create_task.dir/D_/pico/pico-sdk/src/rp2_common/pico_double/double_aeabi.S.obj
 .text.fix642double
                0x00000000       0x18 CMakeFiles/ex1_create_task.dir/D_/pico/pico-sdk/src/rp2_common/pico_double/double_aeabi.S.obj
 .text.__wrap___aeabi_l2d
                0x00000000       0x18 CMakeFiles/ex1_create_task.dir/D_/pico/pico-sdk/src/rp2_common/pico_double/double_aeabi.S.obj
 .text.__wrap___aeabi_ul2d
                0x00000000       0x18 CMakeFiles/ex1_create_task.dir/D_/pico/pico-sdk/src/rp2_common/pico_double/double_aeabi.S.obj
 .text.__wrap___aeabi_d2lz
                0x00000000       0x26 CMakeFiles/ex1_create_task.dir/D_/pico/pico-sdk/src/rp2_common/pico_double/double_aeabi.S.obj
 .text.double2int64
                0x00000000       0x18 CMakeFiles/ex1_create_task.dir/D_/pico/pico-sdk/src/rp2_common/pico_double/double_aeabi.S.obj
 .text.__wrap___aeabi_d2ulz
                0x00000000       0x18 CMakeFiles/ex1_create_task.dir/D_/pico/pico-sdk/src/rp2_common/pico_double/double_aeabi.S.obj
 .text.double2fix64
                0x00000000       0x18 CMakeFiles/ex1_create_task.dir/D_/pico/pico-sdk/src/rp2_common/pico_double/double_aeabi.S.obj
 .text.double2ufix64
                0x00000000       0x18 CMakeFiles/ex1_create_task.dir/D_/pico/pico-sdk/src/rp2_common/pico_double/double_aeabi.S.obj
 .text.double2fix
                0x00000000       0x18 CMakeFiles/ex1_create_task.dir/D_/pico/pico-sdk/src/rp2_common/pico_double/double_aeabi.S.obj
 .text.double2ufix
                0x00000000       0x18 CMakeFiles/ex1_create_task.dir/D_/pico/pico-sdk/src/rp2_common/pico_double/double_aeabi.S.obj
 .text.__wrap___aeabi_d2f
                0x00000000       0x18 CMakeFiles/ex1_create_task.dir/D_/pico/pico-sdk/src/rp2_common/pico_double/double_aeabi.S.obj
 .text.__wrap_srqt
                0x00000000       0x18 CMakeFiles/ex1_create_task.dir/D_/pico/pico-sdk/src/rp2_common/pico_double/double_aeabi.S.obj
 .text.__wrap_sincostan_remainder
                0x00000000       0x14 CMakeFiles/ex1_create_task.dir/D_/pico/pico-sdk/src/rp2_common/pico_double/double_aeabi.S.obj
 .text.__wrap_cos
                0x00000000       0x2c CMakeFiles/ex1_create_task.dir/D_/pico/pico-sdk/src/rp2_common/pico_double/double_aeabi.S.obj
 .text.__wrap_sin
                0x00000000       0x2c CMakeFiles/ex1_create_task.dir/D_/pico/pico-sdk/src/rp2_common/pico_double/double_aeabi.S.obj
 .text.__wrap_sincos
                0x00000000       0xa0 CMakeFiles/ex1_create_task.dir/D_/pico/pico-sdk/src/rp2_common/pico_double/double_aeabi.S.obj
 .text.__wrap_tan
                0x00000000       0x5c CMakeFiles/ex1_create_task.dir/D_/pico/pico-sdk/src/rp2_common/pico_double/double_aeabi.S.obj
 .text.__wrap_atan2
                0x00000000       0x18 CMakeFiles/ex1_create_task.dir/D_/pico/pico-sdk/src/rp2_common/pico_double/double_aeabi.S.obj
 .text.__wrap_exp
                0x00000000       0x18 CMakeFiles/ex1_create_task.dir/D_/pico/pico-sdk/src/rp2_common/pico_double/double_aeabi.S.obj
 .text.__wrap_log
                0x00000000       0x18 CMakeFiles/ex1_create_task.dir/D_/pico/pico-sdk/src/rp2_common/pico_double/double_aeabi.S.obj
 .text          0x00000000        0x0 CMakeFiles/ex1_create_task.dir/D_/pico/pico-sdk/src/rp2_common/pico_double/double_init_rom.c.obj
 .data          0x00000000        0x0 CMakeFiles/ex1_create_task.dir/D_/pico/pico-sdk/src/rp2_common/pico_double/double_init_rom.c.obj
 .bss           0x00000000        0x0 CMakeFiles/ex1_create_task.dir/D_/pico/pico-sdk/src/rp2_common/pico_double/double_init_rom.c.obj
 .text          0x00000000        0x0 CMakeFiles/ex1_create_task.dir/D_/pico/pico-sdk/src/rp2_common/pico_double/double_math.c.obj
 .data          0x00000000        0x0 CMakeFiles/ex1_create_task.dir/D_/pico/pico-sdk/src/rp2_common/pico_double/double_math.c.obj
 .bss           0x00000000        0x0 CMakeFiles/ex1_create_task.dir/D_/pico/pico-sdk/src/rp2_common/pico_double/double_math.c.obj
 .text.dpow_int2
                0x00000000       0x2c CMakeFiles/ex1_create_task.dir/D_/pico/pico-sdk/src/rp2_common/pico_double/double_math.c.obj
 .text.drem_0   0x00000000      0x130 CMakeFiles/ex1_create_task.dir/D_/pico/pico-sdk/src/rp2_common/pico_double/double_math.c.obj
 .text.dpow_1   0x00000000      0x2a8 CMakeFiles/ex1_create_task.dir/D_/pico/pico-sdk/src/rp2_common/pico_double/double_math.c.obj
 .text.dpowint_0
                0x00000000      0x194 CMakeFiles/ex1_create_task.dir/D_/pico/pico-sdk/src/rp2_common/pico_double/double_math.c.obj
 .text.dpow_0   0x00000000      0x1a0 CMakeFiles/ex1_create_task.dir/D_/pico/pico-sdk/src/rp2_common/pico_double/double_math.c.obj
 .text.__wrap_ldexp
                0x00000000       0x50 CMakeFiles/ex1_create_task.dir/D_/pico/pico-sdk/src/rp2_common/pico_double/double_math.c.obj
 .text.__wrap_copysign
                0x00000000       0x10 CMakeFiles/ex1_create_task.dir/D_/pico/pico-sdk/src/rp2_common/pico_double/double_math.c.obj
 .text.__wrap_trunc
                0x00000000       0x60 CMakeFiles/ex1_create_task.dir/D_/pico/pico-sdk/src/rp2_common/pico_double/double_math.c.obj
 .text.__wrap_round
                0x00000000       0x9c CMakeFiles/ex1_create_task.dir/D_/pico/pico-sdk/src/rp2_common/pico_double/double_math.c.obj
 .text.__wrap_floor
                0x00000000       0x9c CMakeFiles/ex1_create_task.dir/D_/pico/pico-sdk/src/rp2_common/pico_double/double_math.c.obj
 .text.__wrap_ceil
                0x00000000       0x9c CMakeFiles/ex1_create_task.dir/D_/pico/pico-sdk/src/rp2_common/pico_double/double_math.c.obj
 .text.__wrap_asin
                0x00000000       0x60 CMakeFiles/ex1_create_task.dir/D_/pico/pico-sdk/src/rp2_common/pico_double/double_math.c.obj
 .text.__wrap_acos
                0x00000000       0x5c CMakeFiles/ex1_create_task.dir/D_/pico/pico-sdk/src/rp2_common/pico_double/double_math.c.obj
 .text.__wrap_atan
                0x00000000       0x40 CMakeFiles/ex1_create_task.dir/D_/pico/pico-sdk/src/rp2_common/pico_double/double_math.c.obj
 .text.__wrap_sinh
                0x00000000       0x7c CMakeFiles/ex1_create_task.dir/D_/pico/pico-sdk/src/rp2_common/pico_double/double_math.c.obj
 .text.__wrap_cosh
                0x00000000       0x7c CMakeFiles/ex1_create_task.dir/D_/pico/pico-sdk/src/rp2_common/pico_double/double_math.c.obj
 .text.__wrap_tanh
                0x00000000       0x98 CMakeFiles/ex1_create_task.dir/D_/pico/pico-sdk/src/rp2_common/pico_double/double_math.c.obj
 .text.__wrap_asinh
                0x00000000       0xb8 CMakeFiles/ex1_create_task.dir/D_/pico/pico-sdk/src/rp2_common/pico_double/double_math.c.obj
 .text.__wrap_acosh
                0x00000000       0x78 CMakeFiles/ex1_create_task.dir/D_/pico/pico-sdk/src/rp2_common/pico_double/double_math.c.obj
 .text.__wrap_atanh
                0x00000000       0x84 CMakeFiles/ex1_create_task.dir/D_/pico/pico-sdk/src/rp2_common/pico_double/double_math.c.obj
 .text.__wrap_exp2
                0x00000000       0xcc CMakeFiles/ex1_create_task.dir/D_/pico/pico-sdk/src/rp2_common/pico_double/double_math.c.obj
 .text.__wrap_log2
                0x00000000       0x18 CMakeFiles/ex1_create_task.dir/D_/pico/pico-sdk/src/rp2_common/pico_double/double_math.c.obj
 .text.__wrap_exp10
                0x00000000       0x14 CMakeFiles/ex1_create_task.dir/D_/pico/pico-sdk/src/rp2_common/pico_double/double_math.c.obj
 .text.__wrap_log10
                0x00000000       0x18 CMakeFiles/ex1_create_task.dir/D_/pico/pico-sdk/src/rp2_common/pico_double/double_math.c.obj
 .text.__wrap_expm1
                0x00000000       0x14 CMakeFiles/ex1_create_task.dir/D_/pico/pico-sdk/src/rp2_common/pico_double/double_math.c.obj
 .text.__wrap_log1p
                0x00000000       0x14 CMakeFiles/ex1_create_task.dir/D_/pico/pico-sdk/src/rp2_common/pico_double/double_math.c.obj
 .text.__wrap_fma
                0x00000000       0x10 CMakeFiles/ex1_create_task.dir/D_/pico/pico-sdk/src/rp2_common/pico_double/double_math.c.obj
 .text.__wrap_powint
                0x00000000       0xbc CMakeFiles/ex1_create_task.dir/D_/pico/pico-sdk/src/rp2_common/pico_double/double_math.c.obj
 .text.__wrap_pow
                0x00000000      0x37c CMakeFiles/ex1_create_task.dir/D_/pico/pico-sdk/src/rp2_common/pico_double/double_math.c.obj
 .text.__wrap_hypot
                0x00000000      0x238 CMakeFiles/ex1_create_task.dir/D_/pico/pico-sdk/src/rp2_common/pico_double/double_math.c.obj
 .text.__wrap_cbrt
                0x00000000       0xf0 CMakeFiles/ex1_create_task.dir/D_/pico/pico-sdk/src/rp2_common/pico_double/double_math.c.obj
 .text.__wrap_fmod
                0x00000000       0xa8 CMakeFiles/ex1_create_task.dir/D_/pico/pico-sdk/src/rp2_common/pico_double/double_math.c.obj
 .text.__wrap_remquo
                0x00000000      0x17c CMakeFiles/ex1_create_task.dir/D_/pico/pico-sdk/src/rp2_common/pico_double/double_math.c.obj
 .text.__wrap_drem
                0x00000000       0x10 CMakeFiles/ex1_create_task.dir/D_/pico/pico-sdk/src/rp2_common/pico_double/double_math.c.obj
 .text.__wrap_remainder
                0x00000000       0x10 CMakeFiles/ex1_create_task.dir/D_/pico/pico-sdk/src/rp2_common/pico_double/double_math.c.obj
 .debug_info    0x00000000     0x5587 CMakeFiles/ex1_create_task.dir/D_/pico/pico-sdk/src/rp2_common/pico_double/double_math.c.obj
 .debug_abbrev  0x00000000      0x2e3 CMakeFiles/ex1_create_task.dir/D_/pico/pico-sdk/src/rp2_common/pico_double/double_math.c.obj
 .debug_loc     0x00000000     0x7f1a CMakeFiles/ex1_create_task.dir/D_/pico/pico-sdk/src/rp2_common/pico_double/double_math.c.obj
 .debug_aranges
                0x00000000      0x130 CMakeFiles/ex1_create_task.dir/D_/pico/pico-sdk/src/rp2_common/pico_double/double_math.c.obj
 .debug_ranges  0x00000000      0x5e8 CMakeFiles/ex1_create_task.dir/D_/pico/pico-sdk/src/rp2_common/pico_double/double_math.c.obj
 .debug_line    0x00000000     0x2c33 CMakeFiles/ex1_create_task.dir/D_/pico/pico-sdk/src/rp2_common/pico_double/double_math.c.obj
 .debug_str     0x00000000      0x512 CMakeFiles/ex1_create_task.dir/D_/pico/pico-sdk/src/rp2_common/pico_double/double_math.c.obj
 .comment       0x00000000       0x4a CMakeFiles/ex1_create_task.dir/D_/pico/pico-sdk/src/rp2_common/pico_double/double_math.c.obj
 .debug_frame   0x00000000      0x440 CMakeFiles/ex1_create_task.dir/D_/pico/pico-sdk/src/rp2_common/pico_double/double_math.c.obj
 .ARM.attributes
                0x00000000       0x2c CMakeFiles/ex1_create_task.dir/D_/pico/pico-sdk/src/rp2_common/pico_double/double_math.c.obj
 .text          0x00000000        0x0 CMakeFiles/ex1_create_task.dir/D_/pico/pico-sdk/src/rp2_common/pico_double/double_v1_rom_shim.S.obj
 .data          0x00000000        0x0 CMakeFiles/ex1_create_task.dir/D_/pico/pico-sdk/src/rp2_common/pico_double/double_v1_rom_shim.S.obj
 .bss           0x00000000        0x0 CMakeFiles/ex1_create_task.dir/D_/pico/pico-sdk/src/rp2_common/pico_double/double_v1_rom_shim.S.obj
 .text.dsqrt_shim
                0x00000000      0x1a8 CMakeFiles/ex1_create_task.dir/D_/pico/pico-sdk/src/rp2_common/pico_double/double_v1_rom_shim.S.obj
 .text.dcordic_vec_step
                0x00000000        0xe CMakeFiles/ex1_create_task.dir/D_/pico/pico-sdk/src/rp2_common/pico_double/double_v1_rom_shim.S.obj
 .text.dcordic_rot_step
                0x00000000       0x76 CMakeFiles/ex1_create_task.dir/D_/pico/pico-sdk/src/rp2_common/pico_double/double_v1_rom_shim.S.obj
 .text.double2int_shim
                0x00000000        0xe CMakeFiles/ex1_create_task.dir/D_/pico/pico-sdk/src/rp2_common/pico_double/double_v1_rom_shim.S.obj
 .text.double2int64_shim
                0x00000000       0x1a CMakeFiles/ex1_create_task.dir/D_/pico/pico-sdk/src/rp2_common/pico_double/double_v1_rom_shim.S.obj
 .text.double2float_shim
                0x00000000       0x5c CMakeFiles/ex1_create_task.dir/D_/pico/pico-sdk/src/rp2_common/pico_double/double_v1_rom_shim.S.obj
 .text.x2double_shims
                0x00000000       0x90 CMakeFiles/ex1_create_task.dir/D_/pico/pico-sdk/src/rp2_common/pico_double/double_v1_rom_shim.S.obj
 .text.dreduce  0x00000000       0x82 CMakeFiles/ex1_create_task.dir/D_/pico/pico-sdk/src/rp2_common/pico_double/double_v1_rom_shim.S.obj
 .text.dtan_shim
                0x00000000       0x20 CMakeFiles/ex1_create_task.dir/D_/pico/pico-sdk/src/rp2_common/pico_double/double_v1_rom_shim.S.obj
 .text.dcos_shim
                0x00000000       0x10 CMakeFiles/ex1_create_task.dir/D_/pico/pico-sdk/src/rp2_common/pico_double/double_v1_rom_shim.S.obj
 .text.dsin_shim
                0x00000000       0x14 CMakeFiles/ex1_create_task.dir/D_/pico/pico-sdk/src/rp2_common/pico_double/double_v1_rom_shim.S.obj
 .text.dsincos_shim
                0x00000000       0x20 CMakeFiles/ex1_create_task.dir/D_/pico/pico-sdk/src/rp2_common/pico_double/double_v1_rom_shim.S.obj
 .text.dtrig_guts
                0x00000000      0x2ec CMakeFiles/ex1_create_task.dir/D_/pico/pico-sdk/src/rp2_common/pico_double/double_v1_rom_shim.S.obj
 .text.dexp_guts
                0x00000000      0x268 CMakeFiles/ex1_create_task.dir/D_/pico/pico-sdk/src/rp2_common/pico_double/double_v1_rom_shim.S.obj
 .text          0x00000000        0x0 CMakeFiles/ex1_create_task.dir/D_/pico/pico-sdk/src/rp2_common/pico_int64_ops/pico_int64_ops_aeabi.S.obj
 .data          0x00000000        0x0 CMakeFiles/ex1_create_task.dir/D_/pico/pico-sdk/src/rp2_common/pico_int64_ops/pico_int64_ops_aeabi.S.obj
 .bss           0x00000000        0x0 CMakeFiles/ex1_create_task.dir/D_/pico/pico-sdk/src/rp2_common/pico_int64_ops/pico_int64_ops_aeabi.S.obj
 .text          0x00000000        0x0 CMakeFiles/ex1_create_task.dir/D_/pico/pico-sdk/src/rp2_common/pico_float/float_aeabi.S.obj
 .data          0x00000000        0x0 CMakeFiles/ex1_create_task.dir/D_/pico/pico-sdk/src/rp2_common/pico_float/float_aeabi.S.obj
 .bss           0x00000000        0x0 CMakeFiles/ex1_create_task.dir/D_/pico/pico-sdk/src/rp2_common/pico_float/float_aeabi.S.obj
 .text.__wrap___aeabi_farithmetic
                0x00000000       0x58 CMakeFiles/ex1_create_task.dir/D_/pico/pico-sdk/src/rp2_common/pico_float/float_aeabi.S.obj
 .text.__wrap___aeabi_cfcmple
                0x00000000       0x50 CMakeFiles/ex1_create_task.dir/D_/pico/pico-sdk/src/rp2_common/pico_float/float_aeabi.S.obj
 .text.__wrap___aeabi_fcmpeq
                0x00000000       0x10 CMakeFiles/ex1_create_task.dir/D_/pico/pico-sdk/src/rp2_common/pico_float/float_aeabi.S.obj
 .text.__wrap___aeabi_fcmplt
                0x00000000        0xc CMakeFiles/ex1_create_task.dir/D_/pico/pico-sdk/src/rp2_common/pico_float/float_aeabi.S.obj
 .text.__wrap___aeabi_fcmple
                0x00000000       0x10 CMakeFiles/ex1_create_task.dir/D_/pico/pico-sdk/src/rp2_common/pico_float/float_aeabi.S.obj
 .text.__wrap___aeabi_fcmpge
                0x00000000       0x10 CMakeFiles/ex1_create_task.dir/D_/pico/pico-sdk/src/rp2_common/pico_float/float_aeabi.S.obj
 .text.__wrap___aeabi_fcmpgt
                0x00000000        0xa CMakeFiles/ex1_create_task.dir/D_/pico/pico-sdk/src/rp2_common/pico_float/float_aeabi.S.obj
 .text.__wrap___aeabi_fcmpun
                0x00000000       0x18 CMakeFiles/ex1_create_task.dir/D_/pico/pico-sdk/src/rp2_common/pico_float/float_aeabi.S.obj
 .text.__wrap___aeabi_ui2f
                0x00000000        0xa CMakeFiles/ex1_create_task.dir/D_/pico/pico-sdk/src/rp2_common/pico_float/float_aeabi.S.obj
 .text.__wrap___aeabi_i2f
                0x00000000       0x44 CMakeFiles/ex1_create_task.dir/D_/pico/pico-sdk/src/rp2_common/pico_float/float_aeabi.S.obj
 .text.__wrap___aeabi_f2iz
                0x00000000       0x4e CMakeFiles/ex1_create_task.dir/D_/pico/pico-sdk/src/rp2_common/pico_float/float_aeabi.S.obj
 .text.float2int
                0x00000000       0x14 CMakeFiles/ex1_create_task.dir/D_/pico/pico-sdk/src/rp2_common/pico_float/float_aeabi.S.obj
 .text.float2fix
                0x00000000       0x14 CMakeFiles/ex1_create_task.dir/D_/pico/pico-sdk/src/rp2_common/pico_float/float_aeabi.S.obj
 .text.float2ufix
                0x00000000       0x10 CMakeFiles/ex1_create_task.dir/D_/pico/pico-sdk/src/rp2_common/pico_float/float_aeabi.S.obj
 .text.__wrap___aeabi_f2uiz
                0x00000000       0x10 CMakeFiles/ex1_create_task.dir/D_/pico/pico-sdk/src/rp2_common/pico_float/float_aeabi.S.obj
 .text.fix2float
                0x00000000       0x10 CMakeFiles/ex1_create_task.dir/D_/pico/pico-sdk/src/rp2_common/pico_float/float_aeabi.S.obj
 .text.ufix2float
                0x00000000       0x10 CMakeFiles/ex1_create_task.dir/D_/pico/pico-sdk/src/rp2_common/pico_float/float_aeabi.S.obj
 .text.fix642float
                0x00000000       0x14 CMakeFiles/ex1_create_task.dir/D_/pico/pico-sdk/src/rp2_common/pico_float/float_aeabi.S.obj
 .text.ufix642float
                0x00000000       0x14 CMakeFiles/ex1_create_task.dir/D_/pico/pico-sdk/src/rp2_common/pico_float/float_aeabi.S.obj
 .text.__wrap___aeabi_l2f
                0x00000000       0x20 CMakeFiles/ex1_create_task.dir/D_/pico/pico-sdk/src/rp2_common/pico_float/float_aeabi.S.obj
 .text.__wrap___aeabi_ul2f
                0x00000000       0x20 CMakeFiles/ex1_create_task.dir/D_/pico/pico-sdk/src/rp2_common/pico_float/float_aeabi.S.obj
 .text.__wrap___aeabi_f2lz
                0x00000000       0x26 CMakeFiles/ex1_create_task.dir/D_/pico/pico-sdk/src/rp2_common/pico_float/float_aeabi.S.obj
 .text.float2int64
                0x00000000       0x14 CMakeFiles/ex1_create_task.dir/D_/pico/pico-sdk/src/rp2_common/pico_float/float_aeabi.S.obj
 .text.float2fix64
                0x00000000       0x14 CMakeFiles/ex1_create_task.dir/D_/pico/pico-sdk/src/rp2_common/pico_float/float_aeabi.S.obj
 .text.__wrap___aeabi_f2ulz
                0x00000000       0x14 CMakeFiles/ex1_create_task.dir/D_/pico/pico-sdk/src/rp2_common/pico_float/float_aeabi.S.obj
 .text.float2ufix64
                0x00000000       0x14 CMakeFiles/ex1_create_task.dir/D_/pico/pico-sdk/src/rp2_common/pico_float/float_aeabi.S.obj
 .text.__wrap___aeabi_f2d
                0x00000000       0x14 CMakeFiles/ex1_create_task.dir/D_/pico/pico-sdk/src/rp2_common/pico_float/float_aeabi.S.obj
 .text.__wrap_srqtf
                0x00000000       0x24 CMakeFiles/ex1_create_task.dir/D_/pico/pico-sdk/src/rp2_common/pico_float/float_aeabi.S.obj
 .text.__wrap_cosf
                0x00000000       0x28 CMakeFiles/ex1_create_task.dir/D_/pico/pico-sdk/src/rp2_common/pico_float/float_aeabi.S.obj
 .text.__wrap_sinf
                0x00000000       0x28 CMakeFiles/ex1_create_task.dir/D_/pico/pico-sdk/src/rp2_common/pico_float/float_aeabi.S.obj
 .text.__wrap_sincosf
                0x00000000       0x30 CMakeFiles/ex1_create_task.dir/D_/pico/pico-sdk/src/rp2_common/pico_float/float_aeabi.S.obj
 .text.__wrap_tanf
                0x00000000       0x50 CMakeFiles/ex1_create_task.dir/D_/pico/pico-sdk/src/rp2_common/pico_float/float_aeabi.S.obj
 .text.__wrap_atan2f
                0x00000000       0x14 CMakeFiles/ex1_create_task.dir/D_/pico/pico-sdk/src/rp2_common/pico_float/float_aeabi.S.obj
 .text.__wrap_expf
                0x00000000       0x10 CMakeFiles/ex1_create_task.dir/D_/pico/pico-sdk/src/rp2_common/pico_float/float_aeabi.S.obj
 .text.__wrap_logf
                0x00000000       0x10 CMakeFiles/ex1_create_task.dir/D_/pico/pico-sdk/src/rp2_common/pico_float/float_aeabi.S.obj
 .text          0x00000000        0x0 CMakeFiles/ex1_create_task.dir/D_/pico/pico-sdk/src/rp2_common/pico_float/float_init_rom.c.obj
 .data          0x00000000        0x0 CMakeFiles/ex1_create_task.dir/D_/pico/pico-sdk/src/rp2_common/pico_float/float_init_rom.c.obj
 .bss           0x00000000        0x0 CMakeFiles/ex1_create_task.dir/D_/pico/pico-sdk/src/rp2_common/pico_float/float_init_rom.c.obj
 .bss.sf_clz_func
                0x00000000        0x4 CMakeFiles/ex1_create_task.dir/D_/pico/pico-sdk/src/rp2_common/pico_float/float_init_rom.c.obj
 .text          0x00000000        0x0 CMakeFiles/ex1_create_task.dir/D_/pico/pico-sdk/src/rp2_common/pico_float/float_math.c.obj
 .data          0x00000000        0x0 CMakeFiles/ex1_create_task.dir/D_/pico/pico-sdk/src/rp2_common/pico_float/float_math.c.obj
 .bss           0x00000000        0x0 CMakeFiles/ex1_create_task.dir/D_/pico/pico-sdk/src/rp2_common/pico_float/float_math.c.obj
 .text.fpow_int2
                0x00000000       0x26 CMakeFiles/ex1_create_task.dir/D_/pico/pico-sdk/src/rp2_common/pico_float/float_math.c.obj
 .text.frem_0   0x00000000       0x80 CMakeFiles/ex1_create_task.dir/D_/pico/pico-sdk/src/rp2_common/pico_float/float_math.c.obj
 .text.fpow_0   0x00000000      0x140 CMakeFiles/ex1_create_task.dir/D_/pico/pico-sdk/src/rp2_common/pico_float/float_math.c.obj
 .text.fpowint_0
                0x00000000      0x12c CMakeFiles/ex1_create_task.dir/D_/pico/pico-sdk/src/rp2_common/pico_float/float_math.c.obj
 .text.__wrap_ldexpf
                0x00000000       0x34 CMakeFiles/ex1_create_task.dir/D_/pico/pico-sdk/src/rp2_common/pico_float/float_math.c.obj
 .text.__wrap_copysignf
                0x00000000        0xc CMakeFiles/ex1_create_task.dir/D_/pico/pico-sdk/src/rp2_common/pico_float/float_math.c.obj
 .text.__wrap_truncf
                0x00000000       0x22 CMakeFiles/ex1_create_task.dir/D_/pico/pico-sdk/src/rp2_common/pico_float/float_math.c.obj
 .text.__wrap_roundf
                0x00000000       0x3e CMakeFiles/ex1_create_task.dir/D_/pico/pico-sdk/src/rp2_common/pico_float/float_math.c.obj
 .text.__wrap_floorf
                0x00000000       0x44 CMakeFiles/ex1_create_task.dir/D_/pico/pico-sdk/src/rp2_common/pico_float/float_math.c.obj
 .text.__wrap_ceilf
                0x00000000       0x44 CMakeFiles/ex1_create_task.dir/D_/pico/pico-sdk/src/rp2_common/pico_float/float_math.c.obj
 .text.__wrap_asinf
                0x00000000       0x42 CMakeFiles/ex1_create_task.dir/D_/pico/pico-sdk/src/rp2_common/pico_float/float_math.c.obj
 .text.__wrap_acosf
                0x00000000       0x40 CMakeFiles/ex1_create_task.dir/D_/pico/pico-sdk/src/rp2_common/pico_float/float_math.c.obj
 .text.__wrap_atanf
                0x00000000       0x2c CMakeFiles/ex1_create_task.dir/D_/pico/pico-sdk/src/rp2_common/pico_float/float_math.c.obj
 .text.__wrap_sinhf
                0x00000000       0x54 CMakeFiles/ex1_create_task.dir/D_/pico/pico-sdk/src/rp2_common/pico_float/float_math.c.obj
 .text.__wrap_coshf
                0x00000000       0x54 CMakeFiles/ex1_create_task.dir/D_/pico/pico-sdk/src/rp2_common/pico_float/float_math.c.obj
 .text.__wrap_tanhf
                0x00000000       0x6c CMakeFiles/ex1_create_task.dir/D_/pico/pico-sdk/src/rp2_common/pico_float/float_math.c.obj
 .text.__wrap_asinhf
                0x00000000       0xb8 CMakeFiles/ex1_create_task.dir/D_/pico/pico-sdk/src/rp2_common/pico_float/float_math.c.obj
 .text.__wrap_acoshf
                0x00000000       0x74 CMakeFiles/ex1_create_task.dir/D_/pico/pico-sdk/src/rp2_common/pico_float/float_math.c.obj
 .text.__wrap_atanhf
                0x00000000       0x5c CMakeFiles/ex1_create_task.dir/D_/pico/pico-sdk/src/rp2_common/pico_float/float_math.c.obj
 .text.__wrap_exp2f
                0x00000000       0x20 CMakeFiles/ex1_create_task.dir/D_/pico/pico-sdk/src/rp2_common/pico_float/float_math.c.obj
 .text.__wrap_log2f
                0x00000000       0x14 CMakeFiles/ex1_create_task.dir/D_/pico/pico-sdk/src/rp2_common/pico_float/float_math.c.obj
 .text.__wrap_exp10f
                0x00000000       0x20 CMakeFiles/ex1_create_task.dir/D_/pico/pico-sdk/src/rp2_common/pico_float/float_math.c.obj
 .text.__wrap_log10f
                0x00000000       0x14 CMakeFiles/ex1_create_task.dir/D_/pico/pico-sdk/src/rp2_common/pico_float/float_math.c.obj
 .text.__wrap_expm1f
                0x00000000       0x1c CMakeFiles/ex1_create_task.dir/D_/pico/pico-sdk/src/rp2_common/pico_float/float_math.c.obj
 .text.__wrap_log1pf
                0x00000000       0x1c CMakeFiles/ex1_create_task.dir/D_/pico/pico-sdk/src/rp2_common/pico_float/float_math.c.obj
 .text.__wrap_fmaf
                0x00000000       0x3c CMakeFiles/ex1_create_task.dir/D_/pico/pico-sdk/src/rp2_common/pico_float/float_math.c.obj
 .text.__wrap_powintf
                0x00000000       0xa0 CMakeFiles/ex1_create_task.dir/D_/pico/pico-sdk/src/rp2_common/pico_float/float_math.c.obj
 .text.__wrap_powf
                0x00000000      0x20c CMakeFiles/ex1_create_task.dir/D_/pico/pico-sdk/src/rp2_common/pico_float/float_math.c.obj
 .text.__wrap_hypotf
                0x00000000      0x18a CMakeFiles/ex1_create_task.dir/D_/pico/pico-sdk/src/rp2_common/pico_float/float_math.c.obj
 .text.__wrap_cbrtf
                0x00000000       0xc4 CMakeFiles/ex1_create_task.dir/D_/pico/pico-sdk/src/rp2_common/pico_float/float_math.c.obj
 .text.__wrap_fmodf
                0x00000000       0x62 CMakeFiles/ex1_create_task.dir/D_/pico/pico-sdk/src/rp2_common/pico_float/float_math.c.obj
 .text.__wrap_remquof
                0x00000000       0xda CMakeFiles/ex1_create_task.dir/D_/pico/pico-sdk/src/rp2_common/pico_float/float_math.c.obj
 .text.__wrap_dremf
                0x00000000        0xa CMakeFiles/ex1_create_task.dir/D_/pico/pico-sdk/src/rp2_common/pico_float/float_math.c.obj
 .text.__wrap_remainderf
                0x00000000        0xa CMakeFiles/ex1_create_task.dir/D_/pico/pico-sdk/src/rp2_common/pico_float/float_math.c.obj
 .debug_info    0x00000000     0x5033 CMakeFiles/ex1_create_task.dir/D_/pico/pico-sdk/src/rp2_common/pico_float/float_math.c.obj
 .debug_abbrev  0x00000000      0x2bb CMakeFiles/ex1_create_task.dir/D_/pico/pico-sdk/src/rp2_common/pico_float/float_math.c.obj
 .debug_loc     0x00000000     0x6167 CMakeFiles/ex1_create_task.dir/D_/pico/pico-sdk/src/rp2_common/pico_float/float_math.c.obj
 .debug_aranges
                0x00000000      0x128 CMakeFiles/ex1_create_task.dir/D_/pico/pico-sdk/src/rp2_common/pico_float/float_math.c.obj
 .debug_ranges  0x00000000      0x568 CMakeFiles/ex1_create_task.dir/D_/pico/pico-sdk/src/rp2_common/pico_float/float_math.c.obj
 .debug_line    0x00000000     0x2789 CMakeFiles/ex1_create_task.dir/D_/pico/pico-sdk/src/rp2_common/pico_float/float_math.c.obj
 .debug_str     0x00000000      0x525 CMakeFiles/ex1_create_task.dir/D_/pico/pico-sdk/src/rp2_common/pico_float/float_math.c.obj
 .comment       0x00000000       0x4a CMakeFiles/ex1_create_task.dir/D_/pico/pico-sdk/src/rp2_common/pico_float/float_math.c.obj
 .debug_frame   0x00000000      0x3a4 CMakeFiles/ex1_create_task.dir/D_/pico/pico-sdk/src/rp2_common/pico_float/float_math.c.obj
 .ARM.attributes
                0x00000000       0x2c CMakeFiles/ex1_create_task.dir/D_/pico/pico-sdk/src/rp2_common/pico_float/float_math.c.obj
 .text          0x00000000        0x0 CMakeFiles/ex1_create_task.dir/D_/pico/pico-sdk/src/rp2_common/pico_float/float_v1_rom_shim.S.obj
 .data          0x00000000        0x0 CMakeFiles/ex1_create_task.dir/D_/pico/pico-sdk/src/rp2_common/pico_float/float_v1_rom_shim.S.obj
 .bss           0x00000000        0x0 CMakeFiles/ex1_create_task.dir/D_/pico/pico-sdk/src/rp2_common/pico_float/float_v1_rom_shim.S.obj
 .text.642float_shims
                0x00000000       0x44 CMakeFiles/ex1_create_task.dir/D_/pico/pico-sdk/src/rp2_common/pico_float/float_v1_rom_shim.S.obj
 .text.fatan2_shim
                0x00000000       0x88 CMakeFiles/ex1_create_task.dir/D_/pico/pico-sdk/src/rp2_common/pico_float/float_v1_rom_shim.S.obj
 .text.float232_shims
                0x00000000       0x18 CMakeFiles/ex1_create_task.dir/D_/pico/pico-sdk/src/rp2_common/pico_float/float_v1_rom_shim.S.obj
 .text.float264_shims
                0x00000000       0x4c CMakeFiles/ex1_create_task.dir/D_/pico/pico-sdk/src/rp2_common/pico_float/float_v1_rom_shim.S.obj
 .text.d2fix_a_float
                0x00000000       0x5c CMakeFiles/ex1_create_task.dir/D_/pico/pico-sdk/src/rp2_common/pico_float/float_v1_rom_shim.S.obj
 .text.float2double_shim
                0x00000000       0x30 CMakeFiles/ex1_create_task.dir/D_/pico/pico-sdk/src/rp2_common/pico_float/float_v1_rom_shim.S.obj
 .text          0x00000000        0x0 CMakeFiles/ex1_create_task.dir/D_/pico/pico-sdk/src/rp2_common/pico_malloc/pico_malloc.c.obj
 .data          0x00000000        0x0 CMakeFiles/ex1_create_task.dir/D_/pico/pico-sdk/src/rp2_common/pico_malloc/pico_malloc.c.obj
 .bss           0x00000000        0x0 CMakeFiles/ex1_create_task.dir/D_/pico/pico-sdk/src/rp2_common/pico_malloc/pico_malloc.c.obj
 .rodata.__wrap_malloc.str1.4
                0x00000000        0xe CMakeFiles/ex1_create_task.dir/D_/pico/pico-sdk/src/rp2_common/pico_malloc/pico_malloc.c.obj
 .text.__wrap_malloc
                0x00000000       0x3c CMakeFiles/ex1_create_task.dir/D_/pico/pico-sdk/src/rp2_common/pico_malloc/pico_malloc.c.obj
 .text.__wrap_calloc
                0x00000000       0x40 CMakeFiles/ex1_create_task.dir/D_/pico/pico-sdk/src/rp2_common/pico_malloc/pico_malloc.c.obj
 .text.__wrap_realloc
                0x00000000       0x40 CMakeFiles/ex1_create_task.dir/D_/pico/pico-sdk/src/rp2_common/pico_malloc/pico_malloc.c.obj
 .text.__wrap_free
                0x00000000       0x20 CMakeFiles/ex1_create_task.dir/D_/pico/pico-sdk/src/rp2_common/pico_malloc/pico_malloc.c.obj
 .data          0x00000000        0x0 CMakeFiles/ex1_create_task.dir/D_/pico/pico-sdk/src/rp2_common/pico_mem_ops/mem_ops_aeabi.S.obj
 .bss           0x00000000        0x0 CMakeFiles/ex1_create_task.dir/D_/pico/pico-sdk/src/rp2_common/pico_mem_ops/mem_ops_aeabi.S.obj
 .text.aeabi_memset_memcpy
                0x00000000       0x24 CMakeFiles/ex1_create_task.dir/D_/pico/pico-sdk/src/rp2_common/pico_mem_ops/mem_ops_aeabi.S.obj
 .text          0x00000000        0x0 CMakeFiles/ex1_create_task.dir/D_/pico/pico-sdk/src/rp2_common/pico_standard_link/crt0.S.obj
 .data          0x00000000        0x0 CMakeFiles/ex1_create_task.dir/D_/pico/pico-sdk/src/rp2_common/pico_standard_link/crt0.S.obj
 .bss           0x00000000        0x0 CMakeFiles/ex1_create_task.dir/D_/pico/pico-sdk/src/rp2_common/pico_standard_link/crt0.S.obj
 .text          0x00000000        0x0 CMakeFiles/ex1_create_task.dir/D_/pico/pico-sdk/src/rp2_common/pico_standard_link/new_delete.cpp.obj
 .data          0x00000000        0x0 CMakeFiles/ex1_create_task.dir/D_/pico/pico-sdk/src/rp2_common/pico_standard_link/new_delete.cpp.obj
 .bss           0x00000000        0x0 CMakeFiles/ex1_create_task.dir/D_/pico/pico-sdk/src/rp2_common/pico_standard_link/new_delete.cpp.obj
 .text._Znwj    0x00000000        0x8 CMakeFiles/ex1_create_task.dir/D_/pico/pico-sdk/src/rp2_common/pico_standard_link/new_delete.cpp.obj
 .text._Znaj    0x00000000        0x8 CMakeFiles/ex1_create_task.dir/D_/pico/pico-sdk/src/rp2_common/pico_standard_link/new_delete.cpp.obj
 .text._ZdlPv   0x00000000        0x8 CMakeFiles/ex1_create_task.dir/D_/pico/pico-sdk/src/rp2_common/pico_standard_link/new_delete.cpp.obj
 .text._ZdaPv   0x00000000        0x8 CMakeFiles/ex1_create_task.dir/D_/pico/pico-sdk/src/rp2_common/pico_standard_link/new_delete.cpp.obj
 .text._ZdlPvj  0x00000000        0x8 CMakeFiles/ex1_create_task.dir/D_/pico/pico-sdk/src/rp2_common/pico_standard_link/new_delete.cpp.obj
 .text._ZdaPvj  0x00000000        0x8 CMakeFiles/ex1_create_task.dir/D_/pico/pico-sdk/src/rp2_common/pico_standard_link/new_delete.cpp.obj
 .debug_info    0x00000000      0x7a0 CMakeFiles/ex1_create_task.dir/D_/pico/pico-sdk/src/rp2_common/pico_standard_link/new_delete.cpp.obj
 .debug_abbrev  0x00000000      0x1eb CMakeFiles/ex1_create_task.dir/D_/pico/pico-sdk/src/rp2_common/pico_standard_link/new_delete.cpp.obj
 .debug_loc     0x00000000      0x128 CMakeFiles/ex1_create_task.dir/D_/pico/pico-sdk/src/rp2_common/pico_standard_link/new_delete.cpp.obj
 .debug_aranges
                0x00000000       0x48 CMakeFiles/ex1_create_task.dir/D_/pico/pico-sdk/src/rp2_common/pico_standard_link/new_delete.cpp.obj
 .debug_ranges  0x00000000       0x38 CMakeFiles/ex1_create_task.dir/D_/pico/pico-sdk/src/rp2_common/pico_standard_link/new_delete.cpp.obj
 .debug_line    0x00000000      0x25a CMakeFiles/ex1_create_task.dir/D_/pico/pico-sdk/src/rp2_common/pico_standard_link/new_delete.cpp.obj
 .debug_str     0x00000000      0x392 CMakeFiles/ex1_create_task.dir/D_/pico/pico-sdk/src/rp2_common/pico_standard_link/new_delete.cpp.obj
 .comment       0x00000000       0x4a CMakeFiles/ex1_create_task.dir/D_/pico/pico-sdk/src/rp2_common/pico_standard_link/new_delete.cpp.obj
 .debug_frame   0x00000000       0xa0 CMakeFiles/ex1_create_task.dir/D_/pico/pico-sdk/src/rp2_common/pico_standard_link/new_delete.cpp.obj
 .ARM.attributes
                0x00000000       0x2c CMakeFiles/ex1_create_task.dir/D_/pico/pico-sdk/src/rp2_common/pico_standard_link/new_delete.cpp.obj
 .text          0x00000000        0x0 CMakeFiles/ex1_create_task.dir/D_/pico/pico-sdk/src/rp2_common/pico_standard_link/binary_info.c.obj
 .data          0x00000000        0x0 CMakeFiles/ex1_create_task.dir/D_/pico/pico-sdk/src/rp2_common/pico_standard_link/binary_info.c.obj
 .bss           0x00000000        0x0 CMakeFiles/ex1_create_task.dir/D_/pico/pico-sdk/src/rp2_common/pico_standard_link/binary_info.c.obj
 .text          0x00000000        0x0 CMakeFiles/ex1_create_task.dir/D_/pico/pico-sdk/src/rp2_common/pico_stdio/stdio.c.obj
 .data          0x00000000        0x0 CMakeFiles/ex1_create_task.dir/D_/pico/pico-sdk/src/rp2_common/pico_stdio/stdio.c.obj
 .bss           0x00000000        0x0 CMakeFiles/ex1_create_task.dir/D_/pico/pico-sdk/src/rp2_common/pico_stdio/stdio.c.obj
 .text.stdio_get_until
                0x00000000       0x80 CMakeFiles/ex1_create_task.dir/D_/pico/pico-sdk/src/rp2_common/pico_stdio/stdio.c.obj
 .text.__wrap_putchar
                0x00000000       0x1c CMakeFiles/ex1_create_task.dir/D_/pico/pico-sdk/src/rp2_common/pico_stdio/stdio.c.obj
 .text.putchar_raw
                0x00000000       0x1c CMakeFiles/ex1_create_task.dir/D_/pico/pico-sdk/src/rp2_common/pico_stdio/stdio.c.obj
 .text._read    0x00000000       0x24 CMakeFiles/ex1_create_task.dir/D_/pico/pico-sdk/src/rp2_common/pico_stdio/stdio.c.obj
 .text._write   0x00000000       0x22 CMakeFiles/ex1_create_task.dir/D_/pico/pico-sdk/src/rp2_common/pico_stdio/stdio.c.obj
 .text.puts_raw
                0x00000000       0x1e CMakeFiles/ex1_create_task.dir/D_/pico/pico-sdk/src/rp2_common/pico_stdio/stdio.c.obj
 .rodata.__wrap_getchar.str1.4
                0x00000000       0x3f CMakeFiles/ex1_create_task.dir/D_/pico/pico-sdk/src/rp2_common/pico_stdio/stdio.c.obj
 .text.__wrap_getchar
                0x00000000       0x40 CMakeFiles/ex1_create_task.dir/D_/pico/pico-sdk/src/rp2_common/pico_stdio/stdio.c.obj
 .rodata.getchar_timeout_us.str1.4
                0x00000000       0x5b CMakeFiles/ex1_create_task.dir/D_/pico/pico-sdk/src/rp2_common/pico_stdio/stdio.c.obj
 .text.getchar_timeout_us
                0x00000000       0x80 CMakeFiles/ex1_create_task.dir/D_/pico/pico-sdk/src/rp2_common/pico_stdio/stdio.c.obj
 .text.stdio_filter_driver
                0x00000000        0xc CMakeFiles/ex1_create_task.dir/D_/pico/pico-sdk/src/rp2_common/pico_stdio/stdio.c.obj
 .text.stdio_set_translate_crlf
                0x00000000       0x10 CMakeFiles/ex1_create_task.dir/D_/pico/pico-sdk/src/rp2_common/pico_stdio/stdio.c.obj
 .rodata.__func__.0
                0x00000000       0x15 CMakeFiles/ex1_create_task.dir/D_/pico/pico-sdk/src/rp2_common/pico_stdio/stdio.c.obj
 .rodata.__func__.1
                0x00000000       0x13 CMakeFiles/ex1_create_task.dir/D_/pico/pico-sdk/src/rp2_common/pico_stdio/stdio.c.obj
 .rodata.__func__.2
                0x00000000        0xf CMakeFiles/ex1_create_task.dir/D_/pico/pico-sdk/src/rp2_common/pico_stdio/stdio.c.obj
 .text          0x00000000        0x0 CMakeFiles/ex1_create_task.dir/D_/pico/pico-sdk/src/rp2_common/pico_stdio_usb/reset_interface.c.obj
 .data          0x00000000        0x0 CMakeFiles/ex1_create_task.dir/D_/pico/pico-sdk/src/rp2_common/pico_stdio_usb/reset_interface.c.obj
 .bss           0x00000000        0x0 CMakeFiles/ex1_create_task.dir/D_/pico/pico-sdk/src/rp2_common/pico_stdio_usb/reset_interface.c.obj
 .text          0x00000000        0x0 CMakeFiles/ex1_create_task.dir/D_/pico/pico-sdk/src/rp2_common/pico_stdio_usb/stdio_usb.c.obj
 .data          0x00000000        0x0 CMakeFiles/ex1_create_task.dir/D_/pico/pico-sdk/src/rp2_common/pico_stdio_usb/stdio_usb.c.obj
 .bss           0x00000000        0x0 CMakeFiles/ex1_create_task.dir/D_/pico/pico-sdk/src/rp2_common/pico_stdio_usb/stdio_usb.c.obj
 .text.stdio_usb_connected
                0x00000000        0xa CMakeFiles/ex1_create_task.dir/D_/pico/pico-sdk/src/rp2_common/pico_stdio_usb/stdio_usb.c.obj
 .text          0x00000000        0x0 CMakeFiles/ex1_create_task.dir/D_/pico/pico-sdk/src/rp2_common/pico_stdio_usb/stdio_usb_descriptors.c.obj
 .data          0x00000000        0x0 CMakeFiles/ex1_create_task.dir/D_/pico/pico-sdk/src/rp2_common/pico_stdio_usb/stdio_usb_descriptors.c.obj
 .bss           0x00000000        0x0 CMakeFiles/ex1_create_task.dir/D_/pico/pico-sdk/src/rp2_common/pico_stdio_usb/stdio_usb_descriptors.c.obj
 .text          0x00000000        0x0 CMakeFiles/ex1_create_task.dir/D_/pico/pico-sdk/lib/tinyusb/src/portable/raspberrypi/rp2040/dcd_rp2040.c.obj
 .data          0x00000000        0x0 CMakeFiles/ex1_create_task.dir/D_/pico/pico-sdk/lib/tinyusb/src/portable/raspberrypi/rp2040/dcd_rp2040.c.obj
 .bss           0x00000000        0x0 CMakeFiles/ex1_create_task.dir/D_/pico/pico-sdk/lib/tinyusb/src/portable/raspberrypi/rp2040/dcd_rp2040.c.obj
 .text.dcd_int_disable
                0x00000000       0x2c CMakeFiles/ex1_create_task.dir/D_/pico/pico-sdk/lib/tinyusb/src/portable/raspberrypi/rp2040/dcd_rp2040.c.obj
 .text.dcd_remote_wakeup
                0x00000000       0x30 CMakeFiles/ex1_create_task.dir/D_/pico/pico-sdk/lib/tinyusb/src/portable/raspberrypi/rp2040/dcd_rp2040.c.obj
 .text.dcd_disconnect
                0x00000000       0x10 CMakeFiles/ex1_create_task.dir/D_/pico/pico-sdk/lib/tinyusb/src/portable/raspberrypi/rp2040/dcd_rp2040.c.obj
 .text.dcd_edpt_close
                0x00000000        0x2 CMakeFiles/ex1_create_task.dir/D_/pico/pico-sdk/lib/tinyusb/src/portable/raspberrypi/rp2040/dcd_rp2040.c.obj
 .text.dcd_int_handler
                0x00000000        0x8 CMakeFiles/ex1_create_task.dir/D_/pico/pico-sdk/lib/tinyusb/src/portable/raspberrypi/rp2040/dcd_rp2040.c.obj
 .rodata.__func__.2
                0x00000000       0x12 CMakeFiles/ex1_create_task.dir/D_/pico/pico-sdk/lib/tinyusb/src/portable/raspberrypi/rp2040/dcd_rp2040.c.obj
 .rodata.__func__.4
                0x00000000       0x10 CMakeFiles/ex1_create_task.dir/D_/pico/pico-sdk/lib/tinyusb/src/portable/raspberrypi/rp2040/dcd_rp2040.c.obj
 .text          0x00000000        0x0 CMakeFiles/ex1_create_task.dir/D_/pico/pico-sdk/lib/tinyusb/src/portable/raspberrypi/rp2040/rp2040_usb.c.obj
 .data          0x00000000        0x0 CMakeFiles/ex1_create_task.dir/D_/pico/pico-sdk/lib/tinyusb/src/portable/raspberrypi/rp2040/rp2040_usb.c.obj
 .bss           0x00000000        0x0 CMakeFiles/ex1_create_task.dir/D_/pico/pico-sdk/lib/tinyusb/src/portable/raspberrypi/rp2040/rp2040_usb.c.obj
 .text          0x00000000        0x0 CMakeFiles/ex1_create_task.dir/D_/pico/pico-sdk/lib/tinyusb/src/device/usbd.c.obj
 .data          0x00000000        0x0 CMakeFiles/ex1_create_task.dir/D_/pico/pico-sdk/lib/tinyusb/src/device/usbd.c.obj
 .bss           0x00000000        0x0 CMakeFiles/ex1_create_task.dir/D_/pico/pico-sdk/lib/tinyusb/src/device/usbd.c.obj
 .text.tud_speed_get
                0x00000000        0xc CMakeFiles/ex1_create_task.dir/D_/pico/pico-sdk/lib/tinyusb/src/device/usbd.c.obj
 .text.tud_connected
                0x00000000       0x10 CMakeFiles/ex1_create_task.dir/D_/pico/pico-sdk/lib/tinyusb/src/device/usbd.c.obj
 .text.tud_remote_wakeup
                0x00000000       0x2c CMakeFiles/ex1_create_task.dir/D_/pico/pico-sdk/lib/tinyusb/src/device/usbd.c.obj
 .text.tud_disconnect
                0x00000000       0x1c CMakeFiles/ex1_create_task.dir/D_/pico/pico-sdk/lib/tinyusb/src/device/usbd.c.obj
 .text.tud_connect
                0x00000000       0x1c CMakeFiles/ex1_create_task.dir/D_/pico/pico-sdk/lib/tinyusb/src/device/usbd.c.obj
 .text.tud_task_event_ready
                0x00000000       0x20 CMakeFiles/ex1_create_task.dir/D_/pico/pico-sdk/lib/tinyusb/src/device/usbd.c.obj
 .text.usbd_defer_func
                0x00000000       0x2a CMakeFiles/ex1_create_task.dir/D_/pico/pico-sdk/lib/tinyusb/src/device/usbd.c.obj
 .text.usbd_edpt_xfer_fifo
                0x00000000       0x80 CMakeFiles/ex1_create_task.dir/D_/pico/pico-sdk/lib/tinyusb/src/device/usbd.c.obj
 .text.usbd_edpt_busy
                0x00000000       0x1c CMakeFiles/ex1_create_task.dir/D_/pico/pico-sdk/lib/tinyusb/src/device/usbd.c.obj
 .text.usbd_edpt_close
                0x00000000       0x58 CMakeFiles/ex1_create_task.dir/D_/pico/pico-sdk/lib/tinyusb/src/device/usbd.c.obj
 .rodata.__func__.0
                0x00000000       0x10 CMakeFiles/ex1_create_task.dir/D_/pico/pico-sdk/lib/tinyusb/src/device/usbd.c.obj
 .rodata.__func__.1
                0x00000000       0x14 CMakeFiles/ex1_create_task.dir/D_/pico/pico-sdk/lib/tinyusb/src/device/usbd.c.obj
 .text          0x00000000        0x0 CMakeFiles/ex1_create_task.dir/D_/pico/pico-sdk/lib/tinyusb/src/device/usbd_control.c.obj
 .data          0x00000000        0x0 CMakeFiles/ex1_create_task.dir/D_/pico/pico-sdk/lib/tinyusb/src/device/usbd_control.c.obj
 .bss           0x00000000        0x0 CMakeFiles/ex1_create_task.dir/D_/pico/pico-sdk/lib/tinyusb/src/device/usbd_control.c.obj
 .text          0x00000000        0x0 CMakeFiles/ex1_create_task.dir/D_/pico/pico-sdk/lib/tinyusb/src/class/audio/audio_device.c.obj
 .data          0x00000000        0x0 CMakeFiles/ex1_create_task.dir/D_/pico/pico-sdk/lib/tinyusb/src/class/audio/audio_device.c.obj
 .bss           0x00000000        0x0 CMakeFiles/ex1_create_task.dir/D_/pico/pico-sdk/lib/tinyusb/src/class/audio/audio_device.c.obj
 .debug_info    0x00000000       0x6b CMakeFiles/ex1_create_task.dir/D_/pico/pico-sdk/lib/tinyusb/src/class/audio/audio_device.c.obj
 .debug_abbrev  0x00000000       0x26 CMakeFiles/ex1_create_task.dir/D_/pico/pico-sdk/lib/tinyusb/src/class/audio/audio_device.c.obj
 .debug_aranges
                0x00000000       0x18 CMakeFiles/ex1_create_task.dir/D_/pico/pico-sdk/lib/tinyusb/src/class/audio/audio_device.c.obj
 .debug_line    0x00000000       0x1d CMakeFiles/ex1_create_task.dir/D_/pico/pico-sdk/lib/tinyusb/src/class/audio/audio_device.c.obj
 .debug_str     0x00000000      0x18d CMakeFiles/ex1_create_task.dir/D_/pico/pico-sdk/lib/tinyusb/src/class/audio/audio_device.c.obj
 .comment       0x00000000       0x4a CMakeFiles/ex1_create_task.dir/D_/pico/pico-sdk/lib/tinyusb/src/class/audio/audio_device.c.obj
 .ARM.attributes
                0x00000000       0x2c CMakeFiles/ex1_create_task.dir/D_/pico/pico-sdk/lib/tinyusb/src/class/audio/audio_device.c.obj
 .text          0x00000000        0x0 CMakeFiles/ex1_create_task.dir/D_/pico/pico-sdk/lib/tinyusb/src/class/cdc/cdc_device.c.obj
 .data          0x00000000        0x0 CMakeFiles/ex1_create_task.dir/D_/pico/pico-sdk/lib/tinyusb/src/class/cdc/cdc_device.c.obj
 .bss           0x00000000        0x0 CMakeFiles/ex1_create_task.dir/D_/pico/pico-sdk/lib/tinyusb/src/class/cdc/cdc_device.c.obj
 .text.tud_cdc_n_get_line_state
                0x00000000       0x14 CMakeFiles/ex1_create_task.dir/D_/pico/pico-sdk/lib/tinyusb/src/class/cdc/cdc_device.c.obj
 .text.tud_cdc_n_get_line_coding
                0x00000000       0x20 CMakeFiles/ex1_create_task.dir/D_/pico/pico-sdk/lib/tinyusb/src/class/cdc/cdc_device.c.obj
 .text.tud_cdc_n_set_wanted_char
                0x00000000       0x14 CMakeFiles/ex1_create_task.dir/D_/pico/pico-sdk/lib/tinyusb/src/class/cdc/cdc_device.c.obj
 .text.tud_cdc_n_peek
                0x00000000       0x18 CMakeFiles/ex1_create_task.dir/D_/pico/pico-sdk/lib/tinyusb/src/class/cdc/cdc_device.c.obj
 .text.tud_cdc_n_read_flush
                0x00000000       0x20 CMakeFiles/ex1_create_task.dir/D_/pico/pico-sdk/lib/tinyusb/src/class/cdc/cdc_device.c.obj
 .text.tud_cdc_n_write_clear
                0x00000000       0x1c CMakeFiles/ex1_create_task.dir/D_/pico/pico-sdk/lib/tinyusb/src/class/cdc/cdc_device.c.obj
 .text          0x00000000        0x0 CMakeFiles/ex1_create_task.dir/D_/pico/pico-sdk/lib/tinyusb/src/class/dfu/dfu_device.c.obj
 .data          0x00000000        0x0 CMakeFiles/ex1_create_task.dir/D_/pico/pico-sdk/lib/tinyusb/src/class/dfu/dfu_device.c.obj
 .bss           0x00000000        0x0 CMakeFiles/ex1_create_task.dir/D_/pico/pico-sdk/lib/tinyusb/src/class/dfu/dfu_device.c.obj
 .debug_info    0x00000000       0x6b CMakeFiles/ex1_create_task.dir/D_/pico/pico-sdk/lib/tinyusb/src/class/dfu/dfu_device.c.obj
 .debug_abbrev  0x00000000       0x26 CMakeFiles/ex1_create_task.dir/D_/pico/pico-sdk/lib/tinyusb/src/class/dfu/dfu_device.c.obj
 .debug_aranges
                0x00000000       0x18 CMakeFiles/ex1_create_task.dir/D_/pico/pico-sdk/lib/tinyusb/src/class/dfu/dfu_device.c.obj
 .debug_line    0x00000000       0x1d CMakeFiles/ex1_create_task.dir/D_/pico/pico-sdk/lib/tinyusb/src/class/dfu/dfu_device.c.obj
 .debug_str     0x00000000      0x189 CMakeFiles/ex1_create_task.dir/D_/pico/pico-sdk/lib/tinyusb/src/class/dfu/dfu_device.c.obj
 .comment       0x00000000       0x4a CMakeFiles/ex1_create_task.dir/D_/pico/pico-sdk/lib/tinyusb/src/class/dfu/dfu_device.c.obj
 .ARM.attributes
                0x00000000       0x2c CMakeFiles/ex1_create_task.dir/D_/pico/pico-sdk/lib/tinyusb/src/class/dfu/dfu_device.c.obj
 .text          0x00000000        0x0 CMakeFiles/ex1_create_task.dir/D_/pico/pico-sdk/lib/tinyusb/src/class/dfu/dfu_rt_device.c.obj
 .data          0x00000000        0x0 CMakeFiles/ex1_create_task.dir/D_/pico/pico-sdk/lib/tinyusb/src/class/dfu/dfu_rt_device.c.obj
 .bss           0x00000000        0x0 CMakeFiles/ex1_create_task.dir/D_/pico/pico-sdk/lib/tinyusb/src/class/dfu/dfu_rt_device.c.obj
 .debug_info    0x00000000       0x6b CMakeFiles/ex1_create_task.dir/D_/pico/pico-sdk/lib/tinyusb/src/class/dfu/dfu_rt_device.c.obj
 .debug_abbrev  0x00000000       0x26 CMakeFiles/ex1_create_task.dir/D_/pico/pico-sdk/lib/tinyusb/src/class/dfu/dfu_rt_device.c.obj
 .debug_aranges
                0x00000000       0x18 CMakeFiles/ex1_create_task.dir/D_/pico/pico-sdk/lib/tinyusb/src/class/dfu/dfu_rt_device.c.obj
 .debug_line    0x00000000       0x1d CMakeFiles/ex1_create_task.dir/D_/pico/pico-sdk/lib/tinyusb/src/class/dfu/dfu_rt_device.c.obj
 .debug_str     0x00000000      0x18c CMakeFiles/ex1_create_task.dir/D_/pico/pico-sdk/lib/tinyusb/src/class/dfu/dfu_rt_device.c.obj
 .comment       0x00000000       0x4a CMakeFiles/ex1_create_task.dir/D_/pico/pico-sdk/lib/tinyusb/src/class/dfu/dfu_rt_device.c.obj
 .ARM.attributes
                0x00000000       0x2c CMakeFiles/ex1_create_task.dir/D_/pico/pico-sdk/lib/tinyusb/src/class/dfu/dfu_rt_device.c.obj
 .text          0x00000000        0x0 CMakeFiles/ex1_create_task.dir/D_/pico/pico-sdk/lib/tinyusb/src/class/hid/hid_device.c.obj
 .data          0x00000000        0x0 CMakeFiles/ex1_create_task.dir/D_/pico/pico-sdk/lib/tinyusb/src/class/hid/hid_device.c.obj
 .bss           0x00000000        0x0 CMakeFiles/ex1_create_task.dir/D_/pico/pico-sdk/lib/tinyusb/src/class/hid/hid_device.c.obj
 .debug_info    0x00000000       0x6b CMakeFiles/ex1_create_task.dir/D_/pico/pico-sdk/lib/tinyusb/src/class/hid/hid_device.c.obj
 .debug_abbrev  0x00000000       0x26 CMakeFiles/ex1_create_task.dir/D_/pico/pico-sdk/lib/tinyusb/src/class/hid/hid_device.c.obj
 .debug_aranges
                0x00000000       0x18 CMakeFiles/ex1_create_task.dir/D_/pico/pico-sdk/lib/tinyusb/src/class/hid/hid_device.c.obj
 .debug_line    0x00000000       0x1d CMakeFiles/ex1_create_task.dir/D_/pico/pico-sdk/lib/tinyusb/src/class/hid/hid_device.c.obj
 .debug_str     0x00000000      0x189 CMakeFiles/ex1_create_task.dir/D_/pico/pico-sdk/lib/tinyusb/src/class/hid/hid_device.c.obj
 .comment       0x00000000       0x4a CMakeFiles/ex1_create_task.dir/D_/pico/pico-sdk/lib/tinyusb/src/class/hid/hid_device.c.obj
 .ARM.attributes
                0x00000000       0x2c CMakeFiles/ex1_create_task.dir/D_/pico/pico-sdk/lib/tinyusb/src/class/hid/hid_device.c.obj
 .text          0x00000000        0x0 CMakeFiles/ex1_create_task.dir/D_/pico/pico-sdk/lib/tinyusb/src/class/midi/midi_device.c.obj
 .data          0x00000000        0x0 CMakeFiles/ex1_create_task.dir/D_/pico/pico-sdk/lib/tinyusb/src/class/midi/midi_device.c.obj
 .bss           0x00000000        0x0 CMakeFiles/ex1_create_task.dir/D_/pico/pico-sdk/lib/tinyusb/src/class/midi/midi_device.c.obj
 .debug_info    0x00000000       0x6b CMakeFiles/ex1_create_task.dir/D_/pico/pico-sdk/lib/tinyusb/src/class/midi/midi_device.c.obj
 .debug_abbrev  0x00000000       0x26 CMakeFiles/ex1_create_task.dir/D_/pico/pico-sdk/lib/tinyusb/src/class/midi/midi_device.c.obj
 .debug_aranges
                0x00000000       0x18 CMakeFiles/ex1_create_task.dir/D_/pico/pico-sdk/lib/tinyusb/src/class/midi/midi_device.c.obj
 .debug_line    0x00000000       0x1d CMakeFiles/ex1_create_task.dir/D_/pico/pico-sdk/lib/tinyusb/src/class/midi/midi_device.c.obj
 .debug_str     0x00000000      0x18b CMakeFiles/ex1_create_task.dir/D_/pico/pico-sdk/lib/tinyusb/src/class/midi/midi_device.c.obj
 .comment       0x00000000       0x4a CMakeFiles/ex1_create_task.dir/D_/pico/pico-sdk/lib/tinyusb/src/class/midi/midi_device.c.obj
 .ARM.attributes
                0x00000000       0x2c CMakeFiles/ex1_create_task.dir/D_/pico/pico-sdk/lib/tinyusb/src/class/midi/midi_device.c.obj
 .text          0x00000000        0x0 CMakeFiles/ex1_create_task.dir/D_/pico/pico-sdk/lib/tinyusb/src/class/msc/msc_device.c.obj
 .data          0x00000000        0x0 CMakeFiles/ex1_create_task.dir/D_/pico/pico-sdk/lib/tinyusb/src/class/msc/msc_device.c.obj
 .bss           0x00000000        0x0 CMakeFiles/ex1_create_task.dir/D_/pico/pico-sdk/lib/tinyusb/src/class/msc/msc_device.c.obj
 .debug_info    0x00000000       0x6b CMakeFiles/ex1_create_task.dir/D_/pico/pico-sdk/lib/tinyusb/src/class/msc/msc_device.c.obj
 .debug_abbrev  0x00000000       0x26 CMakeFiles/ex1_create_task.dir/D_/pico/pico-sdk/lib/tinyusb/src/class/msc/msc_device.c.obj
 .debug_aranges
                0x00000000       0x18 CMakeFiles/ex1_create_task.dir/D_/pico/pico-sdk/lib/tinyusb/src/class/msc/msc_device.c.obj
 .debug_line    0x00000000       0x1d CMakeFiles/ex1_create_task.dir/D_/pico/pico-sdk/lib/tinyusb/src/class/msc/msc_device.c.obj
 .debug_str     0x00000000      0x189 CMakeFiles/ex1_create_task.dir/D_/pico/pico-sdk/lib/tinyusb/src/class/msc/msc_device.c.obj
 .comment       0x00000000       0x4a CMakeFiles/ex1_create_task.dir/D_/pico/pico-sdk/lib/tinyusb/src/class/msc/msc_device.c.obj
 .ARM.attributes
                0x00000000       0x2c CMakeFiles/ex1_create_task.dir/D_/pico/pico-sdk/lib/tinyusb/src/class/msc/msc_device.c.obj
 .text          0x00000000        0x0 CMakeFiles/ex1_create_task.dir/D_/pico/pico-sdk/lib/tinyusb/src/class/net/ecm_rndis_device.c.obj
 .data          0x00000000        0x0 CMakeFiles/ex1_create_task.dir/D_/pico/pico-sdk/lib/tinyusb/src/class/net/ecm_rndis_device.c.obj
 .bss           0x00000000        0x0 CMakeFiles/ex1_create_task.dir/D_/pico/pico-sdk/lib/tinyusb/src/class/net/ecm_rndis_device.c.obj
 .debug_info    0x00000000       0x6b CMakeFiles/ex1_create_task.dir/D_/pico/pico-sdk/lib/tinyusb/src/class/net/ecm_rndis_device.c.obj
 .debug_abbrev  0x00000000       0x26 CMakeFiles/ex1_create_task.dir/D_/pico/pico-sdk/lib/tinyusb/src/class/net/ecm_rndis_device.c.obj
 .debug_aranges
                0x00000000       0x18 CMakeFiles/ex1_create_task.dir/D_/pico/pico-sdk/lib/tinyusb/src/class/net/ecm_rndis_device.c.obj
 .debug_line    0x00000000       0x1d CMakeFiles/ex1_create_task.dir/D_/pico/pico-sdk/lib/tinyusb/src/class/net/ecm_rndis_device.c.obj
 .debug_str     0x00000000      0x18f CMakeFiles/ex1_create_task.dir/D_/pico/pico-sdk/lib/tinyusb/src/class/net/ecm_rndis_device.c.obj
 .comment       0x00000000       0x4a CMakeFiles/ex1_create_task.dir/D_/pico/pico-sdk/lib/tinyusb/src/class/net/ecm_rndis_device.c.obj
 .ARM.attributes
                0x00000000       0x2c CMakeFiles/ex1_create_task.dir/D_/pico/pico-sdk/lib/tinyusb/src/class/net/ecm_rndis_device.c.obj
 .text          0x00000000        0x0 CMakeFiles/ex1_create_task.dir/D_/pico/pico-sdk/lib/tinyusb/src/class/net/ncm_device.c.obj
 .data          0x00000000        0x0 CMakeFiles/ex1_create_task.dir/D_/pico/pico-sdk/lib/tinyusb/src/class/net/ncm_device.c.obj
 .bss           0x00000000        0x0 CMakeFiles/ex1_create_task.dir/D_/pico/pico-sdk/lib/tinyusb/src/class/net/ncm_device.c.obj
 .debug_info    0x00000000       0x6b CMakeFiles/ex1_create_task.dir/D_/pico/pico-sdk/lib/tinyusb/src/class/net/ncm_device.c.obj
 .debug_abbrev  0x00000000       0x26 CMakeFiles/ex1_create_task.dir/D_/pico/pico-sdk/lib/tinyusb/src/class/net/ncm_device.c.obj
 .debug_aranges
                0x00000000       0x18 CMakeFiles/ex1_create_task.dir/D_/pico/pico-sdk/lib/tinyusb/src/class/net/ncm_device.c.obj
 .debug_line    0x00000000       0x1d CMakeFiles/ex1_create_task.dir/D_/pico/pico-sdk/lib/tinyusb/src/class/net/ncm_device.c.obj
 .debug_str     0x00000000      0x189 CMakeFiles/ex1_create_task.dir/D_/pico/pico-sdk/lib/tinyusb/src/class/net/ncm_device.c.obj
 .comment       0x00000000       0x4a CMakeFiles/ex1_create_task.dir/D_/pico/pico-sdk/lib/tinyusb/src/class/net/ncm_device.c.obj
 .ARM.attributes
                0x00000000       0x2c CMakeFiles/ex1_create_task.dir/D_/pico/pico-sdk/lib/tinyusb/src/class/net/ncm_device.c.obj
 .text          0x00000000        0x0 CMakeFiles/ex1_create_task.dir/D_/pico/pico-sdk/lib/tinyusb/src/class/usbtmc/usbtmc_device.c.obj
 .data          0x00000000        0x0 CMakeFiles/ex1_create_task.dir/D_/pico/pico-sdk/lib/tinyusb/src/class/usbtmc/usbtmc_device.c.obj
 .bss           0x00000000        0x0 CMakeFiles/ex1_create_task.dir/D_/pico/pico-sdk/lib/tinyusb/src/class/usbtmc/usbtmc_device.c.obj
 .debug_info    0x00000000       0x6b CMakeFiles/ex1_create_task.dir/D_/pico/pico-sdk/lib/tinyusb/src/class/usbtmc/usbtmc_device.c.obj
 .debug_abbrev  0x00000000       0x26 CMakeFiles/ex1_create_task.dir/D_/pico/pico-sdk/lib/tinyusb/src/class/usbtmc/usbtmc_device.c.obj
 .debug_aranges
                0x00000000       0x18 CMakeFiles/ex1_create_task.dir/D_/pico/pico-sdk/lib/tinyusb/src/class/usbtmc/usbtmc_device.c.obj
 .debug_line    0x00000000       0x1d CMakeFiles/ex1_create_task.dir/D_/pico/pico-sdk/lib/tinyusb/src/class/usbtmc/usbtmc_device.c.obj
 .debug_str     0x00000000      0x18f CMakeFiles/ex1_create_task.dir/D_/pico/pico-sdk/lib/tinyusb/src/class/usbtmc/usbtmc_device.c.obj
 .comment       0x00000000       0x4a CMakeFiles/ex1_create_task.dir/D_/pico/pico-sdk/lib/tinyusb/src/class/usbtmc/usbtmc_device.c.obj
 .ARM.attributes
                0x00000000       0x2c CMakeFiles/ex1_create_task.dir/D_/pico/pico-sdk/lib/tinyusb/src/class/usbtmc/usbtmc_device.c.obj
 .text          0x00000000        0x0 CMakeFiles/ex1_create_task.dir/D_/pico/pico-sdk/lib/tinyusb/src/class/vendor/vendor_device.c.obj
 .data          0x00000000        0x0 CMakeFiles/ex1_create_task.dir/D_/pico/pico-sdk/lib/tinyusb/src/class/vendor/vendor_device.c.obj
 .bss           0x00000000        0x0 CMakeFiles/ex1_create_task.dir/D_/pico/pico-sdk/lib/tinyusb/src/class/vendor/vendor_device.c.obj
 .debug_info    0x00000000       0x6b CMakeFiles/ex1_create_task.dir/D_/pico/pico-sdk/lib/tinyusb/src/class/vendor/vendor_device.c.obj
 .debug_abbrev  0x00000000       0x26 CMakeFiles/ex1_create_task.dir/D_/pico/pico-sdk/lib/tinyusb/src/class/vendor/vendor_device.c.obj
 .debug_aranges
                0x00000000       0x18 CMakeFiles/ex1_create_task.dir/D_/pico/pico-sdk/lib/tinyusb/src/class/vendor/vendor_device.c.obj
 .debug_line    0x00000000       0x1d CMakeFiles/ex1_create_task.dir/D_/pico/pico-sdk/lib/tinyusb/src/class/vendor/vendor_device.c.obj
 .debug_str     0x00000000      0x18f CMakeFiles/ex1_create_task.dir/D_/pico/pico-sdk/lib/tinyusb/src/class/vendor/vendor_device.c.obj
 .comment       0x00000000       0x4a CMakeFiles/ex1_create_task.dir/D_/pico/pico-sdk/lib/tinyusb/src/class/vendor/vendor_device.c.obj
 .ARM.attributes
                0x00000000       0x2c CMakeFiles/ex1_create_task.dir/D_/pico/pico-sdk/lib/tinyusb/src/class/vendor/vendor_device.c.obj
 .text          0x00000000        0x0 CMakeFiles/ex1_create_task.dir/D_/pico/pico-sdk/lib/tinyusb/src/class/video/video_device.c.obj
 .data          0x00000000        0x0 CMakeFiles/ex1_create_task.dir/D_/pico/pico-sdk/lib/tinyusb/src/class/video/video_device.c.obj
 .bss           0x00000000        0x0 CMakeFiles/ex1_create_task.dir/D_/pico/pico-sdk/lib/tinyusb/src/class/video/video_device.c.obj
 .debug_info    0x00000000       0x6b CMakeFiles/ex1_create_task.dir/D_/pico/pico-sdk/lib/tinyusb/src/class/video/video_device.c.obj
 .debug_abbrev  0x00000000       0x26 CMakeFiles/ex1_create_task.dir/D_/pico/pico-sdk/lib/tinyusb/src/class/video/video_device.c.obj
 .debug_aranges
                0x00000000       0x18 CMakeFiles/ex1_create_task.dir/D_/pico/pico-sdk/lib/tinyusb/src/class/video/video_device.c.obj
 .debug_line    0x00000000       0x1d CMakeFiles/ex1_create_task.dir/D_/pico/pico-sdk/lib/tinyusb/src/class/video/video_device.c.obj
 .debug_str     0x00000000      0x18d CMakeFiles/ex1_create_task.dir/D_/pico/pico-sdk/lib/tinyusb/src/class/video/video_device.c.obj
 .comment       0x00000000       0x4a CMakeFiles/ex1_create_task.dir/D_/pico/pico-sdk/lib/tinyusb/src/class/video/video_device.c.obj
 .ARM.attributes
                0x00000000       0x2c CMakeFiles/ex1_create_task.dir/D_/pico/pico-sdk/lib/tinyusb/src/class/video/video_device.c.obj
 .text          0x00000000        0x0 CMakeFiles/ex1_create_task.dir/D_/pico/pico-sdk/lib/tinyusb/src/tusb.c.obj
 .data          0x00000000        0x0 CMakeFiles/ex1_create_task.dir/D_/pico/pico-sdk/lib/tinyusb/src/tusb.c.obj
 .bss           0x00000000        0x0 CMakeFiles/ex1_create_task.dir/D_/pico/pico-sdk/lib/tinyusb/src/tusb.c.obj
 .rodata.dump_str_line.str1.4
                0x00000000        0x7 CMakeFiles/ex1_create_task.dir/D_/pico/pico-sdk/lib/tinyusb/src/tusb.c.obj
 .text.dump_str_line
                0x00000000       0x40 CMakeFiles/ex1_create_task.dir/D_/pico/pico-sdk/lib/tinyusb/src/tusb.c.obj
 .text.tu_desc_get_interface_total_len
                0x00000000       0x3e CMakeFiles/ex1_create_task.dir/D_/pico/pico-sdk/lib/tinyusb/src/tusb.c.obj
 .rodata.tu_print_mem.str1.4
                0x00000000       0x15 CMakeFiles/ex1_create_task.dir/D_/pico/pico-sdk/lib/tinyusb/src/tusb.c.obj
 .text.tu_print_mem
                0x00000000       0xe0 CMakeFiles/ex1_create_task.dir/D_/pico/pico-sdk/lib/tinyusb/src/tusb.c.obj
 .rodata.str1.4
                0x00000000      0x132 CMakeFiles/ex1_create_task.dir/D_/pico/pico-sdk/lib/tinyusb/src/tusb.c.obj
 .rodata.tusb_strerr
                0x00000000       0x2c CMakeFiles/ex1_create_task.dir/D_/pico/pico-sdk/lib/tinyusb/src/tusb.c.obj
 .text          0x00000000        0x0 CMakeFiles/ex1_create_task.dir/D_/pico/pico-sdk/lib/tinyusb/src/common/tusb_fifo.c.obj
 .data          0x00000000        0x0 CMakeFiles/ex1_create_task.dir/D_/pico/pico-sdk/lib/tinyusb/src/common/tusb_fifo.c.obj
 .bss           0x00000000        0x0 CMakeFiles/ex1_create_task.dir/D_/pico/pico-sdk/lib/tinyusb/src/common/tusb_fifo.c.obj
 .text.tu_fifo_full
                0x00000000       0x24 CMakeFiles/ex1_create_task.dir/D_/pico/pico-sdk/lib/tinyusb/src/common/tusb_fifo.c.obj
 .text.tu_fifo_overflowed
                0x00000000       0x22 CMakeFiles/ex1_create_task.dir/D_/pico/pico-sdk/lib/tinyusb/src/common/tusb_fifo.c.obj
 .text.tu_fifo_correct_read_pointer
                0x00000000       0x2c CMakeFiles/ex1_create_task.dir/D_/pico/pico-sdk/lib/tinyusb/src/common/tusb_fifo.c.obj
 .text.tu_fifo_read_n_const_addr_full_words
                0x00000000        0xa CMakeFiles/ex1_create_task.dir/D_/pico/pico-sdk/lib/tinyusb/src/common/tusb_fifo.c.obj
 .text.tu_fifo_peek
                0x00000000       0x34 CMakeFiles/ex1_create_task.dir/D_/pico/pico-sdk/lib/tinyusb/src/common/tusb_fifo.c.obj
 .text.tu_fifo_peek_n
                0x00000000       0x44 CMakeFiles/ex1_create_task.dir/D_/pico/pico-sdk/lib/tinyusb/src/common/tusb_fifo.c.obj
 .text.tu_fifo_write_n_const_addr_full_words
                0x00000000        0xa CMakeFiles/ex1_create_task.dir/D_/pico/pico-sdk/lib/tinyusb/src/common/tusb_fifo.c.obj
 .text.tu_fifo_advance_write_pointer
                0x00000000       0x12 CMakeFiles/ex1_create_task.dir/D_/pico/pico-sdk/lib/tinyusb/src/common/tusb_fifo.c.obj
 .text.tu_fifo_advance_read_pointer
                0x00000000       0x12 CMakeFiles/ex1_create_task.dir/D_/pico/pico-sdk/lib/tinyusb/src/common/tusb_fifo.c.obj
 .text.tu_fifo_get_read_info
                0x00000000       0x9e CMakeFiles/ex1_create_task.dir/D_/pico/pico-sdk/lib/tinyusb/src/common/tusb_fifo.c.obj
 .text.tu_fifo_get_write_info
                0x00000000       0x7a CMakeFiles/ex1_create_task.dir/D_/pico/pico-sdk/lib/tinyusb/src/common/tusb_fifo.c.obj
 .text          0x00000000        0x0 CMakeFiles/ex1_create_task.dir/D_/pico/pico-sdk/src/rp2_common/pico_fix/rp2040_usb_device_enumeration/rp2040_usb_device_enumeration.c.obj
 .data          0x00000000        0x0 CMakeFiles/ex1_create_task.dir/D_/pico/pico-sdk/src/rp2_common/pico_fix/rp2040_usb_device_enumeration/rp2040_usb_device_enumeration.c.obj
 .bss           0x00000000        0x0 CMakeFiles/ex1_create_task.dir/D_/pico/pico-sdk/src/rp2_common/pico_fix/rp2040_usb_device_enumeration/rp2040_usb_device_enumeration.c.obj
 .text.hw_enumeration_fix_finish
                0x00000000       0x40 CMakeFiles/ex1_create_task.dir/D_/pico/pico-sdk/src/rp2_common/pico_fix/rp2040_usb_device_enumeration/rp2040_usb_device_enumeration.c.obj
 .text.hw_enumeration_fix_force_ls_j_done
                0x00000000        0xc CMakeFiles/ex1_create_task.dir/D_/pico/pico-sdk/src/rp2_common/pico_fix/rp2040_usb_device_enumeration/rp2040_usb_device_enumeration.c.obj
 .rodata.hw_enumeration_fix_force_ls_j.str1.4
                0x00000000       0xf3 CMakeFiles/ex1_create_task.dir/D_/pico/pico-sdk/src/rp2_common/pico_fix/rp2040_usb_device_enumeration/rp2040_usb_device_enumeration.c.obj
 .text.hw_enumeration_fix_force_ls_j
                0x00000000      0x130 CMakeFiles/ex1_create_task.dir/D_/pico/pico-sdk/src/rp2_common/pico_fix/rp2040_usb_device_enumeration/rp2040_usb_device_enumeration.c.obj
 .text.hw_enumeration_fix_wait_se0
                0x00000000       0x8c CMakeFiles/ex1_create_task.dir/D_/pico/pico-sdk/src/rp2_common/pico_fix/rp2040_usb_device_enumeration/rp2040_usb_device_enumeration.c.obj
 .text.hw_enumeration_fix_wait_se0_callback
                0x00000000       0x24 CMakeFiles/ex1_create_task.dir/D_/pico/pico-sdk/src/rp2_common/pico_fix/rp2040_usb_device_enumeration/rp2040_usb_device_enumeration.c.obj
 .text.rp2040_usb_device_enumeration_fix
                0x00000000       0x12 CMakeFiles/ex1_create_task.dir/D_/pico/pico-sdk/src/rp2_common/pico_fix/rp2040_usb_device_enumeration/rp2040_usb_device_enumeration.c.obj
 .bss.gpio_ctrl_prev
                0x00000000        0x4 CMakeFiles/ex1_create_task.dir/D_/pico/pico-sdk/src/rp2_common/pico_fix/rp2040_usb_device_enumeration/rp2040_usb_device_enumeration.c.obj
 .bss.pad_ctrl_prev
                0x00000000        0x4 CMakeFiles/ex1_create_task.dir/D_/pico/pico-sdk/src/rp2_common/pico_fix/rp2040_usb_device_enumeration/rp2040_usb_device_enumeration.c.obj
 .rodata.__func__.0
                0x00000000       0x1e CMakeFiles/ex1_create_task.dir/D_/pico/pico-sdk/src/rp2_common/pico_fix/rp2040_usb_device_enumeration/rp2040_usb_device_enumeration.c.obj
 .rodata.__func__.1
                0x00000000       0x15 CMakeFiles/ex1_create_task.dir/D_/pico/pico-sdk/src/rp2_common/pico_fix/rp2040_usb_device_enumeration/rp2040_usb_device_enumeration.c.obj
 .debug_info    0x00000000      0xe4c CMakeFiles/ex1_create_task.dir/D_/pico/pico-sdk/src/rp2_common/pico_fix/rp2040_usb_device_enumeration/rp2040_usb_device_enumeration.c.obj
 .debug_abbrev  0x00000000      0x3ca CMakeFiles/ex1_create_task.dir/D_/pico/pico-sdk/src/rp2_common/pico_fix/rp2040_usb_device_enumeration/rp2040_usb_device_enumeration.c.obj
 .debug_loc     0x00000000      0x519 CMakeFiles/ex1_create_task.dir/D_/pico/pico-sdk/src/rp2_common/pico_fix/rp2040_usb_device_enumeration/rp2040_usb_device_enumeration.c.obj
 .debug_aranges
                0x00000000       0x48 CMakeFiles/ex1_create_task.dir/D_/pico/pico-sdk/src/rp2_common/pico_fix/rp2040_usb_device_enumeration/rp2040_usb_device_enumeration.c.obj
 .debug_ranges  0x00000000      0x158 CMakeFiles/ex1_create_task.dir/D_/pico/pico-sdk/src/rp2_common/pico_fix/rp2040_usb_device_enumeration/rp2040_usb_device_enumeration.c.obj
 .debug_line    0x00000000      0x638 CMakeFiles/ex1_create_task.dir/D_/pico/pico-sdk/src/rp2_common/pico_fix/rp2040_usb_device_enumeration/rp2040_usb_device_enumeration.c.obj
 .debug_str     0x00000000      0x763 CMakeFiles/ex1_create_task.dir/D_/pico/pico-sdk/src/rp2_common/pico_fix/rp2040_usb_device_enumeration/rp2040_usb_device_enumeration.c.obj
 .comment       0x00000000       0x4a CMakeFiles/ex1_create_task.dir/D_/pico/pico-sdk/src/rp2_common/pico_fix/rp2040_usb_device_enumeration/rp2040_usb_device_enumeration.c.obj
 .debug_frame   0x00000000       0xa8 CMakeFiles/ex1_create_task.dir/D_/pico/pico-sdk/src/rp2_common/pico_fix/rp2040_usb_device_enumeration/rp2040_usb_device_enumeration.c.obj
 .ARM.attributes
                0x00000000       0x2c CMakeFiles/ex1_create_task.dir/D_/pico/pico-sdk/src/rp2_common/pico_fix/rp2040_usb_device_enumeration/rp2040_usb_device_enumeration.c.obj
 .text          0x00000000        0x0 CMakeFiles/ex1_create_task.dir/D_/pico/pico-sdk/src/rp2_common/pico_unique_id/unique_id.c.obj
 .data          0x00000000        0x0 CMakeFiles/ex1_create_task.dir/D_/pico/pico-sdk/src/rp2_common/pico_unique_id/unique_id.c.obj
 .bss           0x00000000        0x0 CMakeFiles/ex1_create_task.dir/D_/pico/pico-sdk/src/rp2_common/pico_unique_id/unique_id.c.obj
 .text.pico_get_unique_board_id
                0x00000000       0x10 CMakeFiles/ex1_create_task.dir/D_/pico/pico-sdk/src/rp2_common/pico_unique_id/unique_id.c.obj
 .text          0x00000000        0x0 CMakeFiles/ex1_create_task.dir/D_/pico/pico-sdk/src/rp2_common/hardware_flash/flash.c.obj
 .data          0x00000000        0x0 CMakeFiles/ex1_create_task.dir/D_/pico/pico-sdk/src/rp2_common/hardware_flash/flash.c.obj
 .bss           0x00000000        0x0 CMakeFiles/ex1_create_task.dir/D_/pico/pico-sdk/src/rp2_common/hardware_flash/flash.c.obj
 .time_critical.flash_range_erase
                0x00000000       0xb8 CMakeFiles/ex1_create_task.dir/D_/pico/pico-sdk/src/rp2_common/hardware_flash/flash.c.obj
 .time_critical.flash_range_program
                0x00000000       0xb8 CMakeFiles/ex1_create_task.dir/D_/pico/pico-sdk/src/rp2_common/hardware_flash/flash.c.obj
 .rodata.__func__.1
                0x00000000       0x14 CMakeFiles/ex1_create_task.dir/D_/pico/pico-sdk/src/rp2_common/hardware_flash/flash.c.obj
 .rodata.__func__.2
                0x00000000       0x12 CMakeFiles/ex1_create_task.dir/D_/pico/pico-sdk/src/rp2_common/hardware_flash/flash.c.obj
 .text          0x00000000        0x0 CMakeFiles/ex1_create_task.dir/D_/pico/pico-FreeRTOS/Source/portable/ThirdParty/GCC/RP2040/port.c.obj
 .data          0x00000000        0x0 CMakeFiles/ex1_create_task.dir/D_/pico/pico-FreeRTOS/Source/portable/ThirdParty/GCC/RP2040/port.c.obj
 .bss           0x00000000        0x0 CMakeFiles/ex1_create_task.dir/D_/pico/pico-FreeRTOS/Source/portable/ThirdParty/GCC/RP2040/port.c.obj
 .text.vPortEndScheduler
                0x00000000        0x6 CMakeFiles/ex1_create_task.dir/D_/pico/pico-FreeRTOS/Source/portable/ThirdParty/GCC/RP2040/port.c.obj
 .text.xPortSyncInternalYieldUntilBefore
                0x00000000       0x12 CMakeFiles/ex1_create_task.dir/D_/pico/pico-FreeRTOS/Source/portable/ThirdParty/GCC/RP2040/port.c.obj
 .text          0x00000000        0x0 CMakeFiles/ex1_create_task.dir/D_/pico/pico-FreeRTOS/Source/croutine.c.obj
 .data          0x00000000        0x0 CMakeFiles/ex1_create_task.dir/D_/pico/pico-FreeRTOS/Source/croutine.c.obj
 .bss           0x00000000        0x0 CMakeFiles/ex1_create_task.dir/D_/pico/pico-FreeRTOS/Source/croutine.c.obj
 .debug_info    0x00000000       0x72 CMakeFiles/ex1_create_task.dir/D_/pico/pico-FreeRTOS/Source/croutine.c.obj
 .debug_abbrev  0x00000000       0x26 CMakeFiles/ex1_create_task.dir/D_/pico/pico-FreeRTOS/Source/croutine.c.obj
 .debug_aranges
                0x00000000       0x18 CMakeFiles/ex1_create_task.dir/D_/pico/pico-FreeRTOS/Source/croutine.c.obj
 .debug_line    0x00000000       0x1d CMakeFiles/ex1_create_task.dir/D_/pico/pico-FreeRTOS/Source/croutine.c.obj
 .debug_str     0x00000000      0x17e CMakeFiles/ex1_create_task.dir/D_/pico/pico-FreeRTOS/Source/croutine.c.obj
 .comment       0x00000000       0x4a CMakeFiles/ex1_create_task.dir/D_/pico/pico-FreeRTOS/Source/croutine.c.obj
 .ARM.attributes
                0x00000000       0x2c CMakeFiles/ex1_create_task.dir/D_/pico/pico-FreeRTOS/Source/croutine.c.obj
 .text          0x00000000        0x0 CMakeFiles/ex1_create_task.dir/D_/pico/pico-FreeRTOS/Source/event_groups.c.obj
 .data          0x00000000        0x0 CMakeFiles/ex1_create_task.dir/D_/pico/pico-FreeRTOS/Source/event_groups.c.obj
 .bss           0x00000000        0x0 CMakeFiles/ex1_create_task.dir/D_/pico/pico-FreeRTOS/Source/event_groups.c.obj
 .rodata.xEventGroupClearBits.str1.4
                0x00000000       0x26 CMakeFiles/ex1_create_task.dir/D_/pico/pico-FreeRTOS/Source/event_groups.c.obj
 .text.xEventGroupClearBits
                0x00000000       0x50 CMakeFiles/ex1_create_task.dir/D_/pico/pico-FreeRTOS/Source/event_groups.c.obj
 .text.vEventGroupClearBitsCallback
                0x00000000        0x8 CMakeFiles/ex1_create_task.dir/D_/pico/pico-FreeRTOS/Source/event_groups.c.obj
 .text.xEventGroupClearBitsFromISR
                0x00000000       0x14 CMakeFiles/ex1_create_task.dir/D_/pico/pico-FreeRTOS/Source/event_groups.c.obj
 .text.xEventGroupGetBitsFromISR
                0x00000000       0x1c CMakeFiles/ex1_create_task.dir/D_/pico/pico-FreeRTOS/Source/event_groups.c.obj
 .text.xEventGroupSync
                0x00000000       0xe8 CMakeFiles/ex1_create_task.dir/D_/pico/pico-FreeRTOS/Source/event_groups.c.obj
 .rodata.vEventGroupDelete.str1.4
                0x00000000       0x66 CMakeFiles/ex1_create_task.dir/D_/pico/pico-FreeRTOS/Source/event_groups.c.obj
 .text.vEventGroupDelete
                0x00000000       0x4c CMakeFiles/ex1_create_task.dir/D_/pico/pico-FreeRTOS/Source/event_groups.c.obj
 .text.uxEventGroupGetNumber
                0x00000000        0xc CMakeFiles/ex1_create_task.dir/D_/pico/pico-FreeRTOS/Source/event_groups.c.obj
 .text.vEventGroupSetNumber
                0x00000000        0x4 CMakeFiles/ex1_create_task.dir/D_/pico/pico-FreeRTOS/Source/event_groups.c.obj
 .rodata.__func__.0
                0x00000000       0x12 CMakeFiles/ex1_create_task.dir/D_/pico/pico-FreeRTOS/Source/event_groups.c.obj
 .rodata.__func__.2
                0x00000000       0x15 CMakeFiles/ex1_create_task.dir/D_/pico/pico-FreeRTOS/Source/event_groups.c.obj
 .rodata.__func__.4
                0x00000000       0x10 CMakeFiles/ex1_create_task.dir/D_/pico/pico-FreeRTOS/Source/event_groups.c.obj
 .text          0x00000000        0x0 CMakeFiles/ex1_create_task.dir/D_/pico/pico-FreeRTOS/Source/list.c.obj
 .data          0x00000000        0x0 CMakeFiles/ex1_create_task.dir/D_/pico/pico-FreeRTOS/Source/list.c.obj
 .bss           0x00000000        0x0 CMakeFiles/ex1_create_task.dir/D_/pico/pico-FreeRTOS/Source/list.c.obj
 .text          0x00000000        0x0 CMakeFiles/ex1_create_task.dir/D_/pico/pico-FreeRTOS/Source/queue.c.obj
 .data          0x00000000        0x0 CMakeFiles/ex1_create_task.dir/D_/pico/pico-FreeRTOS/Source/queue.c.obj
 .bss           0x00000000        0x0 CMakeFiles/ex1_create_task.dir/D_/pico/pico-FreeRTOS/Source/queue.c.obj
 .text.prvGetDisinheritPriorityAfterTimeout
                0x00000000       0x12 CMakeFiles/ex1_create_task.dir/D_/pico/pico-FreeRTOS/Source/queue.c.obj
 .rodata.xQueueGetMutexHolder.str1.4
                0x00000000        0xb CMakeFiles/ex1_create_task.dir/D_/pico/pico-FreeRTOS/Source/queue.c.obj
 .text.xQueueGetMutexHolder
                0x00000000       0x3c CMakeFiles/ex1_create_task.dir/D_/pico/pico-FreeRTOS/Source/queue.c.obj
 .text.xQueueGetMutexHolderFromISR
                0x00000000       0x30 CMakeFiles/ex1_create_task.dir/D_/pico/pico-FreeRTOS/Source/queue.c.obj
 .rodata.xQueueCreateCountingSemaphore.str1.4
                0x00000000       0x2d CMakeFiles/ex1_create_task.dir/D_/pico/pico-FreeRTOS/Source/queue.c.obj
 .text.xQueueCreateCountingSemaphore
                0x00000000       0x4c CMakeFiles/ex1_create_task.dir/D_/pico/pico-FreeRTOS/Source/queue.c.obj
 .text.prvInitialiseMutex
                0x00000000       0x18 CMakeFiles/ex1_create_task.dir/D_/pico/pico-FreeRTOS/Source/queue.c.obj
 .text.xQueueCreateMutex
                0x00000000       0x16 CMakeFiles/ex1_create_task.dir/D_/pico/pico-FreeRTOS/Source/queue.c.obj
 .rodata.xQueueGiveMutexRecursive.str1.4
                0x00000000        0x8 CMakeFiles/ex1_create_task.dir/D_/pico/pico-FreeRTOS/Source/queue.c.obj
 .text.xQueueGiveMutexRecursive
                0x00000000       0x4c CMakeFiles/ex1_create_task.dir/D_/pico/pico-FreeRTOS/Source/queue.c.obj
 .rodata.xQueueGiveFromISR.str1.4
                0x00000000       0x7d CMakeFiles/ex1_create_task.dir/D_/pico/pico-FreeRTOS/Source/queue.c.obj
 .text.xQueueGiveFromISR
                0x00000000      0x100 CMakeFiles/ex1_create_task.dir/D_/pico/pico-FreeRTOS/Source/queue.c.obj
 .rodata.xQueueSemaphoreTake.str1.4
                0x00000000       0x2d CMakeFiles/ex1_create_task.dir/D_/pico/pico-FreeRTOS/Source/queue.c.obj
 .text.xQueueSemaphoreTake
                0x00000000      0x1a0 CMakeFiles/ex1_create_task.dir/D_/pico/pico-FreeRTOS/Source/queue.c.obj
 .text.xQueueTakeMutexRecursive
                0x00000000       0x50 CMakeFiles/ex1_create_task.dir/D_/pico/pico-FreeRTOS/Source/queue.c.obj
 .text.xQueuePeek
                0x00000000      0x150 CMakeFiles/ex1_create_task.dir/D_/pico/pico-FreeRTOS/Source/queue.c.obj
 .rodata.xQueueReceiveFromISR.str1.4
                0x00000000       0x72 CMakeFiles/ex1_create_task.dir/D_/pico/pico-FreeRTOS/Source/queue.c.obj
 .text.xQueueReceiveFromISR
                0x00000000       0xd8 CMakeFiles/ex1_create_task.dir/D_/pico/pico-FreeRTOS/Source/queue.c.obj
 .rodata.xQueuePeekFromISR.str1.4
                0x00000000       0x19 CMakeFiles/ex1_create_task.dir/D_/pico/pico-FreeRTOS/Source/queue.c.obj
 .text.xQueuePeekFromISR
                0x00000000       0x8c CMakeFiles/ex1_create_task.dir/D_/pico/pico-FreeRTOS/Source/queue.c.obj
 .text.uxQueueMessagesWaiting
                0x00000000       0x30 CMakeFiles/ex1_create_task.dir/D_/pico/pico-FreeRTOS/Source/queue.c.obj
 .text.uxQueueSpacesAvailable
                0x00000000       0x34 CMakeFiles/ex1_create_task.dir/D_/pico/pico-FreeRTOS/Source/queue.c.obj
 .text.uxQueueMessagesWaitingFromISR
                0x00000000       0x28 CMakeFiles/ex1_create_task.dir/D_/pico/pico-FreeRTOS/Source/queue.c.obj
 .text.uxQueueGetQueueNumber
                0x00000000        0x4 CMakeFiles/ex1_create_task.dir/D_/pico/pico-FreeRTOS/Source/queue.c.obj
 .text.vQueueSetQueueNumber
                0x00000000        0x4 CMakeFiles/ex1_create_task.dir/D_/pico/pico-FreeRTOS/Source/queue.c.obj
 .text.ucQueueGetQueueType
                0x00000000        0x6 CMakeFiles/ex1_create_task.dir/D_/pico/pico-FreeRTOS/Source/queue.c.obj
 .text.xQueueIsQueueEmptyFromISR
                0x00000000       0x30 CMakeFiles/ex1_create_task.dir/D_/pico/pico-FreeRTOS/Source/queue.c.obj
 .text.xQueueIsQueueFullFromISR
                0x00000000       0x34 CMakeFiles/ex1_create_task.dir/D_/pico/pico-FreeRTOS/Source/queue.c.obj
 .text.pcQueueGetName
                0x00000000       0x48 CMakeFiles/ex1_create_task.dir/D_/pico/pico-FreeRTOS/Source/queue.c.obj
 .text.vQueueUnregisterQueue
                0x00000000       0x4c CMakeFiles/ex1_create_task.dir/D_/pico/pico-FreeRTOS/Source/queue.c.obj
 .text.vQueueDelete
                0x00000000       0x30 CMakeFiles/ex1_create_task.dir/D_/pico/pico-FreeRTOS/Source/queue.c.obj
 .text.xQueueCreateSet
                0x00000000        0xc CMakeFiles/ex1_create_task.dir/D_/pico/pico-FreeRTOS/Source/queue.c.obj
 .text.xQueueAddToSet
                0x00000000       0x2a CMakeFiles/ex1_create_task.dir/D_/pico/pico-FreeRTOS/Source/queue.c.obj
 .text.xQueueRemoveFromSet
                0x00000000       0x28 CMakeFiles/ex1_create_task.dir/D_/pico/pico-FreeRTOS/Source/queue.c.obj
 .text.xQueueSelectFromSet
                0x00000000       0x16 CMakeFiles/ex1_create_task.dir/D_/pico/pico-FreeRTOS/Source/queue.c.obj
 .text.xQueueSelectFromSetFromISR
                0x00000000       0x16 CMakeFiles/ex1_create_task.dir/D_/pico/pico-FreeRTOS/Source/queue.c.obj
 .rodata.__func__.0
                0x00000000       0x16 CMakeFiles/ex1_create_task.dir/D_/pico/pico-FreeRTOS/Source/queue.c.obj
 .rodata.__func__.1
                0x00000000        0xf CMakeFiles/ex1_create_task.dir/D_/pico/pico-FreeRTOS/Source/queue.c.obj
 .rodata.__func__.10
                0x00000000       0x15 CMakeFiles/ex1_create_task.dir/D_/pico/pico-FreeRTOS/Source/queue.c.obj
 .rodata.__func__.11
                0x00000000        0xb CMakeFiles/ex1_create_task.dir/D_/pico/pico-FreeRTOS/Source/queue.c.obj
 .rodata.__func__.12
                0x00000000       0x14 CMakeFiles/ex1_create_task.dir/D_/pico/pico-FreeRTOS/Source/queue.c.obj
 .rodata.__func__.14
                0x00000000       0x12 CMakeFiles/ex1_create_task.dir/D_/pico/pico-FreeRTOS/Source/queue.c.obj
 .rodata.__func__.18
                0x00000000       0x1e CMakeFiles/ex1_create_task.dir/D_/pico/pico-FreeRTOS/Source/queue.c.obj
 .rodata.__func__.19
                0x00000000       0x19 CMakeFiles/ex1_create_task.dir/D_/pico/pico-FreeRTOS/Source/queue.c.obj
 .rodata.__func__.20
                0x00000000       0x19 CMakeFiles/ex1_create_task.dir/D_/pico/pico-FreeRTOS/Source/queue.c.obj
 .rodata.__func__.21
                0x00000000       0x1c CMakeFiles/ex1_create_task.dir/D_/pico/pico-FreeRTOS/Source/queue.c.obj
 .rodata.__func__.22
                0x00000000       0x15 CMakeFiles/ex1_create_task.dir/D_/pico/pico-FreeRTOS/Source/queue.c.obj
 .rodata.__func__.3
                0x00000000       0x19 CMakeFiles/ex1_create_task.dir/D_/pico/pico-FreeRTOS/Source/queue.c.obj
 .rodata.__func__.4
                0x00000000       0x1a CMakeFiles/ex1_create_task.dir/D_/pico/pico-FreeRTOS/Source/queue.c.obj
 .rodata.__func__.5
                0x00000000        0xd CMakeFiles/ex1_create_task.dir/D_/pico/pico-FreeRTOS/Source/queue.c.obj
 .rodata.__func__.6
                0x00000000       0x1e CMakeFiles/ex1_create_task.dir/D_/pico/pico-FreeRTOS/Source/queue.c.obj
 .rodata.__func__.7
                0x00000000       0x17 CMakeFiles/ex1_create_task.dir/D_/pico/pico-FreeRTOS/Source/queue.c.obj
 .rodata.__func__.8
                0x00000000       0x17 CMakeFiles/ex1_create_task.dir/D_/pico/pico-FreeRTOS/Source/queue.c.obj
 .rodata.__func__.9
                0x00000000       0x12 CMakeFiles/ex1_create_task.dir/D_/pico/pico-FreeRTOS/Source/queue.c.obj
 .text          0x00000000        0x0 CMakeFiles/ex1_create_task.dir/D_/pico/pico-FreeRTOS/Source/stream_buffer.c.obj
 .data          0x00000000        0x0 CMakeFiles/ex1_create_task.dir/D_/pico/pico-FreeRTOS/Source/stream_buffer.c.obj
 .bss           0x00000000        0x0 CMakeFiles/ex1_create_task.dir/D_/pico/pico-FreeRTOS/Source/stream_buffer.c.obj
 .text.prvBytesInBuffer
                0x00000000       0x12 CMakeFiles/ex1_create_task.dir/D_/pico/pico-FreeRTOS/Source/stream_buffer.c.obj
 .rodata.prvInitialiseNewStreamBuffer.str1.4
                0x00000000       0x75 CMakeFiles/ex1_create_task.dir/D_/pico/pico-FreeRTOS/Source/stream_buffer.c.obj
 .text.prvInitialiseNewStreamBuffer
                0x00000000       0x58 CMakeFiles/ex1_create_task.dir/D_/pico/pico-FreeRTOS/Source/stream_buffer.c.obj
 .rodata.prvWriteBytesToBuffer.str1.4
                0x00000000       0x85 CMakeFiles/ex1_create_task.dir/D_/pico/pico-FreeRTOS/Source/stream_buffer.c.obj
 .text.prvWriteBytesToBuffer
                0x00000000       0x9c CMakeFiles/ex1_create_task.dir/D_/pico/pico-FreeRTOS/Source/stream_buffer.c.obj
 .text.prvWriteMessageToBuffer
                0x00000000       0x42 CMakeFiles/ex1_create_task.dir/D_/pico/pico-FreeRTOS/Source/stream_buffer.c.obj
 .rodata.prvReadBytesFromBuffer.str1.4
                0x00000000       0x68 CMakeFiles/ex1_create_task.dir/D_/pico/pico-FreeRTOS/Source/stream_buffer.c.obj
 .text.prvReadBytesFromBuffer
                0x00000000       0xb0 CMakeFiles/ex1_create_task.dir/D_/pico/pico-FreeRTOS/Source/stream_buffer.c.obj
 .text.prvReadMessageFromBuffer
                0x00000000       0x4e CMakeFiles/ex1_create_task.dir/D_/pico/pico-FreeRTOS/Source/stream_buffer.c.obj
 .rodata.xStreamBufferGenericCreate.str1.4
                0x00000000       0x67 CMakeFiles/ex1_create_task.dir/D_/pico/pico-FreeRTOS/Source/stream_buffer.c.obj
 .text.xStreamBufferGenericCreate
                0x00000000       0x84 CMakeFiles/ex1_create_task.dir/D_/pico/pico-FreeRTOS/Source/stream_buffer.c.obj
 .rodata.vStreamBufferDelete.str1.4
                0x00000000        0xf CMakeFiles/ex1_create_task.dir/D_/pico/pico-FreeRTOS/Source/stream_buffer.c.obj
 .text.vStreamBufferDelete
                0x00000000       0x38 CMakeFiles/ex1_create_task.dir/D_/pico/pico-FreeRTOS/Source/stream_buffer.c.obj
 .text.xStreamBufferReset
                0x00000000       0x5c CMakeFiles/ex1_create_task.dir/D_/pico/pico-FreeRTOS/Source/stream_buffer.c.obj
 .text.xStreamBufferSetTriggerLevel
                0x00000000       0x38 CMakeFiles/ex1_create_task.dir/D_/pico/pico-FreeRTOS/Source/stream_buffer.c.obj
 .text.xStreamBufferSpacesAvailable
                0x00000000       0x34 CMakeFiles/ex1_create_task.dir/D_/pico/pico-FreeRTOS/Source/stream_buffer.c.obj
 .text.xStreamBufferBytesAvailable
                0x00000000       0x28 CMakeFiles/ex1_create_task.dir/D_/pico/pico-FreeRTOS/Source/stream_buffer.c.obj
 .rodata.xStreamBufferSend.str1.4
                0x00000000       0x62 CMakeFiles/ex1_create_task.dir/D_/pico/pico-FreeRTOS/Source/stream_buffer.c.obj
 .text.xStreamBufferSend
                0x00000000      0x144 CMakeFiles/ex1_create_task.dir/D_/pico/pico-FreeRTOS/Source/stream_buffer.c.obj
 .text.xStreamBufferSendFromISR
                0x00000000       0xac CMakeFiles/ex1_create_task.dir/D_/pico/pico-FreeRTOS/Source/stream_buffer.c.obj
 .rodata.xStreamBufferReceive.str1.4
                0x00000000       0x41 CMakeFiles/ex1_create_task.dir/D_/pico/pico-FreeRTOS/Source/stream_buffer.c.obj
 .text.xStreamBufferReceive
                0x00000000      0x100 CMakeFiles/ex1_create_task.dir/D_/pico/pico-FreeRTOS/Source/stream_buffer.c.obj
 .rodata.xStreamBufferNextMessageLengthBytes.str1.4
                0x00000000       0x15 CMakeFiles/ex1_create_task.dir/D_/pico/pico-FreeRTOS/Source/stream_buffer.c.obj
 .text.xStreamBufferNextMessageLengthBytes
                0x00000000       0x64 CMakeFiles/ex1_create_task.dir/D_/pico/pico-FreeRTOS/Source/stream_buffer.c.obj
 .text.xStreamBufferReceiveFromISR
                0x00000000       0xa4 CMakeFiles/ex1_create_task.dir/D_/pico/pico-FreeRTOS/Source/stream_buffer.c.obj
 .text.xStreamBufferIsEmpty
                0x00000000       0x30 CMakeFiles/ex1_create_task.dir/D_/pico/pico-FreeRTOS/Source/stream_buffer.c.obj
 .text.xStreamBufferIsFull
                0x00000000       0x3c CMakeFiles/ex1_create_task.dir/D_/pico/pico-FreeRTOS/Source/stream_buffer.c.obj
 .text.xStreamBufferSendCompletedFromISR
                0x00000000       0x60 CMakeFiles/ex1_create_task.dir/D_/pico/pico-FreeRTOS/Source/stream_buffer.c.obj
 .text.xStreamBufferReceiveCompletedFromISR
                0x00000000       0x60 CMakeFiles/ex1_create_task.dir/D_/pico/pico-FreeRTOS/Source/stream_buffer.c.obj
 .text.uxStreamBufferGetStreamBufferNumber
                0x00000000        0x4 CMakeFiles/ex1_create_task.dir/D_/pico/pico-FreeRTOS/Source/stream_buffer.c.obj
 .text.vStreamBufferSetStreamBufferNumber
                0x00000000        0x4 CMakeFiles/ex1_create_task.dir/D_/pico/pico-FreeRTOS/Source/stream_buffer.c.obj
 .text.ucStreamBufferGetStreamBufferType
                0x00000000        0x8 CMakeFiles/ex1_create_task.dir/D_/pico/pico-FreeRTOS/Source/stream_buffer.c.obj
 .rodata.__func__.0
                0x00000000       0x25 CMakeFiles/ex1_create_task.dir/D_/pico/pico-FreeRTOS/Source/stream_buffer.c.obj
 .rodata.__func__.1
                0x00000000       0x22 CMakeFiles/ex1_create_task.dir/D_/pico/pico-FreeRTOS/Source/stream_buffer.c.obj
 .rodata.__func__.10
                0x00000000       0x12 CMakeFiles/ex1_create_task.dir/D_/pico/pico-FreeRTOS/Source/stream_buffer.c.obj
 .rodata.__func__.11
                0x00000000       0x1c CMakeFiles/ex1_create_task.dir/D_/pico/pico-FreeRTOS/Source/stream_buffer.c.obj
 .rodata.__func__.12
                0x00000000       0x1d CMakeFiles/ex1_create_task.dir/D_/pico/pico-FreeRTOS/Source/stream_buffer.c.obj
 .rodata.__func__.13
                0x00000000       0x1d CMakeFiles/ex1_create_task.dir/D_/pico/pico-FreeRTOS/Source/stream_buffer.c.obj
 .rodata.__func__.14
                0x00000000       0x13 CMakeFiles/ex1_create_task.dir/D_/pico/pico-FreeRTOS/Source/stream_buffer.c.obj
 .rodata.__func__.15
                0x00000000       0x14 CMakeFiles/ex1_create_task.dir/D_/pico/pico-FreeRTOS/Source/stream_buffer.c.obj
 .rodata.__func__.16
                0x00000000       0x1d CMakeFiles/ex1_create_task.dir/D_/pico/pico-FreeRTOS/Source/stream_buffer.c.obj
 .rodata.__func__.17
                0x00000000       0x1b CMakeFiles/ex1_create_task.dir/D_/pico/pico-FreeRTOS/Source/stream_buffer.c.obj
 .rodata.__func__.2
                0x00000000       0x14 CMakeFiles/ex1_create_task.dir/D_/pico/pico-FreeRTOS/Source/stream_buffer.c.obj
 .rodata.__func__.3
                0x00000000       0x15 CMakeFiles/ex1_create_task.dir/D_/pico/pico-FreeRTOS/Source/stream_buffer.c.obj
 .rodata.__func__.4
                0x00000000       0x1c CMakeFiles/ex1_create_task.dir/D_/pico/pico-FreeRTOS/Source/stream_buffer.c.obj
 .rodata.__func__.5
                0x00000000       0x24 CMakeFiles/ex1_create_task.dir/D_/pico/pico-FreeRTOS/Source/stream_buffer.c.obj
 .rodata.__func__.6
                0x00000000       0x17 CMakeFiles/ex1_create_task.dir/D_/pico/pico-FreeRTOS/Source/stream_buffer.c.obj
 .rodata.__func__.7
                0x00000000       0x15 CMakeFiles/ex1_create_task.dir/D_/pico/pico-FreeRTOS/Source/stream_buffer.c.obj
 .rodata.__func__.8
                0x00000000       0x19 CMakeFiles/ex1_create_task.dir/D_/pico/pico-FreeRTOS/Source/stream_buffer.c.obj
 .rodata.__func__.9
                0x00000000       0x16 CMakeFiles/ex1_create_task.dir/D_/pico/pico-FreeRTOS/Source/stream_buffer.c.obj
 .debug_info    0x00000000     0x1e58 CMakeFiles/ex1_create_task.dir/D_/pico/pico-FreeRTOS/Source/stream_buffer.c.obj
 .debug_abbrev  0x00000000      0x24d CMakeFiles/ex1_create_task.dir/D_/pico/pico-FreeRTOS/Source/stream_buffer.c.obj
 .debug_loc     0x00000000     0x2476 CMakeFiles/ex1_create_task.dir/D_/pico/pico-FreeRTOS/Source/stream_buffer.c.obj
 .debug_aranges
                0x00000000       0xd8 CMakeFiles/ex1_create_task.dir/D_/pico/pico-FreeRTOS/Source/stream_buffer.c.obj
 .debug_ranges  0x00000000       0xe0 CMakeFiles/ex1_create_task.dir/D_/pico/pico-FreeRTOS/Source/stream_buffer.c.obj
 .debug_line    0x00000000      0xe5e CMakeFiles/ex1_create_task.dir/D_/pico/pico-FreeRTOS/Source/stream_buffer.c.obj
 .debug_str     0x00000000      0x8ea CMakeFiles/ex1_create_task.dir/D_/pico/pico-FreeRTOS/Source/stream_buffer.c.obj
 .comment       0x00000000       0x4a CMakeFiles/ex1_create_task.dir/D_/pico/pico-FreeRTOS/Source/stream_buffer.c.obj
 .debug_frame   0x00000000      0x2bc CMakeFiles/ex1_create_task.dir/D_/pico/pico-FreeRTOS/Source/stream_buffer.c.obj
 .ARM.attributes
                0x00000000       0x2c CMakeFiles/ex1_create_task.dir/D_/pico/pico-FreeRTOS/Source/stream_buffer.c.obj
 .text          0x00000000        0x0 CMakeFiles/ex1_create_task.dir/D_/pico/pico-FreeRTOS/Source/tasks.c.obj
 .data          0x00000000        0x0 CMakeFiles/ex1_create_task.dir/D_/pico/pico-FreeRTOS/Source/tasks.c.obj
 .bss           0x00000000        0x0 CMakeFiles/ex1_create_task.dir/D_/pico/pico-FreeRTOS/Source/tasks.c.obj
 .text.prvSearchForNameWithinSingleList
                0x00000000       0x64 CMakeFiles/ex1_create_task.dir/D_/pico/pico-FreeRTOS/Source/tasks.c.obj
 .text.prvTaskCheckFreeStackSpace
                0x00000000       0x12 CMakeFiles/ex1_create_task.dir/D_/pico/pico-FreeRTOS/Source/tasks.c.obj
 .text.prvTaskIsTaskSuspended
                0x00000000       0x50 CMakeFiles/ex1_create_task.dir/D_/pico/pico-FreeRTOS/Source/tasks.c.obj
 .text.vTaskEndScheduler
                0x00000000       0x18 CMakeFiles/ex1_create_task.dir/D_/pico/pico-FreeRTOS/Source/tasks.c.obj
 .text.xTaskGetTickCountFromISR
                0x00000000        0xc CMakeFiles/ex1_create_task.dir/D_/pico/pico-FreeRTOS/Source/tasks.c.obj
 .text.uxTaskGetNumberOfTasks
                0x00000000        0xc CMakeFiles/ex1_create_task.dir/D_/pico/pico-FreeRTOS/Source/tasks.c.obj
 .text.xTaskGetIdleTaskHandle
                0x00000000        0x8 CMakeFiles/ex1_create_task.dir/D_/pico/pico-FreeRTOS/Source/tasks.c.obj
 .text.uxTaskGetTaskNumber
                0x00000000        0xc CMakeFiles/ex1_create_task.dir/D_/pico/pico-FreeRTOS/Source/tasks.c.obj
 .text.vTaskSetTaskNumber
                0x00000000        0x8 CMakeFiles/ex1_create_task.dir/D_/pico/pico-FreeRTOS/Source/tasks.c.obj
 .rodata.pcTaskGetName.str1.4
                0x00000000        0x6 CMakeFiles/ex1_create_task.dir/D_/pico/pico-FreeRTOS/Source/tasks.c.obj
 .text.pcTaskGetName
                0x00000000       0x30 CMakeFiles/ex1_create_task.dir/D_/pico/pico-FreeRTOS/Source/tasks.c.obj
 .rodata.vTaskSetThreadLocalStoragePointer.str1.4
                0x00000000       0x15 CMakeFiles/ex1_create_task.dir/D_/pico/pico-FreeRTOS/Source/tasks.c.obj
 .text.vTaskSetThreadLocalStoragePointer
                0x00000000       0x3c CMakeFiles/ex1_create_task.dir/D_/pico/pico-FreeRTOS/Source/tasks.c.obj
 .text.pvTaskGetThreadLocalStoragePointer
                0x00000000       0x1e CMakeFiles/ex1_create_task.dir/D_/pico/pico-FreeRTOS/Source/tasks.c.obj
 .text.uxTaskGetStackHighWaterMark
                0x00000000       0x14 CMakeFiles/ex1_create_task.dir/D_/pico/pico-FreeRTOS/Source/tasks.c.obj
 .text.xTaskGetCurrentTaskHandleCPU
                0x00000000       0x14 CMakeFiles/ex1_create_task.dir/D_/pico/pico-FreeRTOS/Source/tasks.c.obj
 .text.xTaskPriorityInherit
                0x00000000       0x94 CMakeFiles/ex1_create_task.dir/D_/pico/pico-FreeRTOS/Source/tasks.c.obj
 .rodata.vTaskPriorityDisinheritAfterTimeout.str1.4
                0x00000000       0x25 CMakeFiles/ex1_create_task.dir/D_/pico/pico-FreeRTOS/Source/tasks.c.obj
 .text.vTaskPriorityDisinheritAfterTimeout
                0x00000000       0xa8 CMakeFiles/ex1_create_task.dir/D_/pico/pico-FreeRTOS/Source/tasks.c.obj
 .rodata.vTaskDelete.str1.4
                0x00000000       0x1a CMakeFiles/ex1_create_task.dir/D_/pico/pico-FreeRTOS/Source/tasks.c.obj
 .text.vTaskDelete
                0x00000000       0xc4 CMakeFiles/ex1_create_task.dir/D_/pico/pico-FreeRTOS/Source/tasks.c.obj
 .text.eTaskGetState
                0x00000000       0xa8 CMakeFiles/ex1_create_task.dir/D_/pico/pico-FreeRTOS/Source/tasks.c.obj
 .text.uxTaskPriorityGet
                0x00000000       0x1e CMakeFiles/ex1_create_task.dir/D_/pico/pico-FreeRTOS/Source/tasks.c.obj
 .text.uxTaskPriorityGetFromISR
                0x00000000       0x28 CMakeFiles/ex1_create_task.dir/D_/pico/pico-FreeRTOS/Source/tasks.c.obj
 .rodata.vTaskPrioritySet.str1.4
                0x00000000       0x17 CMakeFiles/ex1_create_task.dir/D_/pico/pico-FreeRTOS/Source/tasks.c.obj
 .text.vTaskPrioritySet
                0x00000000       0xe8 CMakeFiles/ex1_create_task.dir/D_/pico/pico-FreeRTOS/Source/tasks.c.obj
 .rodata.vTaskSuspend.str1.4
                0x00000000       0x2d CMakeFiles/ex1_create_task.dir/D_/pico/pico-FreeRTOS/Source/tasks.c.obj
 .text.vTaskSuspend
                0x00000000      0x120 CMakeFiles/ex1_create_task.dir/D_/pico/pico-FreeRTOS/Source/tasks.c.obj
 .rodata.vTaskResume.str1.4
                0x00000000        0xe CMakeFiles/ex1_create_task.dir/D_/pico/pico-FreeRTOS/Source/tasks.c.obj
 .text.vTaskResume
                0x00000000       0x70 CMakeFiles/ex1_create_task.dir/D_/pico/pico-FreeRTOS/Source/tasks.c.obj
 .text.xTaskResumeFromISR
                0x00000000       0xac CMakeFiles/ex1_create_task.dir/D_/pico/pico-FreeRTOS/Source/tasks.c.obj
 .text.xTaskDelayUntil
                0x00000000       0xb4 CMakeFiles/ex1_create_task.dir/D_/pico/pico-FreeRTOS/Source/tasks.c.obj
 .rodata.xTaskGetHandle.str1.4
                0x00000000       0x1d CMakeFiles/ex1_create_task.dir/D_/pico/pico-FreeRTOS/Source/tasks.c.obj
 .text.xTaskGetHandle
                0x00000000       0xa8 CMakeFiles/ex1_create_task.dir/D_/pico/pico-FreeRTOS/Source/tasks.c.obj
 .text.xTaskCatchUpTicks
                0x00000000       0x44 CMakeFiles/ex1_create_task.dir/D_/pico/pico-FreeRTOS/Source/tasks.c.obj
 .text.vTaskGetInfo
                0x00000000       0x80 CMakeFiles/ex1_create_task.dir/D_/pico/pico-FreeRTOS/Source/tasks.c.obj
 .text.prvListTasksWithinSingleList
                0x00000000       0x6e CMakeFiles/ex1_create_task.dir/D_/pico/pico-FreeRTOS/Source/tasks.c.obj
 .text.uxTaskGetSystemState
                0x00000000       0xb0 CMakeFiles/ex1_create_task.dir/D_/pico/pico-FreeRTOS/Source/tasks.c.obj
 .text.xTaskAbortDelay
                0x00000000       0x98 CMakeFiles/ex1_create_task.dir/D_/pico/pico-FreeRTOS/Source/tasks.c.obj
 .text.vTaskSetTimeOutState
                0x00000000       0x40 CMakeFiles/ex1_create_task.dir/D_/pico/pico-FreeRTOS/Source/tasks.c.obj
 .text.pvTaskIncrementMutexHeldCount
                0x00000000       0x1a CMakeFiles/ex1_create_task.dir/D_/pico/pico-FreeRTOS/Source/tasks.c.obj
 .rodata.ulTaskGenericNotifyTake.str1.4
                0x00000000       0x12 CMakeFiles/ex1_create_task.dir/D_/pico/pico-FreeRTOS/Source/tasks.c.obj
 .text.ulTaskGenericNotifyTake
                0x00000000       0xb0 CMakeFiles/ex1_create_task.dir/D_/pico/pico-FreeRTOS/Source/tasks.c.obj
 .text.xTaskGenericNotifyWait
                0x00000000       0xc4 CMakeFiles/ex1_create_task.dir/D_/pico/pico-FreeRTOS/Source/tasks.c.obj
 .rodata.xTaskGenericNotify.str1.4
                0x00000000       0x83 CMakeFiles/ex1_create_task.dir/D_/pico/pico-FreeRTOS/Source/tasks.c.obj
 .text.xTaskGenericNotify
                0x00000000      0x13c CMakeFiles/ex1_create_task.dir/D_/pico/pico-FreeRTOS/Source/tasks.c.obj
 .rodata.xTaskGenericNotify
                0x00000000       0x14 CMakeFiles/ex1_create_task.dir/D_/pico/pico-FreeRTOS/Source/tasks.c.obj
 .text.xTaskGenericNotifyFromISR
                0x00000000      0x188 CMakeFiles/ex1_create_task.dir/D_/pico/pico-FreeRTOS/Source/tasks.c.obj
 .rodata.xTaskGenericNotifyFromISR
                0x00000000       0x14 CMakeFiles/ex1_create_task.dir/D_/pico/pico-FreeRTOS/Source/tasks.c.obj
 .text.vTaskGenericNotifyGiveFromISR
                0x00000000       0xf4 CMakeFiles/ex1_create_task.dir/D_/pico/pico-FreeRTOS/Source/tasks.c.obj
 .rodata.xTaskGenericNotifyStateClear.str1.4
                0x00000000       0x13 CMakeFiles/ex1_create_task.dir/D_/pico/pico-FreeRTOS/Source/tasks.c.obj
 .text.xTaskGenericNotifyStateClear
                0x00000000       0x54 CMakeFiles/ex1_create_task.dir/D_/pico/pico-FreeRTOS/Source/tasks.c.obj
 .text.ulTaskGenericNotifyValueClear
                0x00000000       0x30 CMakeFiles/ex1_create_task.dir/D_/pico/pico-FreeRTOS/Source/tasks.c.obj
 .rodata.__func__.0
                0x00000000       0x1d CMakeFiles/ex1_create_task.dir/D_/pico/pico-FreeRTOS/Source/tasks.c.obj
 .rodata.__func__.1
                0x00000000       0x1e CMakeFiles/ex1_create_task.dir/D_/pico/pico-FreeRTOS/Source/tasks.c.obj
 .rodata.__func__.11
                0x00000000       0x15 CMakeFiles/ex1_create_task.dir/D_/pico/pico-FreeRTOS/Source/tasks.c.obj
 .rodata.__func__.19
                0x00000000       0x10 CMakeFiles/ex1_create_task.dir/D_/pico/pico-FreeRTOS/Source/tasks.c.obj
 .rodata.__func__.2
                0x00000000       0x1a CMakeFiles/ex1_create_task.dir/D_/pico/pico-FreeRTOS/Source/tasks.c.obj
 .rodata.__func__.20
                0x00000000       0x12 CMakeFiles/ex1_create_task.dir/D_/pico/pico-FreeRTOS/Source/tasks.c.obj
 .rodata.__func__.21
                0x00000000        0xf CMakeFiles/ex1_create_task.dir/D_/pico/pico-FreeRTOS/Source/tasks.c.obj
 .rodata.__func__.22
                0x00000000        0xe CMakeFiles/ex1_create_task.dir/D_/pico/pico-FreeRTOS/Source/tasks.c.obj
 .rodata.__func__.29
                0x00000000       0x13 CMakeFiles/ex1_create_task.dir/D_/pico/pico-FreeRTOS/Source/tasks.c.obj
 .rodata.__func__.3
                0x00000000       0x13 CMakeFiles/ex1_create_task.dir/D_/pico/pico-FreeRTOS/Source/tasks.c.obj
 .rodata.__func__.30
                0x00000000       0x17 CMakeFiles/ex1_create_task.dir/D_/pico/pico-FreeRTOS/Source/tasks.c.obj
 .rodata.__func__.31
                0x00000000        0xc CMakeFiles/ex1_create_task.dir/D_/pico/pico-FreeRTOS/Source/tasks.c.obj
 .rodata.__func__.33
                0x00000000        0xd CMakeFiles/ex1_create_task.dir/D_/pico/pico-FreeRTOS/Source/tasks.c.obj
 .rodata.__func__.34
                0x00000000       0x11 CMakeFiles/ex1_create_task.dir/D_/pico/pico-FreeRTOS/Source/tasks.c.obj
 .rodata.__func__.35
                0x00000000        0xe CMakeFiles/ex1_create_task.dir/D_/pico/pico-FreeRTOS/Source/tasks.c.obj
 .rodata.__func__.37
                0x00000000       0x10 CMakeFiles/ex1_create_task.dir/D_/pico/pico-FreeRTOS/Source/tasks.c.obj
 .rodata.__func__.38
                0x00000000        0xc CMakeFiles/ex1_create_task.dir/D_/pico/pico-FreeRTOS/Source/tasks.c.obj
 .rodata.__func__.4
                0x00000000       0x17 CMakeFiles/ex1_create_task.dir/D_/pico/pico-FreeRTOS/Source/tasks.c.obj
 .rodata.__func__.5
                0x00000000       0x18 CMakeFiles/ex1_create_task.dir/D_/pico/pico-FreeRTOS/Source/tasks.c.obj
 .rodata.__func__.7
                0x00000000       0x24 CMakeFiles/ex1_create_task.dir/D_/pico/pico-FreeRTOS/Source/tasks.c.obj
 .rodata.__func__.9
                0x00000000       0x22 CMakeFiles/ex1_create_task.dir/D_/pico/pico-FreeRTOS/Source/tasks.c.obj
 .text          0x00000000        0x0 CMakeFiles/ex1_create_task.dir/D_/pico/pico-FreeRTOS/Source/timers.c.obj
 .data          0x00000000        0x0 CMakeFiles/ex1_create_task.dir/D_/pico/pico-FreeRTOS/Source/timers.c.obj
 .bss           0x00000000        0x0 CMakeFiles/ex1_create_task.dir/D_/pico/pico-FreeRTOS/Source/timers.c.obj
 .text.prvInitialiseNewTimer
                0x00000000       0x58 CMakeFiles/ex1_create_task.dir/D_/pico/pico-FreeRTOS/Source/timers.c.obj
 .text.xTimerCreate
                0x00000000       0x34 CMakeFiles/ex1_create_task.dir/D_/pico/pico-FreeRTOS/Source/timers.c.obj
 .rodata.xTimerGenericCommandFromISR.str1.4
                0x00000000       0x23 CMakeFiles/ex1_create_task.dir/D_/pico/pico-FreeRTOS/Source/timers.c.obj
 .text.xTimerGenericCommandFromISR
                0x00000000       0x60 CMakeFiles/ex1_create_task.dir/D_/pico/pico-FreeRTOS/Source/timers.c.obj
 .rodata.xTimerGetTimerDaemonTaskHandle.str1.4
                0x00000000       0x24 CMakeFiles/ex1_create_task.dir/D_/pico/pico-FreeRTOS/Source/timers.c.obj
 .text.xTimerGetTimerDaemonTaskHandle
                0x00000000       0x2c CMakeFiles/ex1_create_task.dir/D_/pico/pico-FreeRTOS/Source/timers.c.obj
 .text.xTimerGetPeriod
                0x00000000       0x24 CMakeFiles/ex1_create_task.dir/D_/pico/pico-FreeRTOS/Source/timers.c.obj
 .text.vTimerSetReloadMode
                0x00000000       0x48 CMakeFiles/ex1_create_task.dir/D_/pico/pico-FreeRTOS/Source/timers.c.obj
 .text.uxTimerGetReloadMode
                0x00000000       0x3c CMakeFiles/ex1_create_task.dir/D_/pico/pico-FreeRTOS/Source/timers.c.obj
 .text.xTimerGetExpiryTime
                0x00000000       0x28 CMakeFiles/ex1_create_task.dir/D_/pico/pico-FreeRTOS/Source/timers.c.obj
 .text.pcTimerGetName
                0x00000000       0x28 CMakeFiles/ex1_create_task.dir/D_/pico/pico-FreeRTOS/Source/timers.c.obj
 .text.xTimerIsTimerActive
                0x00000000       0x3c CMakeFiles/ex1_create_task.dir/D_/pico/pico-FreeRTOS/Source/timers.c.obj
 .text.pvTimerGetTimerID
                0x00000000       0x30 CMakeFiles/ex1_create_task.dir/D_/pico/pico-FreeRTOS/Source/timers.c.obj
 .text.vTimerSetTimerID
                0x00000000       0x34 CMakeFiles/ex1_create_task.dir/D_/pico/pico-FreeRTOS/Source/timers.c.obj
 .rodata.xTimerPendFunctionCall.str1.4
                0x00000000        0xc CMakeFiles/ex1_create_task.dir/D_/pico/pico-FreeRTOS/Source/timers.c.obj
 .text.xTimerPendFunctionCall
                0x00000000       0x4c CMakeFiles/ex1_create_task.dir/D_/pico/pico-FreeRTOS/Source/timers.c.obj
 .text.uxTimerGetTimerNumber
                0x00000000        0x4 CMakeFiles/ex1_create_task.dir/D_/pico/pico-FreeRTOS/Source/timers.c.obj
 .text.vTimerSetTimerNumber
                0x00000000        0x4 CMakeFiles/ex1_create_task.dir/D_/pico/pico-FreeRTOS/Source/timers.c.obj
 .rodata.__func__.0
                0x00000000       0x17 CMakeFiles/ex1_create_task.dir/D_/pico/pico-FreeRTOS/Source/timers.c.obj
 .rodata.__func__.1
                0x00000000       0x11 CMakeFiles/ex1_create_task.dir/D_/pico/pico-FreeRTOS/Source/timers.c.obj
 .rodata.__func__.10
                0x00000000       0x1c CMakeFiles/ex1_create_task.dir/D_/pico/pico-FreeRTOS/Source/timers.c.obj
 .rodata.__func__.12
                0x00000000       0x16 CMakeFiles/ex1_create_task.dir/D_/pico/pico-FreeRTOS/Source/timers.c.obj
 .rodata.__func__.2
                0x00000000       0x12 CMakeFiles/ex1_create_task.dir/D_/pico/pico-FreeRTOS/Source/timers.c.obj
 .rodata.__func__.3
                0x00000000       0x14 CMakeFiles/ex1_create_task.dir/D_/pico/pico-FreeRTOS/Source/timers.c.obj
 .rodata.__func__.4
                0x00000000        0xf CMakeFiles/ex1_create_task.dir/D_/pico/pico-FreeRTOS/Source/timers.c.obj
 .rodata.__func__.5
                0x00000000       0x14 CMakeFiles/ex1_create_task.dir/D_/pico/pico-FreeRTOS/Source/timers.c.obj
 .rodata.__func__.6
                0x00000000       0x15 CMakeFiles/ex1_create_task.dir/D_/pico/pico-FreeRTOS/Source/timers.c.obj
 .rodata.__func__.7
                0x00000000       0x14 CMakeFiles/ex1_create_task.dir/D_/pico/pico-FreeRTOS/Source/timers.c.obj
 .rodata.__func__.8
                0x00000000       0x10 CMakeFiles/ex1_create_task.dir/D_/pico/pico-FreeRTOS/Source/timers.c.obj
 .rodata.__func__.9
                0x00000000       0x1f CMakeFiles/ex1_create_task.dir/D_/pico/pico-FreeRTOS/Source/timers.c.obj
 .text          0x00000000        0x0 CMakeFiles/ex1_create_task.dir/D_/pico/pico-sdk/src/rp2_common/hardware_exception/exception.c.obj
 .data          0x00000000        0x0 CMakeFiles/ex1_create_task.dir/D_/pico/pico-sdk/src/rp2_common/hardware_exception/exception.c.obj
 .bss           0x00000000        0x0 CMakeFiles/ex1_create_task.dir/D_/pico/pico-sdk/src/rp2_common/hardware_exception/exception.c.obj
 .rodata.exception_restore_handler.str1.4
                0x00000000       0x34 CMakeFiles/ex1_create_task.dir/D_/pico/pico-sdk/src/rp2_common/hardware_exception/exception.c.obj
 .text.exception_restore_handler
                0x00000000       0x38 CMakeFiles/ex1_create_task.dir/D_/pico/pico-sdk/src/rp2_common/hardware_exception/exception.c.obj
 .rodata.__func__.0
                0x00000000       0x1a CMakeFiles/ex1_create_task.dir/D_/pico/pico-sdk/src/rp2_common/hardware_exception/exception.c.obj
 .text          0x00000000        0x0 CMakeFiles/ex1_create_task.dir/D_/pico/pico-sdk/src/rp2_common/pico_multicore/multicore.c.obj
 .data          0x00000000        0x0 CMakeFiles/ex1_create_task.dir/D_/pico/pico-sdk/src/rp2_common/pico_multicore/multicore.c.obj
 .bss           0x00000000        0x0 CMakeFiles/ex1_create_task.dir/D_/pico/pico-sdk/src/rp2_common/pico_multicore/multicore.c.obj
 .time_critical.multicore_lockout_handler
                0x00000000       0x78 CMakeFiles/ex1_create_task.dir/D_/pico/pico-sdk/src/rp2_common/pico_multicore/multicore.c.obj
 .text.check_lockout_mutex_init
                0x00000000       0x24 CMakeFiles/ex1_create_task.dir/D_/pico/pico-sdk/src/rp2_common/pico_multicore/multicore.c.obj
 .rodata.multicore_fifo_push_timeout_us.str1.4
                0x00000000       0x57 CMakeFiles/ex1_create_task.dir/D_/pico/pico-sdk/src/rp2_common/pico_multicore/multicore.c.obj
 .text.multicore_fifo_push_timeout_us
                0x00000000       0x9c CMakeFiles/ex1_create_task.dir/D_/pico/pico-sdk/src/rp2_common/pico_multicore/multicore.c.obj
 .text.multicore_fifo_pop_timeout_us
                0x00000000       0xa0 CMakeFiles/ex1_create_task.dir/D_/pico/pico-sdk/src/rp2_common/pico_multicore/multicore.c.obj
 .text.multicore_lockout_handshake
                0x00000000       0xc0 CMakeFiles/ex1_create_task.dir/D_/pico/pico-sdk/src/rp2_common/pico_multicore/multicore.c.obj
 .text.multicore_lockout_start_block_until
                0x00000000       0x60 CMakeFiles/ex1_create_task.dir/D_/pico/pico-sdk/src/rp2_common/pico_multicore/multicore.c.obj
 .rodata.multicore_lockout_end_block_until.str1.4
                0x00000000       0x3c CMakeFiles/ex1_create_task.dir/D_/pico/pico-sdk/src/rp2_common/pico_multicore/multicore.c.obj
 .text.multicore_lockout_end_block_until
                0x00000000       0x78 CMakeFiles/ex1_create_task.dir/D_/pico/pico-sdk/src/rp2_common/pico_multicore/multicore.c.obj
 .text.multicore_reset_core1
                0x00000000       0x28 CMakeFiles/ex1_create_task.dir/D_/pico/pico-sdk/src/rp2_common/pico_multicore/multicore.c.obj
 .text.multicore_lockout_victim_init
                0x00000000       0x24 CMakeFiles/ex1_create_task.dir/D_/pico/pico-sdk/src/rp2_common/pico_multicore/multicore.c.obj
 .text.multicore_lockout_start_timeout_us
                0x00000000       0x58 CMakeFiles/ex1_create_task.dir/D_/pico/pico-sdk/src/rp2_common/pico_multicore/multicore.c.obj
 .text.multicore_lockout_start_blocking
                0x00000000       0x14 CMakeFiles/ex1_create_task.dir/D_/pico/pico-sdk/src/rp2_common/pico_multicore/multicore.c.obj
 .text.multicore_lockout_end_timeout_us
                0x00000000       0x58 CMakeFiles/ex1_create_task.dir/D_/pico/pico-sdk/src/rp2_common/pico_multicore/multicore.c.obj
 .text.multicore_lockout_end_blocking
                0x00000000       0x14 CMakeFiles/ex1_create_task.dir/D_/pico/pico-sdk/src/rp2_common/pico_multicore/multicore.c.obj
 .bss.lockout_in_progress
                0x00000000        0x1 CMakeFiles/ex1_create_task.dir/D_/pico/pico-sdk/src/rp2_common/pico_multicore/multicore.c.obj
 .bss.lockout_mutex
                0x00000000        0x8 CMakeFiles/ex1_create_task.dir/D_/pico/pico-sdk/src/rp2_common/pico_multicore/multicore.c.obj
 .rodata.__func__.0
                0x00000000       0x22 CMakeFiles/ex1_create_task.dir/D_/pico/pico-sdk/src/rp2_common/pico_multicore/multicore.c.obj
 .rodata.__func__.1
                0x00000000       0x24 CMakeFiles/ex1_create_task.dir/D_/pico/pico-sdk/src/rp2_common/pico_multicore/multicore.c.obj
 .rodata.__func__.3
                0x00000000       0x15 CMakeFiles/ex1_create_task.dir/D_/pico/pico-sdk/src/rp2_common/pico_multicore/multicore.c.obj
 .text          0x00000000        0x0 CMakeFiles/ex1_create_task.dir/D_/pico/pico-FreeRTOS/Source/portable/MemMang/heap_4.c.obj
 .data          0x00000000        0x0 CMakeFiles/ex1_create_task.dir/D_/pico/pico-FreeRTOS/Source/portable/MemMang/heap_4.c.obj
 .bss           0x00000000        0x0 CMakeFiles/ex1_create_task.dir/D_/pico/pico-FreeRTOS/Source/portable/MemMang/heap_4.c.obj
 .text.xPortGetFreeHeapSize
                0x00000000        0xc CMakeFiles/ex1_create_task.dir/D_/pico/pico-FreeRTOS/Source/portable/MemMang/heap_4.c.obj
 .text.xPortGetMinimumEverFreeHeapSize
                0x00000000        0xc CMakeFiles/ex1_create_task.dir/D_/pico/pico-FreeRTOS/Source/portable/MemMang/heap_4.c.obj
 .text.vPortInitialiseBlocks
                0x00000000        0x2 CMakeFiles/ex1_create_task.dir/D_/pico/pico-FreeRTOS/Source/portable/MemMang/heap_4.c.obj
 .text.vPortGetHeapStats
                0x00000000       0x84 CMakeFiles/ex1_create_task.dir/D_/pico/pico-FreeRTOS/Source/portable/MemMang/heap_4.c.obj
 .text          0x00000000        0x0 C:\Users\ployy\AppData\Local\Temp\ccERXrNO.o
 .data          0x00000000        0x0 C:\Users\ployy\AppData\Local\Temp\ccERXrNO.o
 .bss           0x00000000        0x0 C:\Users\ployy\AppData\Local\Temp\ccERXrNO.o
 .data          0x00000000        0x0 d:/pico/armcc/10 2021.10/bin/../lib/gcc/arm-none-eabi/10.3.1/thumb/v6-m/nofp\libgcc.a(_dvmd_tls.o)
 .bss           0x00000000        0x0 d:/pico/armcc/10 2021.10/bin/../lib/gcc/arm-none-eabi/10.3.1/thumb/v6-m/nofp\libgcc.a(_dvmd_tls.o)
 .text          0x00000000        0x0 d:/pico/armcc/10 2021.10/bin/../lib/gcc/arm-none-eabi/10.3.1/../../../../arm-none-eabi/lib/thumb/v6-m/nofp\libg.a(lib_a-calloc.o)
 .data          0x00000000        0x0 d:/pico/armcc/10 2021.10/bin/../lib/gcc/arm-none-eabi/10.3.1/../../../../arm-none-eabi/lib/thumb/v6-m/nofp\libg.a(lib_a-calloc.o)
 .bss           0x00000000        0x0 d:/pico/armcc/10 2021.10/bin/../lib/gcc/arm-none-eabi/10.3.1/../../../../arm-none-eabi/lib/thumb/v6-m/nofp\libg.a(lib_a-calloc.o)
 .text.calloc   0x00000000       0x18 d:/pico/armcc/10 2021.10/bin/../lib/gcc/arm-none-eabi/10.3.1/../../../../arm-none-eabi/lib/thumb/v6-m/nofp\libg.a(lib_a-calloc.o)
 .debug_frame   0x00000000       0x28 d:/pico/armcc/10 2021.10/bin/../lib/gcc/arm-none-eabi/10.3.1/../../../../arm-none-eabi/lib/thumb/v6-m/nofp\libg.a(lib_a-calloc.o)
 .ARM.attributes
                0x00000000       0x2c d:/pico/armcc/10 2021.10/bin/../lib/gcc/arm-none-eabi/10.3.1/../../../../arm-none-eabi/lib/thumb/v6-m/nofp\libg.a(lib_a-calloc.o)
 .text          0x00000000        0x0 d:/pico/armcc/10 2021.10/bin/../lib/gcc/arm-none-eabi/10.3.1/../../../../arm-none-eabi/lib/thumb/v6-m/nofp\libg.a(lib_a-callocr.o)
 .data          0x00000000        0x0 d:/pico/armcc/10 2021.10/bin/../lib/gcc/arm-none-eabi/10.3.1/../../../../arm-none-eabi/lib/thumb/v6-m/nofp\libg.a(lib_a-callocr.o)
 .bss           0x00000000        0x0 d:/pico/armcc/10 2021.10/bin/../lib/gcc/arm-none-eabi/10.3.1/../../../../arm-none-eabi/lib/thumb/v6-m/nofp\libg.a(lib_a-callocr.o)
 .text._calloc_r
                0x00000000       0x9c d:/pico/armcc/10 2021.10/bin/../lib/gcc/arm-none-eabi/10.3.1/../../../../arm-none-eabi/lib/thumb/v6-m/nofp\libg.a(lib_a-callocr.o)
 .debug_frame   0x00000000       0x2c d:/pico/armcc/10 2021.10/bin/../lib/gcc/arm-none-eabi/10.3.1/../../../../arm-none-eabi/lib/thumb/v6-m/nofp\libg.a(lib_a-callocr.o)
 .ARM.attributes
                0x00000000       0x2c d:/pico/armcc/10 2021.10/bin/../lib/gcc/arm-none-eabi/10.3.1/../../../../arm-none-eabi/lib/thumb/v6-m/nofp\libg.a(lib_a-callocr.o)
 .text          0x00000000        0x0 d:/pico/armcc/10 2021.10/bin/../lib/gcc/arm-none-eabi/10.3.1/../../../../arm-none-eabi/lib/thumb/v6-m/nofp\libg.a(lib_a-ctype_.o)
 .data          0x00000000        0x0 d:/pico/armcc/10 2021.10/bin/../lib/gcc/arm-none-eabi/10.3.1/../../../../arm-none-eabi/lib/thumb/v6-m/nofp\libg.a(lib_a-ctype_.o)
 .bss           0x00000000        0x0 d:/pico/armcc/10 2021.10/bin/../lib/gcc/arm-none-eabi/10.3.1/../../../../arm-none-eabi/lib/thumb/v6-m/nofp\libg.a(lib_a-ctype_.o)
 .rodata._ctype_
                0x00000000      0x101 d:/pico/armcc/10 2021.10/bin/../lib/gcc/arm-none-eabi/10.3.1/../../../../arm-none-eabi/lib/thumb/v6-m/nofp\libg.a(lib_a-ctype_.o)
 .ARM.attributes
                0x00000000       0x2c d:/pico/armcc/10 2021.10/bin/../lib/gcc/arm-none-eabi/10.3.1/../../../../arm-none-eabi/lib/thumb/v6-m/nofp\libg.a(lib_a-ctype_.o)
 .text          0x00000000        0x0 d:/pico/armcc/10 2021.10/bin/../lib/gcc/arm-none-eabi/10.3.1/../../../../arm-none-eabi/lib/thumb/v6-m/nofp\libg.a(lib_a-errno.o)
 .data          0x00000000        0x0 d:/pico/armcc/10 2021.10/bin/../lib/gcc/arm-none-eabi/10.3.1/../../../../arm-none-eabi/lib/thumb/v6-m/nofp\libg.a(lib_a-errno.o)
 .bss           0x00000000        0x0 d:/pico/armcc/10 2021.10/bin/../lib/gcc/arm-none-eabi/10.3.1/../../../../arm-none-eabi/lib/thumb/v6-m/nofp\libg.a(lib_a-errno.o)
 .text.__errno  0x00000000        0xc d:/pico/armcc/10 2021.10/bin/../lib/gcc/arm-none-eabi/10.3.1/../../../../arm-none-eabi/lib/thumb/v6-m/nofp\libg.a(lib_a-errno.o)
 .debug_frame   0x00000000       0x20 d:/pico/armcc/10 2021.10/bin/../lib/gcc/arm-none-eabi/10.3.1/../../../../arm-none-eabi/lib/thumb/v6-m/nofp\libg.a(lib_a-errno.o)
 .ARM.attributes
                0x00000000       0x2c d:/pico/armcc/10 2021.10/bin/../lib/gcc/arm-none-eabi/10.3.1/../../../../arm-none-eabi/lib/thumb/v6-m/nofp\libg.a(lib_a-errno.o)
 .text          0x00000000        0x0 d:/pico/armcc/10 2021.10/bin/../lib/gcc/arm-none-eabi/10.3.1/../../../../arm-none-eabi/lib/thumb/v6-m/nofp\libg.a(lib_a-impure.o)
 .data          0x00000000        0x0 d:/pico/armcc/10 2021.10/bin/../lib/gcc/arm-none-eabi/10.3.1/../../../../arm-none-eabi/lib/thumb/v6-m/nofp\libg.a(lib_a-impure.o)
 .bss           0x00000000        0x0 d:/pico/armcc/10 2021.10/bin/../lib/gcc/arm-none-eabi/10.3.1/../../../../arm-none-eabi/lib/thumb/v6-m/nofp\libg.a(lib_a-impure.o)
 .data._impure_ptr
                0x00000000        0x4 d:/pico/armcc/10 2021.10/bin/../lib/gcc/arm-none-eabi/10.3.1/../../../../arm-none-eabi/lib/thumb/v6-m/nofp\libg.a(lib_a-impure.o)
 .data.impure_data
                0x00000000      0x428 d:/pico/armcc/10 2021.10/bin/../lib/gcc/arm-none-eabi/10.3.1/../../../../arm-none-eabi/lib/thumb/v6-m/nofp\libg.a(lib_a-impure.o)
 .rodata._global_impure_ptr
                0x00000000        0x4 d:/pico/armcc/10 2021.10/bin/../lib/gcc/arm-none-eabi/10.3.1/../../../../arm-none-eabi/lib/thumb/v6-m/nofp\libg.a(lib_a-impure.o)
 .ARM.attributes
                0x00000000       0x2c d:/pico/armcc/10 2021.10/bin/../lib/gcc/arm-none-eabi/10.3.1/../../../../arm-none-eabi/lib/thumb/v6-m/nofp\libg.a(lib_a-impure.o)
 .text          0x00000000        0x0 d:/pico/armcc/10 2021.10/bin/../lib/gcc/arm-none-eabi/10.3.1/../../../../arm-none-eabi/lib/thumb/v6-m/nofp\libg.a(lib_a-init.o)
 .data          0x00000000        0x0 d:/pico/armcc/10 2021.10/bin/../lib/gcc/arm-none-eabi/10.3.1/../../../../arm-none-eabi/lib/thumb/v6-m/nofp\libg.a(lib_a-init.o)
 .bss           0x00000000        0x0 d:/pico/armcc/10 2021.10/bin/../lib/gcc/arm-none-eabi/10.3.1/../../../../arm-none-eabi/lib/thumb/v6-m/nofp\libg.a(lib_a-init.o)
 .text.__libc_init_array
                0x00000000       0x44 d:/pico/armcc/10 2021.10/bin/../lib/gcc/arm-none-eabi/10.3.1/../../../../arm-none-eabi/lib/thumb/v6-m/nofp\libg.a(lib_a-init.o)
 .debug_frame   0x00000000       0x2c d:/pico/armcc/10 2021.10/bin/../lib/gcc/arm-none-eabi/10.3.1/../../../../arm-none-eabi/lib/thumb/v6-m/nofp\libg.a(lib_a-init.o)
 .ARM.attributes
                0x00000000       0x2c d:/pico/armcc/10 2021.10/bin/../lib/gcc/arm-none-eabi/10.3.1/../../../../arm-none-eabi/lib/thumb/v6-m/nofp\libg.a(lib_a-init.o)
 .text          0x00000000        0x0 d:/pico/armcc/10 2021.10/bin/../lib/gcc/arm-none-eabi/10.3.1/../../../../arm-none-eabi/lib/thumb/v6-m/nofp\libg.a(lib_a-malloc.o)
 .data          0x00000000        0x0 d:/pico/armcc/10 2021.10/bin/../lib/gcc/arm-none-eabi/10.3.1/../../../../arm-none-eabi/lib/thumb/v6-m/nofp\libg.a(lib_a-malloc.o)
 .bss           0x00000000        0x0 d:/pico/armcc/10 2021.10/bin/../lib/gcc/arm-none-eabi/10.3.1/../../../../arm-none-eabi/lib/thumb/v6-m/nofp\libg.a(lib_a-malloc.o)
 .text.malloc   0x00000000       0x14 d:/pico/armcc/10 2021.10/bin/../lib/gcc/arm-none-eabi/10.3.1/../../../../arm-none-eabi/lib/thumb/v6-m/nofp\libg.a(lib_a-malloc.o)
 .text.free     0x00000000       0x14 d:/pico/armcc/10 2021.10/bin/../lib/gcc/arm-none-eabi/10.3.1/../../../../arm-none-eabi/lib/thumb/v6-m/nofp\libg.a(lib_a-malloc.o)
 .debug_frame   0x00000000       0x40 d:/pico/armcc/10 2021.10/bin/../lib/gcc/arm-none-eabi/10.3.1/../../../../arm-none-eabi/lib/thumb/v6-m/nofp\libg.a(lib_a-malloc.o)
 .ARM.attributes
                0x00000000       0x2c d:/pico/armcc/10 2021.10/bin/../lib/gcc/arm-none-eabi/10.3.1/../../../../arm-none-eabi/lib/thumb/v6-m/nofp\libg.a(lib_a-malloc.o)
 .text          0x00000000        0x0 d:/pico/armcc/10 2021.10/bin/../lib/gcc/arm-none-eabi/10.3.1/../../../../arm-none-eabi/lib/thumb/v6-m/nofp\libg.a(lib_a-mallocr.o)
 .data          0x00000000        0x0 d:/pico/armcc/10 2021.10/bin/../lib/gcc/arm-none-eabi/10.3.1/../../../../arm-none-eabi/lib/thumb/v6-m/nofp\libg.a(lib_a-mallocr.o)
 .bss           0x00000000        0x0 d:/pico/armcc/10 2021.10/bin/../lib/gcc/arm-none-eabi/10.3.1/../../../../arm-none-eabi/lib/thumb/v6-m/nofp\libg.a(lib_a-mallocr.o)
 .text._malloc_r
                0x00000000      0x584 d:/pico/armcc/10 2021.10/bin/../lib/gcc/arm-none-eabi/10.3.1/../../../../arm-none-eabi/lib/thumb/v6-m/nofp\libg.a(lib_a-mallocr.o)
 .bss.__malloc_current_mallinfo
                0x00000000       0x28 d:/pico/armcc/10 2021.10/bin/../lib/gcc/arm-none-eabi/10.3.1/../../../../arm-none-eabi/lib/thumb/v6-m/nofp\libg.a(lib_a-mallocr.o)
 .bss.__malloc_max_sbrked_mem
                0x00000000        0x4 d:/pico/armcc/10 2021.10/bin/../lib/gcc/arm-none-eabi/10.3.1/../../../../arm-none-eabi/lib/thumb/v6-m/nofp\libg.a(lib_a-mallocr.o)
 .bss.__malloc_max_total_mem
                0x00000000        0x4 d:/pico/armcc/10 2021.10/bin/../lib/gcc/arm-none-eabi/10.3.1/../../../../arm-none-eabi/lib/thumb/v6-m/nofp\libg.a(lib_a-mallocr.o)
 .bss.__malloc_top_pad
                0x00000000        0x4 d:/pico/armcc/10 2021.10/bin/../lib/gcc/arm-none-eabi/10.3.1/../../../../arm-none-eabi/lib/thumb/v6-m/nofp\libg.a(lib_a-mallocr.o)
 .data.__malloc_av_
                0x00000000      0x408 d:/pico/armcc/10 2021.10/bin/../lib/gcc/arm-none-eabi/10.3.1/../../../../arm-none-eabi/lib/thumb/v6-m/nofp\libg.a(lib_a-mallocr.o)
 .data.__malloc_sbrk_base
                0x00000000        0x4 d:/pico/armcc/10 2021.10/bin/../lib/gcc/arm-none-eabi/10.3.1/../../../../arm-none-eabi/lib/thumb/v6-m/nofp\libg.a(lib_a-mallocr.o)
 .data.__malloc_trim_threshold
                0x00000000        0x4 d:/pico/armcc/10 2021.10/bin/../lib/gcc/arm-none-eabi/10.3.1/../../../../arm-none-eabi/lib/thumb/v6-m/nofp\libg.a(lib_a-mallocr.o)
 .debug_frame   0x00000000       0x3c d:/pico/armcc/10 2021.10/bin/../lib/gcc/arm-none-eabi/10.3.1/../../../../arm-none-eabi/lib/thumb/v6-m/nofp\libg.a(lib_a-mallocr.o)
 .ARM.attributes
                0x00000000       0x2c d:/pico/armcc/10 2021.10/bin/../lib/gcc/arm-none-eabi/10.3.1/../../../../arm-none-eabi/lib/thumb/v6-m/nofp\libg.a(lib_a-mallocr.o)
 .text          0x00000000        0x0 d:/pico/armcc/10 2021.10/bin/../lib/gcc/arm-none-eabi/10.3.1/../../../../arm-none-eabi/lib/thumb/v6-m/nofp\libg.a(lib_a-mlock.o)
 .data          0x00000000        0x0 d:/pico/armcc/10 2021.10/bin/../lib/gcc/arm-none-eabi/10.3.1/../../../../arm-none-eabi/lib/thumb/v6-m/nofp\libg.a(lib_a-mlock.o)
 .bss           0x00000000        0x0 d:/pico/armcc/10 2021.10/bin/../lib/gcc/arm-none-eabi/10.3.1/../../../../arm-none-eabi/lib/thumb/v6-m/nofp\libg.a(lib_a-mlock.o)
 .text.__malloc_lock
                0x00000000       0x10 d:/pico/armcc/10 2021.10/bin/../lib/gcc/arm-none-eabi/10.3.1/../../../../arm-none-eabi/lib/thumb/v6-m/nofp\libg.a(lib_a-mlock.o)
 .text.__malloc_unlock
                0x00000000       0x10 d:/pico/armcc/10 2021.10/bin/../lib/gcc/arm-none-eabi/10.3.1/../../../../arm-none-eabi/lib/thumb/v6-m/nofp\libg.a(lib_a-mlock.o)
 .debug_frame   0x00000000       0x40 d:/pico/armcc/10 2021.10/bin/../lib/gcc/arm-none-eabi/10.3.1/../../../../arm-none-eabi/lib/thumb/v6-m/nofp\libg.a(lib_a-mlock.o)
 .ARM.attributes
                0x00000000       0x2c d:/pico/armcc/10 2021.10/bin/../lib/gcc/arm-none-eabi/10.3.1/../../../../arm-none-eabi/lib/thumb/v6-m/nofp\libg.a(lib_a-mlock.o)
 .text          0x00000000        0x0 d:/pico/armcc/10 2021.10/bin/../lib/gcc/arm-none-eabi/10.3.1/../../../../arm-none-eabi/lib/thumb/v6-m/nofp\libg.a(lib_a-realloc.o)
 .data          0x00000000        0x0 d:/pico/armcc/10 2021.10/bin/../lib/gcc/arm-none-eabi/10.3.1/../../../../arm-none-eabi/lib/thumb/v6-m/nofp\libg.a(lib_a-realloc.o)
 .bss           0x00000000        0x0 d:/pico/armcc/10 2021.10/bin/../lib/gcc/arm-none-eabi/10.3.1/../../../../arm-none-eabi/lib/thumb/v6-m/nofp\libg.a(lib_a-realloc.o)
 .text.realloc  0x00000000       0x18 d:/pico/armcc/10 2021.10/bin/../lib/gcc/arm-none-eabi/10.3.1/../../../../arm-none-eabi/lib/thumb/v6-m/nofp\libg.a(lib_a-realloc.o)
 .debug_frame   0x00000000       0x28 d:/pico/armcc/10 2021.10/bin/../lib/gcc/arm-none-eabi/10.3.1/../../../../arm-none-eabi/lib/thumb/v6-m/nofp\libg.a(lib_a-realloc.o)
 .ARM.attributes
                0x00000000       0x2c d:/pico/armcc/10 2021.10/bin/../lib/gcc/arm-none-eabi/10.3.1/../../../../arm-none-eabi/lib/thumb/v6-m/nofp\libg.a(lib_a-realloc.o)
 .text          0x00000000        0x0 d:/pico/armcc/10 2021.10/bin/../lib/gcc/arm-none-eabi/10.3.1/../../../../arm-none-eabi/lib/thumb/v6-m/nofp\libg.a(lib_a-reallocr.o)
 .data          0x00000000        0x0 d:/pico/armcc/10 2021.10/bin/../lib/gcc/arm-none-eabi/10.3.1/../../../../arm-none-eabi/lib/thumb/v6-m/nofp\libg.a(lib_a-reallocr.o)
 .bss           0x00000000        0x0 d:/pico/armcc/10 2021.10/bin/../lib/gcc/arm-none-eabi/10.3.1/../../../../arm-none-eabi/lib/thumb/v6-m/nofp\libg.a(lib_a-reallocr.o)
 .text._realloc_r
                0x00000000      0x354 d:/pico/armcc/10 2021.10/bin/../lib/gcc/arm-none-eabi/10.3.1/../../../../arm-none-eabi/lib/thumb/v6-m/nofp\libg.a(lib_a-reallocr.o)
 .debug_frame   0x00000000       0x3c d:/pico/armcc/10 2021.10/bin/../lib/gcc/arm-none-eabi/10.3.1/../../../../arm-none-eabi/lib/thumb/v6-m/nofp\libg.a(lib_a-reallocr.o)
 .ARM.attributes
                0x00000000       0x2c d:/pico/armcc/10 2021.10/bin/../lib/gcc/arm-none-eabi/10.3.1/../../../../arm-none-eabi/lib/thumb/v6-m/nofp\libg.a(lib_a-reallocr.o)
 .text          0x00000000        0x0 d:/pico/armcc/10 2021.10/bin/../lib/gcc/arm-none-eabi/10.3.1/../../../../arm-none-eabi/lib/thumb/v6-m/nofp\libg.a(lib_a-sbrkr.o)
 .data          0x00000000        0x0 d:/pico/armcc/10 2021.10/bin/../lib/gcc/arm-none-eabi/10.3.1/../../../../arm-none-eabi/lib/thumb/v6-m/nofp\libg.a(lib_a-sbrkr.o)
 .bss           0x00000000        0x0 d:/pico/armcc/10 2021.10/bin/../lib/gcc/arm-none-eabi/10.3.1/../../../../arm-none-eabi/lib/thumb/v6-m/nofp\libg.a(lib_a-sbrkr.o)
 .text._sbrk_r  0x00000000       0x24 d:/pico/armcc/10 2021.10/bin/../lib/gcc/arm-none-eabi/10.3.1/../../../../arm-none-eabi/lib/thumb/v6-m/nofp\libg.a(lib_a-sbrkr.o)
 .debug_frame   0x00000000       0x2c d:/pico/armcc/10 2021.10/bin/../lib/gcc/arm-none-eabi/10.3.1/../../../../arm-none-eabi/lib/thumb/v6-m/nofp\libg.a(lib_a-sbrkr.o)
 .ARM.attributes
                0x00000000       0x2c d:/pico/armcc/10 2021.10/bin/../lib/gcc/arm-none-eabi/10.3.1/../../../../arm-none-eabi/lib/thumb/v6-m/nofp\libg.a(lib_a-sbrkr.o)
 .text          0x00000000        0x0 d:/pico/armcc/10 2021.10/bin/../lib/gcc/arm-none-eabi/10.3.1/../../../../arm-none-eabi/lib/thumb/v6-m/nofp\libg.a(lib_a-strlen-stub.o)
 .data          0x00000000        0x0 d:/pico/armcc/10 2021.10/bin/../lib/gcc/arm-none-eabi/10.3.1/../../../../arm-none-eabi/lib/thumb/v6-m/nofp\libg.a(lib_a-strlen-stub.o)
 .bss           0x00000000        0x0 d:/pico/armcc/10 2021.10/bin/../lib/gcc/arm-none-eabi/10.3.1/../../../../arm-none-eabi/lib/thumb/v6-m/nofp\libg.a(lib_a-strlen-stub.o)
 .text          0x00000000        0x0 d:/pico/armcc/10 2021.10/bin/../lib/gcc/arm-none-eabi/10.3.1/../../../../arm-none-eabi/lib/thumb/v6-m/nofp\libg.a(lib_a-freer.o)
 .data          0x00000000        0x0 d:/pico/armcc/10 2021.10/bin/../lib/gcc/arm-none-eabi/10.3.1/../../../../arm-none-eabi/lib/thumb/v6-m/nofp\libg.a(lib_a-freer.o)
 .bss           0x00000000        0x0 d:/pico/armcc/10 2021.10/bin/../lib/gcc/arm-none-eabi/10.3.1/../../../../arm-none-eabi/lib/thumb/v6-m/nofp\libg.a(lib_a-freer.o)
 .text._malloc_trim_r
                0x00000000       0x9c d:/pico/armcc/10 2021.10/bin/../lib/gcc/arm-none-eabi/10.3.1/../../../../arm-none-eabi/lib/thumb/v6-m/nofp\libg.a(lib_a-freer.o)
 .text._free_r  0x00000000      0x1c4 d:/pico/armcc/10 2021.10/bin/../lib/gcc/arm-none-eabi/10.3.1/../../../../arm-none-eabi/lib/thumb/v6-m/nofp\libg.a(lib_a-freer.o)
 .debug_frame   0x00000000       0x54 d:/pico/armcc/10 2021.10/bin/../lib/gcc/arm-none-eabi/10.3.1/../../../../arm-none-eabi/lib/thumb/v6-m/nofp\libg.a(lib_a-freer.o)
 .ARM.attributes
                0x00000000       0x2c d:/pico/armcc/10 2021.10/bin/../lib/gcc/arm-none-eabi/10.3.1/../../../../arm-none-eabi/lib/thumb/v6-m/nofp\libg.a(lib_a-freer.o)
 .text          0x00000000        0x0 d:/pico/armcc/10 2021.10/bin/../lib/gcc/arm-none-eabi/10.3.1/../../../../arm-none-eabi/lib/thumb/v6-m/nofp\libg.a(lib_a-lock.o)
 .data          0x00000000        0x0 d:/pico/armcc/10 2021.10/bin/../lib/gcc/arm-none-eabi/10.3.1/../../../../arm-none-eabi/lib/thumb/v6-m/nofp\libg.a(lib_a-lock.o)
 .bss           0x00000000        0x0 d:/pico/armcc/10 2021.10/bin/../lib/gcc/arm-none-eabi/10.3.1/../../../../arm-none-eabi/lib/thumb/v6-m/nofp\libg.a(lib_a-lock.o)
 .text.__retarget_lock_init
                0x00000000        0x4 d:/pico/armcc/10 2021.10/bin/../lib/gcc/arm-none-eabi/10.3.1/../../../../arm-none-eabi/lib/thumb/v6-m/nofp\libg.a(lib_a-lock.o)
 .text.__retarget_lock_init_recursive
                0x00000000        0x4 d:/pico/armcc/10 2021.10/bin/../lib/gcc/arm-none-eabi/10.3.1/../../../../arm-none-eabi/lib/thumb/v6-m/nofp\libg.a(lib_a-lock.o)
 .text.__retarget_lock_close
                0x00000000        0x4 d:/pico/armcc/10 2021.10/bin/../lib/gcc/arm-none-eabi/10.3.1/../../../../arm-none-eabi/lib/thumb/v6-m/nofp\libg.a(lib_a-lock.o)
 .text.__retarget_lock_close_recursive
                0x00000000        0x4 d:/pico/armcc/10 2021.10/bin/../lib/gcc/arm-none-eabi/10.3.1/../../../../arm-none-eabi/lib/thumb/v6-m/nofp\libg.a(lib_a-lock.o)
 .text.__retarget_lock_acquire
                0x00000000        0x4 d:/pico/armcc/10 2021.10/bin/../lib/gcc/arm-none-eabi/10.3.1/../../../../arm-none-eabi/lib/thumb/v6-m/nofp\libg.a(lib_a-lock.o)
 .text.__retarget_lock_acquire_recursive
                0x00000000        0x4 d:/pico/armcc/10 2021.10/bin/../lib/gcc/arm-none-eabi/10.3.1/../../../../arm-none-eabi/lib/thumb/v6-m/nofp\libg.a(lib_a-lock.o)
 .text.__retarget_lock_try_acquire
                0x00000000        0x4 d:/pico/armcc/10 2021.10/bin/../lib/gcc/arm-none-eabi/10.3.1/../../../../arm-none-eabi/lib/thumb/v6-m/nofp\libg.a(lib_a-lock.o)
 .text.__retarget_lock_try_acquire_recursive
                0x00000000        0x4 d:/pico/armcc/10 2021.10/bin/../lib/gcc/arm-none-eabi/10.3.1/../../../../arm-none-eabi/lib/thumb/v6-m/nofp\libg.a(lib_a-lock.o)
 .text.__retarget_lock_release
                0x00000000        0x4 d:/pico/armcc/10 2021.10/bin/../lib/gcc/arm-none-eabi/10.3.1/../../../../arm-none-eabi/lib/thumb/v6-m/nofp\libg.a(lib_a-lock.o)
 .text.__retarget_lock_release_recursive
                0x00000000        0x4 d:/pico/armcc/10 2021.10/bin/../lib/gcc/arm-none-eabi/10.3.1/../../../../arm-none-eabi/lib/thumb/v6-m/nofp\libg.a(lib_a-lock.o)
 .bss.__lock___arc4random_mutex
                0x00000000        0x1 d:/pico/armcc/10 2021.10/bin/../lib/gcc/arm-none-eabi/10.3.1/../../../../arm-none-eabi/lib/thumb/v6-m/nofp\libg.a(lib_a-lock.o)
 .bss.__lock___at_quick_exit_mutex
                0x00000000        0x1 d:/pico/armcc/10 2021.10/bin/../lib/gcc/arm-none-eabi/10.3.1/../../../../arm-none-eabi/lib/thumb/v6-m/nofp\libg.a(lib_a-lock.o)
 .bss.__lock___atexit_recursive_mutex
                0x00000000        0x1 d:/pico/armcc/10 2021.10/bin/../lib/gcc/arm-none-eabi/10.3.1/../../../../arm-none-eabi/lib/thumb/v6-m/nofp\libg.a(lib_a-lock.o)
 .bss.__lock___dd_hash_mutex
                0x00000000        0x1 d:/pico/armcc/10 2021.10/bin/../lib/gcc/arm-none-eabi/10.3.1/../../../../arm-none-eabi/lib/thumb/v6-m/nofp\libg.a(lib_a-lock.o)
 .bss.__lock___env_recursive_mutex
                0x00000000        0x1 d:/pico/armcc/10 2021.10/bin/../lib/gcc/arm-none-eabi/10.3.1/../../../../arm-none-eabi/lib/thumb/v6-m/nofp\libg.a(lib_a-lock.o)
 .bss.__lock___malloc_recursive_mutex
                0x00000000        0x1 d:/pico/armcc/10 2021.10/bin/../lib/gcc/arm-none-eabi/10.3.1/../../../../arm-none-eabi/lib/thumb/v6-m/nofp\libg.a(lib_a-lock.o)
 .bss.__lock___sfp_recursive_mutex
                0x00000000        0x1 d:/pico/armcc/10 2021.10/bin/../lib/gcc/arm-none-eabi/10.3.1/../../../../arm-none-eabi/lib/thumb/v6-m/nofp\libg.a(lib_a-lock.o)
 .bss.__lock___sinit_recursive_mutex
                0x00000000        0x1 d:/pico/armcc/10 2021.10/bin/../lib/gcc/arm-none-eabi/10.3.1/../../../../arm-none-eabi/lib/thumb/v6-m/nofp\libg.a(lib_a-lock.o)
 .bss.__lock___tz_mutex
                0x00000000        0x1 d:/pico/armcc/10 2021.10/bin/../lib/gcc/arm-none-eabi/10.3.1/../../../../arm-none-eabi/lib/thumb/v6-m/nofp\libg.a(lib_a-lock.o)
 .debug_frame   0x00000000       0xb0 d:/pico/armcc/10 2021.10/bin/../lib/gcc/arm-none-eabi/10.3.1/../../../../arm-none-eabi/lib/thumb/v6-m/nofp\libg.a(lib_a-lock.o)
 .ARM.attributes
                0x00000000       0x2c d:/pico/armcc/10 2021.10/bin/../lib/gcc/arm-none-eabi/10.3.1/../../../../arm-none-eabi/lib/thumb/v6-m/nofp\libg.a(lib_a-lock.o)
 .text          0x00000000        0x0 d:/pico/armcc/10 2021.10/bin/../lib/gcc/arm-none-eabi/10.3.1/../../../../arm-none-eabi/lib/thumb/v6-m/nofp\libg.a(lib_a-memmove.o)
 .data          0x00000000        0x0 d:/pico/armcc/10 2021.10/bin/../lib/gcc/arm-none-eabi/10.3.1/../../../../arm-none-eabi/lib/thumb/v6-m/nofp\libg.a(lib_a-memmove.o)
 .bss           0x00000000        0x0 d:/pico/armcc/10 2021.10/bin/../lib/gcc/arm-none-eabi/10.3.1/../../../../arm-none-eabi/lib/thumb/v6-m/nofp\libg.a(lib_a-memmove.o)
 .text.memmove  0x00000000       0xac d:/pico/armcc/10 2021.10/bin/../lib/gcc/arm-none-eabi/10.3.1/../../../../arm-none-eabi/lib/thumb/v6-m/nofp\libg.a(lib_a-memmove.o)
 .debug_frame   0x00000000       0x30 d:/pico/armcc/10 2021.10/bin/../lib/gcc/arm-none-eabi/10.3.1/../../../../arm-none-eabi/lib/thumb/v6-m/nofp\libg.a(lib_a-memmove.o)
 .ARM.attributes
                0x00000000       0x2c d:/pico/armcc/10 2021.10/bin/../lib/gcc/arm-none-eabi/10.3.1/../../../../arm-none-eabi/lib/thumb/v6-m/nofp\libg.a(lib_a-memmove.o)
 .text          0x00000000        0x0 d:/pico/armcc/10 2021.10/bin/../lib/gcc/arm-none-eabi/10.3.1/../../../../arm-none-eabi/lib/thumb/v6-m/nofp\libg.a(lib_a-reent.o)
 .data          0x00000000        0x0 d:/pico/armcc/10 2021.10/bin/../lib/gcc/arm-none-eabi/10.3.1/../../../../arm-none-eabi/lib/thumb/v6-m/nofp\libg.a(lib_a-reent.o)
 .bss           0x00000000        0x0 d:/pico/armcc/10 2021.10/bin/../lib/gcc/arm-none-eabi/10.3.1/../../../../arm-none-eabi/lib/thumb/v6-m/nofp\libg.a(lib_a-reent.o)
 .text.cleanup_glue
                0x00000000       0x50 d:/pico/armcc/10 2021.10/bin/../lib/gcc/arm-none-eabi/10.3.1/../../../../arm-none-eabi/lib/thumb/v6-m/nofp\libg.a(lib_a-reent.o)
 .text._reclaim_reent
                0x00000000       0xa0 d:/pico/armcc/10 2021.10/bin/../lib/gcc/arm-none-eabi/10.3.1/../../../../arm-none-eabi/lib/thumb/v6-m/nofp\libg.a(lib_a-reent.o)
 .bss.errno     0x00000000        0x4 d:/pico/armcc/10 2021.10/bin/../lib/gcc/arm-none-eabi/10.3.1/../../../../arm-none-eabi/lib/thumb/v6-m/nofp\libg.a(lib_a-reent.o)
 .debug_frame   0x00000000       0x50 d:/pico/armcc/10 2021.10/bin/../lib/gcc/arm-none-eabi/10.3.1/../../../../arm-none-eabi/lib/thumb/v6-m/nofp\libg.a(lib_a-reent.o)
 .ARM.attributes
                0x00000000       0x2c d:/pico/armcc/10 2021.10/bin/../lib/gcc/arm-none-eabi/10.3.1/../../../../arm-none-eabi/lib/thumb/v6-m/nofp\libg.a(lib_a-reent.o)
 .text          0x00000000        0x0 d:/pico/armcc/10 2021.10/bin/../lib/gcc/arm-none-eabi/10.3.1/thumb/v6-m/nofp/crtend.o
 .data          0x00000000        0x0 d:/pico/armcc/10 2021.10/bin/../lib/gcc/arm-none-eabi/10.3.1/thumb/v6-m/nofp/crtend.o
 .bss           0x00000000        0x0 d:/pico/armcc/10 2021.10/bin/../lib/gcc/arm-none-eabi/10.3.1/thumb/v6-m/nofp/crtend.o
 .rodata        0x00000000       0x24 d:/pico/armcc/10 2021.10/bin/../lib/gcc/arm-none-eabi/10.3.1/thumb/v6-m/nofp/crtend.o
 .eh_frame      0x00000000        0x4 d:/pico/armcc/10 2021.10/bin/../lib/gcc/arm-none-eabi/10.3.1/thumb/v6-m/nofp/crtend.o
 .ARM.attributes
                0x00000000       0x2c d:/pico/armcc/10 2021.10/bin/../lib/gcc/arm-none-eabi/10.3.1/thumb/v6-m/nofp/crtend.o
 .text          0x00000000        0x0 d:/pico/armcc/10 2021.10/bin/../lib/gcc/arm-none-eabi/10.3.1/thumb/v6-m/nofp/crtn.o
 .data          0x00000000        0x0 d:/pico/armcc/10 2021.10/bin/../lib/gcc/arm-none-eabi/10.3.1/thumb/v6-m/nofp/crtn.o
 .bss           0x00000000        0x0 d:/pico/armcc/10 2021.10/bin/../lib/gcc/arm-none-eabi/10.3.1/thumb/v6-m/nofp/crtn.o
 .init          0x00000000        0x8 d:/pico/armcc/10 2021.10/bin/../lib/gcc/arm-none-eabi/10.3.1/thumb/v6-m/nofp/crtn.o
 .fini          0x00000000        0x8 d:/pico/armcc/10 2021.10/bin/../lib/gcc/arm-none-eabi/10.3.1/thumb/v6-m/nofp/crtn.o
 .ARM.attributes
                0x00000000       0x1e d:/pico/armcc/10 2021.10/bin/../lib/gcc/arm-none-eabi/10.3.1/thumb/v6-m/nofp/crtn.o

Memory Configuration

Name             Origin             Length             Attributes
FLASH            0x10000000         0x00200000         xr
RAM              0x20000000         0x00040000         xrw
SCRATCH_X        0x20040000         0x00001000         xrw
SCRATCH_Y        0x20041000         0x00001000         xrw
*default*        0x00000000         0xffffffff

Linker script and memory map

LOAD d:/pico/armcc/10 2021.10/bin/../lib/gcc/arm-none-eabi/10.3.1/thumb/v6-m/nofp/crti.o
LOAD d:/pico/armcc/10 2021.10/bin/../lib/gcc/arm-none-eabi/10.3.1/thumb/v6-m/nofp/crtbegin.o
LOAD d:/pico/armcc/10 2021.10/bin/../lib/gcc/arm-none-eabi/10.3.1/../../../../arm-none-eabi/lib/thumb/v6-m/nofp/crt0.o

.flash_begin    0x10000000        0x0
                0x10000000                __flash_binary_start = .

.boot2          0x10000000      0x100
                0x10000000                __boot2_start__ = .
 *(.boot2)
 .boot2         0x10000000      0x100 C:\Users\ployy\AppData\Local\Temp\ccERXrNO.o
                0x10000100                __boot2_end__ = .
                0x00000001                ASSERT (((__boot2_end__ - __boot2_start__) == 0x100), ERROR: Pico second stage bootloader must be 256 bytes in size)

.text           0x10000100     0xa2b8
                0x10000100                __logical_binary_start = .
 *(.vectors)
 .vectors       0x10000100       0xd4 CMakeFiles/ex1_create_task.dir/D_/pico/pico-sdk/src/rp2_common/pico_standard_link/crt0.S.obj
                0x10000100                __VECTOR_TABLE
                0x10000100                __vectors
                0x100001c0                isr_invalid
                0x100001c0                __default_isrs_start
                0x100001c2                isr_nmi
                0x100001c4                isr_hardfault
                0x100001c6                isr_svcall
                0x100001c8                isr_pendsv
                0x100001ca                isr_systick
                0x100001cc                isr_irq23
                0x100001cc                isr_irq18
                0x100001cc                isr_irq11
                0x100001cc                isr_irq28
                0x100001cc                isr_irq19
                0x100001cc                isr_irq0
                0x100001cc                isr_irq6
                0x100001cc                isr_irq5
                0x100001cc                isr_irq12
                0x100001cc                isr_irq22
                0x100001cc                isr_irq31
                0x100001cc                isr_irq17
                0x100001cc                isr_irq27
                0x100001cc                isr_irq30
                0x100001cc                isr_irq2
                0x100001cc                isr_irq10
                0x100001cc                isr_irq8
                0x100001cc                isr_irq24
                0x100001cc                isr_irq1
                0x100001cc                isr_irq7
                0x100001cc                isr_irq21
                0x100001cc                isr_irq20
                0x100001cc                isr_irq15
                0x100001cc                isr_irq25
                0x100001cc                isr_irq13
                0x100001cc                __unhandled_user_irq
                0x100001cc                isr_irq4
                0x100001cc                isr_irq16
                0x100001cc                isr_irq29
                0x100001cc                isr_irq26
                0x100001cc                __default_isrs_end
                0x100001cc                isr_irq3
                0x100001cc                isr_irq14
                0x100001cc                isr_irq9
                0x100001d2                unhandled_user_irq_num_in_r0
 *(.binary_info_header)
 .binary_info_header
                0x100001d4       0x14 CMakeFiles/ex1_create_task.dir/D_/pico/pico-sdk/src/rp2_common/pico_standard_link/crt0.S.obj
                0x100001e8                __binary_info_header_end = .
 *(.reset)
 .reset         0x100001e8       0xa8 CMakeFiles/ex1_create_task.dir/D_/pico/pico-sdk/src/rp2_common/pico_standard_link/crt0.S.obj
                0x100001e8                _entry_point
                0x10000266                __get_current_exception
 .reset         0x10000290       0x30 CMakeFiles/ex1_create_task.dir/D_/pico/pico-sdk/src/rp2_common/pico_standard_link/binary_info.c.obj
 *(.init)
 .init          0x100002c0        0x4 d:/pico/armcc/10 2021.10/bin/../lib/gcc/arm-none-eabi/10.3.1/thumb/v6-m/nofp/crti.o
                0x100002c0                _init
 *(EXCLUDE_FILE(*libm.a: *libc.a:*lib_a-mem*.o *libgcc.a:) .text*)
 .text          0x100002c4       0x48 d:/pico/armcc/10 2021.10/bin/../lib/gcc/arm-none-eabi/10.3.1/thumb/v6-m/nofp/crtbegin.o
 .text.prvSetupHardware
                0x1000030c        0x8 CMakeFiles/ex1_create_task.dir/main.c.obj
 .text.vTask1   0x10000314       0x18 CMakeFiles/ex1_create_task.dir/main.c.obj
                0x10000314                vTask1
 .text.vTask2   0x1000032c       0x18 CMakeFiles/ex1_create_task.dir/main.c.obj
                0x1000032c                vTask2
 .text.main     0x10000344       0x48 CMakeFiles/ex1_create_task.dir/main.c.obj
                0x10000344                main
 .text.vApplicationMallocFailedHook
                0x1000038c       0x1c CMakeFiles/ex1_create_task.dir/main.c.obj
                0x1000038c                vApplicationMallocFailedHook
 .text.vApplicationStackOverflowHook
                0x100003a8       0x1c CMakeFiles/ex1_create_task.dir/main.c.obj
                0x100003a8                vApplicationStackOverflowHook
 .text.vApplicationTickHook
                0x100003c4        0x2 CMakeFiles/ex1_create_task.dir/main.c.obj
                0x100003c4                vApplicationTickHook
 *fill*         0x100003c6        0x2 
 .text.hw_claim_lock
                0x100003c8       0x18 CMakeFiles/ex1_create_task.dir/D_/pico/pico-sdk/src/rp2_common/hardware_claim/claim.c.obj
                0x100003c8                hw_claim_lock
 .text.hw_claim_unlock
                0x100003e0       0x14 CMakeFiles/ex1_create_task.dir/D_/pico/pico-sdk/src/rp2_common/hardware_claim/claim.c.obj
                0x100003e0                hw_claim_unlock
 .text.hw_claim_or_assert
                0x100003f4       0x32 CMakeFiles/ex1_create_task.dir/D_/pico/pico-sdk/src/rp2_common/hardware_claim/claim.c.obj
                0x100003f4                hw_claim_or_assert
 .text.hw_claim_unused_from_range
                0x10000426       0x50 CMakeFiles/ex1_create_task.dir/D_/pico/pico-sdk/src/rp2_common/hardware_claim/claim.c.obj
                0x10000426                hw_claim_unused_from_range
 *fill*         0x10000476        0x2 
 .text.running_on_fpga
                0x10000478       0x14 CMakeFiles/ex1_create_task.dir/D_/pico/pico-sdk/src/rp2_common/pico_platform/platform.c.obj
                0x10000478                running_on_fpga
 .text.spin_locks_reset
                0x1000048c       0x20 CMakeFiles/ex1_create_task.dir/D_/pico/pico-sdk/src/rp2_common/hardware_sync/sync.c.obj
                0x1000048c                spin_locks_reset
 .text.next_striped_spin_lock_num
                0x100004ac       0x1c CMakeFiles/ex1_create_task.dir/D_/pico/pico-sdk/src/rp2_common/hardware_sync/sync.c.obj
                0x100004ac                next_striped_spin_lock_num
 .text.spin_lock_claim
                0x100004c8       0x18 CMakeFiles/ex1_create_task.dir/D_/pico/pico-sdk/src/rp2_common/hardware_sync/sync.c.obj
                0x100004c8                spin_lock_claim
 .text.spin_lock_claim_unused
                0x100004e0       0x20 CMakeFiles/ex1_create_task.dir/D_/pico/pico-sdk/src/rp2_common/hardware_sync/sync.c.obj
                0x100004e0                spin_lock_claim_unused
 .text.set_raw_irq_handler_and_unlock
                0x10000500       0x28 CMakeFiles/ex1_create_task.dir/D_/pico/pico-sdk/src/rp2_common/hardware_irq/irq.c.obj
 .text.make_branch
                0x10000528       0x48 CMakeFiles/ex1_create_task.dir/D_/pico/pico-sdk/src/rp2_common/hardware_irq/irq.c.obj
 .text.insert_branch_and_link
                0x10000570       0x40 CMakeFiles/ex1_create_task.dir/D_/pico/pico-sdk/src/rp2_common/hardware_irq/irq.c.obj
 .text.irq_is_enabled
                0x100005b0       0x18 CMakeFiles/ex1_create_task.dir/D_/pico/pico-sdk/src/rp2_common/hardware_irq/irq.c.obj
                0x100005b0                irq_is_enabled
 .text.irq_set_mask_enabled
                0x100005c8       0x20 CMakeFiles/ex1_create_task.dir/D_/pico/pico-sdk/src/rp2_common/hardware_irq/irq.c.obj
                0x100005c8                irq_set_mask_enabled
 .text.irq_set_enabled
                0x100005e8        0xe CMakeFiles/ex1_create_task.dir/D_/pico/pico-sdk/src/rp2_common/hardware_irq/irq.c.obj
                0x100005e8                irq_set_enabled
 *fill*         0x100005f6        0x2 
 .text.irq_set_pending
                0x100005f8       0x10 CMakeFiles/ex1_create_task.dir/D_/pico/pico-sdk/src/rp2_common/hardware_irq/irq.c.obj
                0x100005f8                irq_set_pending
 .text.irq_get_vtable_handler
                0x10000608       0x10 CMakeFiles/ex1_create_task.dir/D_/pico/pico-sdk/src/rp2_common/hardware_irq/irq.c.obj
                0x10000608                irq_get_vtable_handler
 .text.irq_has_shared_handler
                0x10000618       0x24 CMakeFiles/ex1_create_task.dir/D_/pico/pico-sdk/src/rp2_common/hardware_irq/irq.c.obj
                0x10000618                irq_has_shared_handler
 .text.irq_set_exclusive_handler
                0x1000063c       0x54 CMakeFiles/ex1_create_task.dir/D_/pico/pico-sdk/src/rp2_common/hardware_irq/irq.c.obj
                0x1000063c                irq_set_exclusive_handler
 .text.irq_add_shared_handler
                0x10000690      0x230 CMakeFiles/ex1_create_task.dir/D_/pico/pico-sdk/src/rp2_common/hardware_irq/irq.c.obj
                0x10000690                irq_add_shared_handler
 .text.irq_remove_handler
                0x100008c0      0x1a8 CMakeFiles/ex1_create_task.dir/D_/pico/pico-sdk/src/rp2_common/hardware_irq/irq.c.obj
                0x100008c0                irq_remove_handler
 .text.irq_set_priority
                0x10000a68       0x28 CMakeFiles/ex1_create_task.dir/D_/pico/pico-sdk/src/rp2_common/hardware_irq/irq.c.obj
                0x10000a68                irq_set_priority
 .text.irq_add_tail_to_free_list
                0x10000a90       0xf0 CMakeFiles/ex1_create_task.dir/D_/pico/pico-sdk/src/rp2_common/hardware_irq/irq.c.obj
                0x10000a90                irq_add_tail_to_free_list
 .text.irq_init_priorities
                0x10000b80       0x1c CMakeFiles/ex1_create_task.dir/D_/pico/pico-sdk/src/rp2_common/hardware_irq/irq.c.obj
                0x10000b80                irq_init_priorities
 .text.user_irq_claim_unused
                0x10000b9c       0x30 CMakeFiles/ex1_create_task.dir/D_/pico/pico-sdk/src/rp2_common/hardware_irq/irq.c.obj
                0x10000b9c                user_irq_claim_unused
 .text.lock_init
                0x10000bcc       0x10 CMakeFiles/ex1_create_task.dir/D_/pico/pico-sdk/src/common/pico_sync/lock_core.c.obj
                0x10000bcc                lock_init
 .text.alarm_pool_post_alloc_init
                0x10000bdc       0x40 CMakeFiles/ex1_create_task.dir/D_/pico/pico-sdk/src/common/pico_time/time.c.obj
 .text.sleep_until_callback
                0x10000c1c       0x28 CMakeFiles/ex1_create_task.dir/D_/pico/pico-sdk/src/common/pico_time/time.c.obj
 .text.timer_pool_entry_comparator
                0x10000c44       0x7c CMakeFiles/ex1_create_task.dir/D_/pico/pico-sdk/src/common/pico_time/time.c.obj
                0x10000c44                timer_pool_entry_comparator
 .text.ph_add_child_node
                0x10000cc0       0xa4 CMakeFiles/ex1_create_task.dir/D_/pico/pico-sdk/src/common/pico_time/time.c.obj
 .text.ph_merge_nodes
                0x10000d64       0x3e CMakeFiles/ex1_create_task.dir/D_/pico/pico-sdk/src/common/pico_time/time.c.obj
 *fill*         0x10000da2        0x2 
 .text.add_alarm_under_lock
                0x10000da4      0x174 CMakeFiles/ex1_create_task.dir/D_/pico/pico-sdk/src/common/pico_time/time.c.obj
 .text.alarm_pool_alarm_callback
                0x10000f18      0x328 CMakeFiles/ex1_create_task.dir/D_/pico/pico-sdk/src/common/pico_time/time.c.obj
 .text.alarm_pool_init_default
                0x10001240       0x38 CMakeFiles/ex1_create_task.dir/D_/pico/pico-sdk/src/common/pico_time/time.c.obj
                0x10001240                alarm_pool_init_default
 .text.alarm_pool_get_default
                0x10001278       0x2c CMakeFiles/ex1_create_task.dir/D_/pico/pico-sdk/src/common/pico_time/time.c.obj
                0x10001278                alarm_pool_get_default
 .text.alarm_pool_add_alarm_at
                0x100012a4      0x170 CMakeFiles/ex1_create_task.dir/D_/pico/pico-sdk/src/common/pico_time/time.c.obj
                0x100012a4                alarm_pool_add_alarm_at
 .text.alarm_pool_cancel_alarm
                0x10001414       0xf0 CMakeFiles/ex1_create_task.dir/D_/pico/pico-sdk/src/common/pico_time/time.c.obj
                0x10001414                alarm_pool_cancel_alarm
 .text.best_effort_wfe_or_timeout
                0x10001504       0x80 CMakeFiles/ex1_create_task.dir/D_/pico/pico-sdk/src/common/pico_time/time.c.obj
                0x10001504                best_effort_wfe_or_timeout
 .text.hardware_alarm_irq_handler
                0x10001584       0x8c CMakeFiles/ex1_create_task.dir/D_/pico/pico-sdk/src/rp2_common/hardware_timer/timer.c.obj
 .text.hardware_alarm_claim
                0x10001610       0x18 CMakeFiles/ex1_create_task.dir/D_/pico/pico-sdk/src/rp2_common/hardware_timer/timer.c.obj
                0x10001610                hardware_alarm_claim
 .text.time_us_64
                0x10001628       0x18 CMakeFiles/ex1_create_task.dir/D_/pico/pico-sdk/src/rp2_common/hardware_timer/timer.c.obj
                0x10001628                time_us_64
 .text.hardware_alarm_set_callback
                0x10001640       0x90 CMakeFiles/ex1_create_task.dir/D_/pico/pico-sdk/src/rp2_common/hardware_timer/timer.c.obj
                0x10001640                hardware_alarm_set_callback
 .text.hardware_alarm_set_target
                0x100016d0       0xe8 CMakeFiles/ex1_create_task.dir/D_/pico/pico-sdk/src/rp2_common/hardware_timer/timer.c.obj
                0x100016d0                hardware_alarm_set_target
 .text.hardware_alarm_cancel
                0x100017b8       0x40 CMakeFiles/ex1_create_task.dir/D_/pico/pico-sdk/src/rp2_common/hardware_timer/timer.c.obj
                0x100017b8                hardware_alarm_cancel
 .text.ph_add_child_node
                0x100017f8       0xa4 CMakeFiles/ex1_create_task.dir/D_/pico/pico-sdk/src/common/pico_util/pheap.c.obj
 .text.ph_merge_nodes
                0x1000189c       0x3e CMakeFiles/ex1_create_task.dir/D_/pico/pico-sdk/src/common/pico_util/pheap.c.obj
 *fill*         0x100018da        0x2 
 .text.ph_clear
                0x100018dc       0x70 CMakeFiles/ex1_create_task.dir/D_/pico/pico-sdk/src/common/pico_util/pheap.c.obj
                0x100018dc                ph_clear
 .text.ph_post_alloc_init
                0x1000194c        0xe CMakeFiles/ex1_create_task.dir/D_/pico/pico-sdk/src/common/pico_util/pheap.c.obj
                0x1000194c                ph_post_alloc_init
 *fill*         0x1000195a        0x2 
 .text.ph_merge_two_pass
                0x1000195c       0xa8 CMakeFiles/ex1_create_task.dir/D_/pico/pico-sdk/src/common/pico_util/pheap.c.obj
                0x1000195c                ph_merge_two_pass
 .text.ph_remove_any_head
                0x10001a04      0x108 CMakeFiles/ex1_create_task.dir/D_/pico/pico-sdk/src/common/pico_util/pheap.c.obj
 .text.ph_remove_head
                0x10001b0c       0x14 CMakeFiles/ex1_create_task.dir/D_/pico/pico-sdk/src/common/pico_util/pheap.c.obj
                0x10001b0c                ph_remove_head
 .text.ph_remove_and_free_node
                0x10001b20       0xf8 CMakeFiles/ex1_create_task.dir/D_/pico/pico-sdk/src/common/pico_util/pheap.c.obj
                0x10001b20                ph_remove_and_free_node
 .text.mutex_init
                0x10001c18       0x1c CMakeFiles/ex1_create_task.dir/D_/pico/pico-sdk/src/common/pico_sync/mutex.c.obj
                0x10001c18                mutex_init
 .text.recursive_mutex_init
                0x10001c34       0x20 CMakeFiles/ex1_create_task.dir/D_/pico/pico-sdk/src/common/pico_sync/mutex.c.obj
                0x10001c34                recursive_mutex_init
 .text.critical_section_init_with_lock_num
                0x10001c54       0x14 CMakeFiles/ex1_create_task.dir/D_/pico/pico-sdk/src/common/pico_sync/critical_section.c.obj
                0x10001c54                critical_section_init_with_lock_num
 .text.critical_section_init
                0x10001c68       0x14 CMakeFiles/ex1_create_task.dir/D_/pico/pico-sdk/src/common/pico_sync/critical_section.c.obj
                0x10001c68                critical_section_init
 .text._exit    0x10001c7c        0x4 CMakeFiles/ex1_create_task.dir/D_/pico/pico-sdk/src/rp2_common/pico_runtime/runtime.c.obj
                0x10001c7c                _exit
 .text.exit     0x10001c80        0x6 CMakeFiles/ex1_create_task.dir/D_/pico/pico-sdk/src/rp2_common/pico_runtime/runtime.c.obj
                0x10001c80                exit
 *fill*         0x10001c86        0x2 
 .text.__assert_func
                0x10001c88       0x3c CMakeFiles/ex1_create_task.dir/D_/pico/pico-sdk/src/rp2_common/pico_runtime/runtime.c.obj
                0x10001c88                __assert_func
 .text.runtime_init
                0x10001cc4       0xf8 CMakeFiles/ex1_create_task.dir/D_/pico/pico-sdk/src/rp2_common/pico_runtime/runtime.c.obj
                0x10001cc4                runtime_init
 .text.panic    0x10001dbc       0x30 CMakeFiles/ex1_create_task.dir/D_/pico/pico-sdk/src/rp2_common/pico_runtime/runtime.c.obj
                0x10001dbc                panic
 .text.panic_unsupported
                0x10001dec        0xc CMakeFiles/ex1_create_task.dir/D_/pico/pico-sdk/src/rp2_common/pico_runtime/runtime.c.obj
                0x10001dec                panic_unsupported
 .text.clock_configure
                0x10001df8      0x104 CMakeFiles/ex1_create_task.dir/D_/pico/pico-sdk/src/rp2_common/hardware_clocks/clocks.c.obj
                0x10001df8                clock_configure
 .text.clocks_init
                0x10001efc      0x100 CMakeFiles/ex1_create_task.dir/D_/pico/pico-sdk/src/rp2_common/hardware_clocks/clocks.c.obj
                0x10001efc                clocks_init
 .text.clock_get_hz
                0x10001ffc        0xc CMakeFiles/ex1_create_task.dir/D_/pico/pico-sdk/src/rp2_common/hardware_clocks/clocks.c.obj
                0x10001ffc                clock_get_hz
 .text.pll_init
                0x10002008      0x140 CMakeFiles/ex1_create_task.dir/D_/pico/pico-sdk/src/rp2_common/hardware_pll/pll.c.obj
                0x10002008                pll_init
 .text.watchdog_start_tick
                0x10002148       0x10 CMakeFiles/ex1_create_task.dir/D_/pico/pico-sdk/src/rp2_common/hardware_watchdog/watchdog.c.obj
                0x10002148                watchdog_start_tick
 .text.watchdog_update
                0x10002158       0x14 CMakeFiles/ex1_create_task.dir/D_/pico/pico-sdk/src/rp2_common/hardware_watchdog/watchdog.c.obj
                0x10002158                watchdog_update
 .text._watchdog_enable
                0x1000216c       0x78 CMakeFiles/ex1_create_task.dir/D_/pico/pico-sdk/src/rp2_common/hardware_watchdog/watchdog.c.obj
                0x1000216c                _watchdog_enable
 .text.watchdog_reboot
                0x100021e4       0x48 CMakeFiles/ex1_create_task.dir/D_/pico/pico-sdk/src/rp2_common/hardware_watchdog/watchdog.c.obj
                0x100021e4                watchdog_reboot
 .text.xosc_init
                0x1000222c       0x28 CMakeFiles/ex1_create_task.dir/D_/pico/pico-sdk/src/rp2_common/hardware_xosc/xosc.c.obj
                0x1000222c                xosc_init
 .text._out_null
                0x10002254        0x2 CMakeFiles/ex1_create_task.dir/D_/pico/pico-sdk/src/rp2_common/pico_printf/printf.c.obj
 .text._out_fct
                0x10002256        0xe CMakeFiles/ex1_create_task.dir/D_/pico/pico-sdk/src/rp2_common/pico_printf/printf.c.obj
 .text._atoi    0x10002264       0x24 CMakeFiles/ex1_create_task.dir/D_/pico/pico-sdk/src/rp2_common/pico_printf/printf.c.obj
 .text._out_rev
                0x10002288       0xae CMakeFiles/ex1_create_task.dir/D_/pico/pico-sdk/src/rp2_common/pico_printf/printf.c.obj
 .text._ntoa_format
                0x10002336      0x112 CMakeFiles/ex1_create_task.dir/D_/pico/pico-sdk/src/rp2_common/pico_printf/printf.c.obj
 .text._ntoa_long
                0x10002448       0xbc CMakeFiles/ex1_create_task.dir/D_/pico/pico-sdk/src/rp2_common/pico_printf/printf.c.obj
 .text._ntoa_long_long
                0x10002504       0xe2 CMakeFiles/ex1_create_task.dir/D_/pico/pico-sdk/src/rp2_common/pico_printf/printf.c.obj
 *fill*         0x100025e6        0x2 
 .text._etoa    0x100025e8      0x414 CMakeFiles/ex1_create_task.dir/D_/pico/pico-sdk/src/rp2_common/pico_printf/printf.c.obj
 .text._ftoa    0x100029fc      0x354 CMakeFiles/ex1_create_task.dir/D_/pico/pico-sdk/src/rp2_common/pico_printf/printf.c.obj
 .text._vsnprintf
                0x10002d50      0x624 CMakeFiles/ex1_create_task.dir/D_/pico/pico-sdk/src/rp2_common/pico_printf/printf.c.obj
 .text.vfctprintf
                0x10003374       0x20 CMakeFiles/ex1_create_task.dir/D_/pico/pico-sdk/src/rp2_common/pico_printf/printf.c.obj
                0x10003374                vfctprintf
 .text          0x10003394       0x10 CMakeFiles/ex1_create_task.dir/D_/pico/pico-sdk/src/rp2_common/pico_bit_ops/bit_ops_aeabi.S.obj
 .text.rom_func_lookup
                0x100033a4       0x10 CMakeFiles/ex1_create_task.dir/D_/pico/pico-sdk/src/rp2_common/pico_bootrom/bootrom.c.obj
                0x100033a4                rom_func_lookup
 .text.rom_data_lookup
                0x100033b4       0x10 CMakeFiles/ex1_create_task.dir/D_/pico/pico-sdk/src/rp2_common/pico_bootrom/bootrom.c.obj
                0x100033b4                rom_data_lookup
 .text.rom_funcs_lookup
                0x100033c4       0x36 CMakeFiles/ex1_create_task.dir/D_/pico/pico-sdk/src/rp2_common/pico_bootrom/bootrom.c.obj
                0x100033c4                rom_funcs_lookup
 *fill*         0x100033fa        0x2 
 .text.__wrap___aeabi_idiv
                0x100033fc       0x50 CMakeFiles/ex1_create_task.dir/D_/pico/pico-sdk/src/rp2_common/pico_divider/divider.S.obj
                0x100033fc                __wrap___aeabi_idivmod
                0x100033fc                divmod_s32s32
                0x100033fc                div_s32s32
                0x100033fc                __wrap___aeabi_idiv
                0x10003404                divmod_s32s32_unsafe
                0x10003430                divmod_s32s32_savestate
 .text.__wrap___aeabi_uidiv
                0x1000344c       0x4c CMakeFiles/ex1_create_task.dir/D_/pico/pico-sdk/src/rp2_common/pico_divider/divider.S.obj
                0x1000344c                __wrap___aeabi_uidiv
                0x1000344c                __wrap___aeabi_uidivmod
                0x1000344c                div_u32u32
                0x1000344c                divmod_u32u32
                0x10003454                divmod_u32u32_unsafe
                0x1000347c                divmod_u32u32_savestate
 .text.__wrap___aeabi_ldiv
                0x10003498      0x434 CMakeFiles/ex1_create_task.dir/D_/pico/pico-sdk/src/rp2_common/pico_divider/divider.S.obj
                0x10003498                div_s64s64
                0x10003498                divmod_s64s64
                0x10003498                __wrap___aeabi_ldivmod
                0x100034d0                divmod_u64u64
                0x100034d0                div_u64u64
                0x100034d0                __wrap___aeabi_uldivmod
                0x100034e0                divmod_u64u64_savestate
                0x10003508                divmod_s64s64_unsafe
                0x10003590                divmod_u64u64_unsafe
 .text.__wrap___aeabi_darithmetic
                0x100038cc       0x80 CMakeFiles/ex1_create_task.dir/D_/pico/pico-sdk/src/rp2_common/pico_double/double_aeabi.S.obj
                0x100038cc                __wrap___aeabi_drsub
                0x100038d2                __wrap___aeabi_dsub
                0x100038e4                __wrap___aeabi_dadd
                0x100038f6                __wrap___aeabi_ddiv
                0x10003932                __wrap___aeabi_dmul
 .text.__wrap___aeabi_cdcmple
                0x1000394c       0x6c CMakeFiles/ex1_create_task.dir/D_/pico/pico-sdk/src/rp2_common/pico_double/double_aeabi.S.obj
                0x1000394c                __wrap___aeabi_cdrcmple
                0x1000395c                __wrap___aeabi_cdcmpeq
                0x1000395c                __wrap___aeabi_cdcmple
 .text.__wrap___aeabi_dcmplt
                0x100039b8        0xc CMakeFiles/ex1_create_task.dir/D_/pico/pico-sdk/src/rp2_common/pico_double/double_aeabi.S.obj
                0x100039b8                __wrap___aeabi_dcmplt
 .text.__wrap___aeabi_dcmple
                0x100039c4       0x10 CMakeFiles/ex1_create_task.dir/D_/pico/pico-sdk/src/rp2_common/pico_double/double_aeabi.S.obj
                0x100039c4                __wrap___aeabi_dcmple
 .text.__wrap___aeabi_dcmpge
                0x100039d4       0x10 CMakeFiles/ex1_create_task.dir/D_/pico/pico-sdk/src/rp2_common/pico_double/double_aeabi.S.obj
                0x100039d4                __wrap___aeabi_dcmpge
 .text.__wrap___aeabi_dcmpgt
                0x100039e4        0xa CMakeFiles/ex1_create_task.dir/D_/pico/pico-sdk/src/rp2_common/pico_double/double_aeabi.S.obj
                0x100039e4                __wrap___aeabi_dcmpgt
 .text.__wrap___aeabi_dcmpun
                0x100039ee       0x1c CMakeFiles/ex1_create_task.dir/D_/pico/pico-sdk/src/rp2_common/pico_double/double_aeabi.S.obj
                0x100039ee                __wrap___aeabi_dcmpun
 *fill*         0x10003a0a        0x2 
 .text.__wrap___aeabi_i2d
                0x10003a0c       0x38 CMakeFiles/ex1_create_task.dir/D_/pico/pico-sdk/src/rp2_common/pico_double/double_aeabi.S.obj
                0x10003a0c                __wrap___aeabi_ui2d
                0x10003a14                __wrap___aeabi_i2d
 .text.__wrap___aeabi_d2iz
                0x10003a44       0x48 CMakeFiles/ex1_create_task.dir/D_/pico/pico-sdk/src/rp2_common/pico_double/double_aeabi.S.obj
                0x10003a44                double2int_z
                0x10003a44                __wrap___aeabi_d2iz
 .text.__wrap___aeabi_d2uiz
                0x10003a8c       0x18 CMakeFiles/ex1_create_task.dir/D_/pico/pico-sdk/src/rp2_common/pico_double/double_aeabi.S.obj
                0x10003a8c                __wrap___aeabi_d2uiz
                0x10003a8c                double2uint
 .text.__aeabi_double_init
                0x10003aa4       0xc8 CMakeFiles/ex1_create_task.dir/D_/pico/pico-sdk/src/rp2_common/pico_double/double_init_rom.c.obj
                0x10003aa4                __aeabi_double_init
 .text.double_table_shim_on_use_helper
                0x10003b6c       0x34 CMakeFiles/ex1_create_task.dir/D_/pico/pico-sdk/src/rp2_common/pico_double/double_v1_rom_shim.S.obj
                0x10003b6c                double_table_shim_on_use_helper
 .text.__wrap___aeabi_dsub
                0x10003ba0       0x10 CMakeFiles/ex1_create_task.dir/D_/pico/pico-sdk/src/rp2_common/pico_double/double_v1_rom_shim.S.obj
                0x10003ba0                drsub_shim
                0x10003ba6                dsub_shim
 .text.dadd_shim
                0x10003bb0      0x15c CMakeFiles/ex1_create_task.dir/D_/pico/pico-sdk/src/rp2_common/pico_double/double_v1_rom_shim.S.obj
                0x10003bb0                dadd_shim
 .text.dmul_shim
                0x10003d0c      0x15c CMakeFiles/ex1_create_task.dir/D_/pico/pico-sdk/src/rp2_common/pico_double/double_v1_rom_shim.S.obj
                0x10003d0c                dmul_shim
 .text.ddiv_shim
                0x10003e68      0x1b0 CMakeFiles/ex1_create_task.dir/D_/pico/pico-sdk/src/rp2_common/pico_double/double_v1_rom_shim.S.obj
                0x10003e68                ddiv_shim
 .text.double2uint_shim
                0x10004018        0xe CMakeFiles/ex1_create_task.dir/D_/pico/pico-sdk/src/rp2_common/pico_double/double_v1_rom_shim.S.obj
                0x10004018                double2uint_shim
                0x1000401a                double2ufix_shim
 *fill*         0x10004026        0x2 
 .text.double2uint64_shim
                0x10004028       0x70 CMakeFiles/ex1_create_task.dir/D_/pico/pico-sdk/src/rp2_common/pico_double/double_v1_rom_shim.S.obj
                0x10004028                double2uint64_shim
                0x1000402a                double2ufix64_shim
                0x1000404a                d2fix_a
 .text.dunpacks
                0x10004098       0x3c CMakeFiles/ex1_create_task.dir/D_/pico/pico-sdk/src/rp2_common/pico_double/double_v1_rom_shim.S.obj
                0x10004098                dunpacks
 .text.__aeabi_lmul
                0x100040d4       0x32 CMakeFiles/ex1_create_task.dir/D_/pico/pico-sdk/src/rp2_common/pico_int64_ops/pico_int64_ops_aeabi.S.obj
                0x100040d4                __wrap___aeabi_lmul
 *fill*         0x10004106        0x2 
 .text.__aeabi_float_init
                0x10004108       0xfc CMakeFiles/ex1_create_task.dir/D_/pico/pico-sdk/src/rp2_common/pico_float/float_init_rom.c.obj
                0x10004108                __aeabi_float_init
 .text.float_table_shim_on_use_helper
                0x10004204       0x34 CMakeFiles/ex1_create_task.dir/D_/pico/pico-sdk/src/rp2_common/pico_float/float_v1_rom_shim.S.obj
                0x10004204                float_table_shim_on_use_helper
 .text          0x10004238       0x10 CMakeFiles/ex1_create_task.dir/D_/pico/pico-sdk/src/rp2_common/pico_mem_ops/mem_ops_aeabi.S.obj
                0x10004238                __aeabi_mem_init
 .text.memset   0x10004248        0xc CMakeFiles/ex1_create_task.dir/D_/pico/pico-sdk/src/rp2_common/pico_mem_ops/mem_ops_aeabi.S.obj
                0x10004248                __wrap_memset
 .text.memcpy   0x10004254        0xc CMakeFiles/ex1_create_task.dir/D_/pico/pico-sdk/src/rp2_common/pico_mem_ops/mem_ops_aeabi.S.obj
                0x10004254                __wrap_memcpy
                0x10004254                __wrap___aeabi_memcpy
 .text.stdio_out_chars_no_crlf
                0x10004260        0xe CMakeFiles/ex1_create_task.dir/D_/pico/pico-sdk/src/rp2_common/pico_stdio/stdio.c.obj
 *fill*         0x1000426e        0x2 
 .text.stdio_out_chars_crlf
                0x10004270       0x80 CMakeFiles/ex1_create_task.dir/D_/pico/pico-sdk/src/rp2_common/pico_stdio/stdio.c.obj
 .text.stdio_stack_buffer_flush
                0x100042f0       0x44 CMakeFiles/ex1_create_task.dir/D_/pico/pico-sdk/src/rp2_common/pico_stdio/stdio.c.obj
 .text.stdio_buffered_printer
                0x10004334       0x20 CMakeFiles/ex1_create_task.dir/D_/pico/pico-sdk/src/rp2_common/pico_stdio/stdio.c.obj
 .text.stdout_serialize_begin
                0x10004354       0x2c CMakeFiles/ex1_create_task.dir/D_/pico/pico-sdk/src/rp2_common/pico_stdio/stdio.c.obj
                0x10004354                stdout_serialize_begin
 .text.stdout_serialize_end
                0x10004380       0x10 CMakeFiles/ex1_create_task.dir/D_/pico/pico-sdk/src/rp2_common/pico_stdio/stdio.c.obj
                0x10004380                stdout_serialize_end
 .text.stdio_put_string
                0x10004390       0x98 CMakeFiles/ex1_create_task.dir/D_/pico/pico-sdk/src/rp2_common/pico_stdio/stdio.c.obj
 .text.stdio_set_driver_enabled
                0x10004428       0x2c CMakeFiles/ex1_create_task.dir/D_/pico/pico-sdk/src/rp2_common/pico_stdio/stdio.c.obj
                0x10004428                stdio_set_driver_enabled
 .text.stdio_flush
                0x10004454       0x20 CMakeFiles/ex1_create_task.dir/D_/pico/pico-sdk/src/rp2_common/pico_stdio/stdio.c.obj
                0x10004454                stdio_flush
 .text.__wrap_puts
                0x10004474       0x1e CMakeFiles/ex1_create_task.dir/D_/pico/pico-sdk/src/rp2_common/pico_stdio/stdio.c.obj
                0x10004474                __wrap_puts
 *fill*         0x10004492        0x2 
 .text.__wrap_vprintf
                0x10004494       0x44 CMakeFiles/ex1_create_task.dir/D_/pico/pico-sdk/src/rp2_common/pico_stdio/stdio.c.obj
                0x10004494                __wrap_vprintf
 .text.__wrap_printf
                0x100044d8       0x18 CMakeFiles/ex1_create_task.dir/D_/pico/pico-sdk/src/rp2_common/pico_stdio/stdio.c.obj
                0x100044d8                __wrap_printf
 .text.stdio_init_all
                0x100044f0        0x8 CMakeFiles/ex1_create_task.dir/D_/pico/pico-sdk/src/rp2_common/pico_stdio/stdio.c.obj
                0x100044f0                stdio_init_all
 .text.resetd_init
                0x100044f8        0x2 CMakeFiles/ex1_create_task.dir/D_/pico/pico-sdk/src/rp2_common/pico_stdio_usb/reset_interface.c.obj
 *fill*         0x100044fa        0x2 
 .text.resetd_reset
                0x100044fc        0xc CMakeFiles/ex1_create_task.dir/D_/pico/pico-sdk/src/rp2_common/pico_stdio_usb/reset_interface.c.obj
 .text.resetd_open
                0x10004508       0x34 CMakeFiles/ex1_create_task.dir/D_/pico/pico-sdk/src/rp2_common/pico_stdio_usb/reset_interface.c.obj
 .text.resetd_xfer_cb
                0x1000453c        0x4 CMakeFiles/ex1_create_task.dir/D_/pico/pico-sdk/src/rp2_common/pico_stdio_usb/reset_interface.c.obj
 .text.reset_usb_boot
                0x10004540       0x18 CMakeFiles/ex1_create_task.dir/D_/pico/pico-sdk/src/rp2_common/pico_stdio_usb/reset_interface.c.obj
 .text.resetd_control_xfer_cb
                0x10004558       0x5c CMakeFiles/ex1_create_task.dir/D_/pico/pico-sdk/src/rp2_common/pico_stdio_usb/reset_interface.c.obj
 .text.usbd_app_driver_get_cb
                0x100045b4        0xc CMakeFiles/ex1_create_task.dir/D_/pico/pico-sdk/src/rp2_common/pico_stdio_usb/reset_interface.c.obj
                0x100045b4                usbd_app_driver_get_cb
 .text.tud_cdc_line_coding_cb
                0x100045c0       0x28 CMakeFiles/ex1_create_task.dir/D_/pico/pico-sdk/src/rp2_common/pico_stdio_usb/reset_interface.c.obj
                0x100045c0                tud_cdc_line_coding_cb
 .text.stdio_usb_in_chars
                0x100045e8       0x70 CMakeFiles/ex1_create_task.dir/D_/pico/pico-sdk/src/rp2_common/pico_stdio_usb/stdio_usb.c.obj
                0x100045e8                stdio_usb_in_chars
 .text.low_priority_worker_irq
                0x10004658       0x20 CMakeFiles/ex1_create_task.dir/D_/pico/pico-sdk/src/rp2_common/pico_stdio_usb/stdio_usb.c.obj
 .text.stdio_usb_out_chars
                0x10004678       0xd4 CMakeFiles/ex1_create_task.dir/D_/pico/pico-sdk/src/rp2_common/pico_stdio_usb/stdio_usb.c.obj
 .text.timer_task
                0x1000474c       0x40 CMakeFiles/ex1_create_task.dir/D_/pico/pico-sdk/src/rp2_common/pico_stdio_usb/stdio_usb.c.obj
 .text.usb_irq  0x1000478c       0x10 CMakeFiles/ex1_create_task.dir/D_/pico/pico-sdk/src/rp2_common/pico_stdio_usb/stdio_usb.c.obj
 .text.stdio_usb_init
                0x1000479c       0xec CMakeFiles/ex1_create_task.dir/D_/pico/pico-sdk/src/rp2_common/pico_stdio_usb/stdio_usb.c.obj
                0x1000479c                stdio_usb_init
 .text.tud_descriptor_device_cb
                0x10004888        0x8 CMakeFiles/ex1_create_task.dir/D_/pico/pico-sdk/src/rp2_common/pico_stdio_usb/stdio_usb_descriptors.c.obj
                0x10004888                tud_descriptor_device_cb
 .text.tud_descriptor_configuration_cb
                0x10004890        0x8 CMakeFiles/ex1_create_task.dir/D_/pico/pico-sdk/src/rp2_common/pico_stdio_usb/stdio_usb_descriptors.c.obj
                0x10004890                tud_descriptor_configuration_cb
 .text.tud_descriptor_string_cb
                0x10004898       0x6c CMakeFiles/ex1_create_task.dir/D_/pico/pico-sdk/src/rp2_common/pico_stdio_usb/stdio_usb_descriptors.c.obj
                0x10004898                tud_descriptor_string_cb
 .text.hw_endpoint_get_by_addr
                0x10004904       0x18 CMakeFiles/ex1_create_task.dir/D_/pico/pico-sdk/lib/tinyusb/src/portable/raspberrypi/rp2040/dcd_rp2040.c.obj
 .text.reset_ep0_pid
                0x1000491c       0x28 CMakeFiles/ex1_create_task.dir/D_/pico/pico-sdk/lib/tinyusb/src/portable/raspberrypi/rp2040/dcd_rp2040.c.obj
 .text._hw_endpoint_alloc
                0x10004944       0x70 CMakeFiles/ex1_create_task.dir/D_/pico/pico-sdk/lib/tinyusb/src/portable/raspberrypi/rp2040/dcd_rp2040.c.obj
 .text.hw_endpoint_init
                0x100049b4       0x88 CMakeFiles/ex1_create_task.dir/D_/pico/pico-sdk/lib/tinyusb/src/portable/raspberrypi/rp2040/dcd_rp2040.c.obj
 .text.reset_non_control_endpoints
                0x10004a3c       0x40 CMakeFiles/ex1_create_task.dir/D_/pico/pico-sdk/lib/tinyusb/src/portable/raspberrypi/rp2040/dcd_rp2040.c.obj
 .text.hw_handle_buff_status
                0x10004a7c       0x8c CMakeFiles/ex1_create_task.dir/D_/pico/pico-sdk/lib/tinyusb/src/portable/raspberrypi/rp2040/dcd_rp2040.c.obj
 .text.dcd_rp2040_irq
                0x10004b08       0xc0 CMakeFiles/ex1_create_task.dir/D_/pico/pico-sdk/lib/tinyusb/src/portable/raspberrypi/rp2040/dcd_rp2040.c.obj
 .text.hw_endpoint_xfer
                0x10004bc8       0x14 CMakeFiles/ex1_create_task.dir/D_/pico/pico-sdk/lib/tinyusb/src/portable/raspberrypi/rp2040/dcd_rp2040.c.obj
 .text.dcd_int_enable
                0x10004bdc       0x2c CMakeFiles/ex1_create_task.dir/D_/pico/pico-sdk/lib/tinyusb/src/portable/raspberrypi/rp2040/dcd_rp2040.c.obj
                0x10004bdc                dcd_int_enable
 .text.dcd_set_address
                0x10004c08       0x2c CMakeFiles/ex1_create_task.dir/D_/pico/pico-sdk/lib/tinyusb/src/portable/raspberrypi/rp2040/dcd_rp2040.c.obj
                0x10004c08                dcd_set_address
 .text.dcd_connect
                0x10004c34       0x10 CMakeFiles/ex1_create_task.dir/D_/pico/pico-sdk/lib/tinyusb/src/portable/raspberrypi/rp2040/dcd_rp2040.c.obj
                0x10004c34                dcd_connect
 .text.dcd_init
                0x10004c44       0x7c CMakeFiles/ex1_create_task.dir/D_/pico/pico-sdk/lib/tinyusb/src/portable/raspberrypi/rp2040/dcd_rp2040.c.obj
                0x10004c44                dcd_init
 .text.dcd_edpt0_status_complete
                0x10004cc0       0x1c CMakeFiles/ex1_create_task.dir/D_/pico/pico-sdk/lib/tinyusb/src/portable/raspberrypi/rp2040/dcd_rp2040.c.obj
                0x10004cc0                dcd_edpt0_status_complete
 .text.dcd_edpt_open
                0x10004cdc       0x40 CMakeFiles/ex1_create_task.dir/D_/pico/pico-sdk/lib/tinyusb/src/portable/raspberrypi/rp2040/dcd_rp2040.c.obj
                0x10004cdc                dcd_edpt_open
 .text.dcd_edpt_close_all
                0x10004d1c        0x8 CMakeFiles/ex1_create_task.dir/D_/pico/pico-sdk/lib/tinyusb/src/portable/raspberrypi/rp2040/dcd_rp2040.c.obj
                0x10004d1c                dcd_edpt_close_all
 .text.dcd_edpt_xfer
                0x10004d24       0x30 CMakeFiles/ex1_create_task.dir/D_/pico/pico-sdk/lib/tinyusb/src/portable/raspberrypi/rp2040/dcd_rp2040.c.obj
                0x10004d24                dcd_edpt_xfer
 .text.dcd_edpt_stall
                0x10004d54       0x2c CMakeFiles/ex1_create_task.dir/D_/pico/pico-sdk/lib/tinyusb/src/portable/raspberrypi/rp2040/dcd_rp2040.c.obj
                0x10004d54                dcd_edpt_stall
 .text.dcd_edpt_clear_stall
                0x10004d80       0x20 CMakeFiles/ex1_create_task.dir/D_/pico/pico-sdk/lib/tinyusb/src/portable/raspberrypi/rp2040/dcd_rp2040.c.obj
                0x10004d80                dcd_edpt_clear_stall
 .text.prepare_ep_buffer
                0x10004da0       0x70 CMakeFiles/ex1_create_task.dir/D_/pico/pico-sdk/lib/tinyusb/src/portable/raspberrypi/rp2040/rp2040_usb.c.obj
 .text.sync_ep_buffer
                0x10004e10       0x7c CMakeFiles/ex1_create_task.dir/D_/pico/pico-sdk/lib/tinyusb/src/portable/raspberrypi/rp2040/rp2040_usb.c.obj
 .text._hw_endpoint_xfer_sync
                0x10004e8c       0x28 CMakeFiles/ex1_create_task.dir/D_/pico/pico-sdk/lib/tinyusb/src/portable/raspberrypi/rp2040/rp2040_usb.c.obj
 .text.rp2040_usb_init
                0x10004eb4       0x4c CMakeFiles/ex1_create_task.dir/D_/pico/pico-sdk/lib/tinyusb/src/portable/raspberrypi/rp2040/rp2040_usb.c.obj
                0x10004eb4                rp2040_usb_init
 .text.hw_endpoint_reset_transfer
                0x10004f00        0xc CMakeFiles/ex1_create_task.dir/D_/pico/pico-sdk/lib/tinyusb/src/portable/raspberrypi/rp2040/rp2040_usb.c.obj
                0x10004f00                hw_endpoint_reset_transfer
 .text._hw_endpoint_buffer_control_update32
                0x10004f0c       0x58 CMakeFiles/ex1_create_task.dir/D_/pico/pico-sdk/lib/tinyusb/src/portable/raspberrypi/rp2040/rp2040_usb.c.obj
                0x10004f0c                _hw_endpoint_buffer_control_update32
 .text._hw_endpoint_start_next_buffer
                0x10004f64       0x74 CMakeFiles/ex1_create_task.dir/D_/pico/pico-sdk/lib/tinyusb/src/portable/raspberrypi/rp2040/rp2040_usb.c.obj
 .text.hw_endpoint_xfer_start
                0x10004fd8       0x48 CMakeFiles/ex1_create_task.dir/D_/pico/pico-sdk/lib/tinyusb/src/portable/raspberrypi/rp2040/rp2040_usb.c.obj
                0x10004fd8                hw_endpoint_xfer_start
 .text.hw_endpoint_xfer_continue
                0x10005020       0x38 CMakeFiles/ex1_create_task.dir/D_/pico/pico-sdk/lib/tinyusb/src/portable/raspberrypi/rp2040/rp2040_usb.c.obj
                0x10005020                hw_endpoint_xfer_continue
 .text.configuration_reset
                0x10005058       0x84 CMakeFiles/ex1_create_task.dir/D_/pico/pico-sdk/lib/tinyusb/src/device/usbd.c.obj
 .text.usbd_reset
                0x100050dc        0xc CMakeFiles/ex1_create_task.dir/D_/pico/pico-sdk/lib/tinyusb/src/device/usbd.c.obj
 .text.invoke_class_control
                0x100050e8       0x1a CMakeFiles/ex1_create_task.dir/D_/pico/pico-sdk/lib/tinyusb/src/device/usbd.c.obj
 *fill*         0x10005102        0x2 
 .text.process_set_config
                0x10005104      0x1b0 CMakeFiles/ex1_create_task.dir/D_/pico/pico-sdk/lib/tinyusb/src/device/usbd.c.obj
 .text.process_get_descriptor
                0x100052b4       0xec CMakeFiles/ex1_create_task.dir/D_/pico/pico-sdk/lib/tinyusb/src/device/usbd.c.obj
 .text.tud_mounted
                0x100053a0       0x10 CMakeFiles/ex1_create_task.dir/D_/pico/pico-sdk/lib/tinyusb/src/device/usbd.c.obj
                0x100053a0                tud_mounted
 .text.tud_suspended
                0x100053b0       0x10 CMakeFiles/ex1_create_task.dir/D_/pico/pico-sdk/lib/tinyusb/src/device/usbd.c.obj
                0x100053b0                tud_suspended
 .text.tud_inited
                0x100053c0        0xc CMakeFiles/ex1_create_task.dir/D_/pico/pico-sdk/lib/tinyusb/src/device/usbd.c.obj
                0x100053c0                tud_inited
 .text.tud_init
                0x100053cc       0xcc CMakeFiles/ex1_create_task.dir/D_/pico/pico-sdk/lib/tinyusb/src/device/usbd.c.obj
                0x100053cc                tud_init
 .text.dcd_event_handler
                0x10005498      0x1e0 CMakeFiles/ex1_create_task.dir/D_/pico/pico-sdk/lib/tinyusb/src/device/usbd.c.obj
                0x10005498                dcd_event_handler
 .text.dcd_event_bus_signal
                0x10005678       0x26 CMakeFiles/ex1_create_task.dir/D_/pico/pico-sdk/lib/tinyusb/src/device/usbd.c.obj
                0x10005678                dcd_event_bus_signal
 .text.dcd_event_bus_reset
                0x1000569e       0x2a CMakeFiles/ex1_create_task.dir/D_/pico/pico-sdk/lib/tinyusb/src/device/usbd.c.obj
                0x1000569e                dcd_event_bus_reset
 .text.dcd_event_setup_received
                0x100056c8       0x34 CMakeFiles/ex1_create_task.dir/D_/pico/pico-sdk/lib/tinyusb/src/device/usbd.c.obj
                0x100056c8                dcd_event_setup_received
 .text.dcd_event_xfer_complete
                0x100056fc       0x44 CMakeFiles/ex1_create_task.dir/D_/pico/pico-sdk/lib/tinyusb/src/device/usbd.c.obj
                0x100056fc                dcd_event_xfer_complete
 .text.usbd_edpt_open
                0x10005740       0x58 CMakeFiles/ex1_create_task.dir/D_/pico/pico-sdk/lib/tinyusb/src/device/usbd.c.obj
                0x10005740                usbd_edpt_open
 .text.usbd_open_edpt_pair
                0x10005798       0x8c CMakeFiles/ex1_create_task.dir/D_/pico/pico-sdk/lib/tinyusb/src/device/usbd.c.obj
                0x10005798                usbd_open_edpt_pair
 .text.usbd_edpt_claim
                0x10005824       0x8c CMakeFiles/ex1_create_task.dir/D_/pico/pico-sdk/lib/tinyusb/src/device/usbd.c.obj
                0x10005824                usbd_edpt_claim
 .text.usbd_edpt_release
                0x100058b0       0x68 CMakeFiles/ex1_create_task.dir/D_/pico/pico-sdk/lib/tinyusb/src/device/usbd.c.obj
                0x100058b0                usbd_edpt_release
 .text.usbd_edpt_xfer
                0x10005918       0x80 CMakeFiles/ex1_create_task.dir/D_/pico/pico-sdk/lib/tinyusb/src/device/usbd.c.obj
                0x10005918                usbd_edpt_xfer
 .text.usbd_edpt_stall
                0x10005998       0x40 CMakeFiles/ex1_create_task.dir/D_/pico/pico-sdk/lib/tinyusb/src/device/usbd.c.obj
                0x10005998                usbd_edpt_stall
 .text.usbd_edpt_clear_stall
                0x100059d8       0x40 CMakeFiles/ex1_create_task.dir/D_/pico/pico-sdk/lib/tinyusb/src/device/usbd.c.obj
                0x100059d8                usbd_edpt_clear_stall
 .text.usbd_edpt_stalled
                0x10005a18       0x1c CMakeFiles/ex1_create_task.dir/D_/pico/pico-sdk/lib/tinyusb/src/device/usbd.c.obj
                0x10005a18                usbd_edpt_stalled
 .text.process_control_request
                0x10005a34      0x3b8 CMakeFiles/ex1_create_task.dir/D_/pico/pico-sdk/lib/tinyusb/src/device/usbd.c.obj
 .text.tud_task
                0x10005dec      0x218 CMakeFiles/ex1_create_task.dir/D_/pico/pico-sdk/lib/tinyusb/src/device/usbd.c.obj
                0x10005dec                tud_task
 .text._data_stage_xact
                0x10006004       0x58 CMakeFiles/ex1_create_task.dir/D_/pico/pico-sdk/lib/tinyusb/src/device/usbd_control.c.obj
 .text.tud_control_status
                0x1000605c       0x38 CMakeFiles/ex1_create_task.dir/D_/pico/pico-sdk/lib/tinyusb/src/device/usbd_control.c.obj
                0x1000605c                tud_control_status
 .text.tud_control_xfer
                0x10006094       0xa8 CMakeFiles/ex1_create_task.dir/D_/pico/pico-sdk/lib/tinyusb/src/device/usbd_control.c.obj
                0x10006094                tud_control_xfer
 .text.usbd_control_reset
                0x1000613c       0x14 CMakeFiles/ex1_create_task.dir/D_/pico/pico-sdk/lib/tinyusb/src/device/usbd_control.c.obj
                0x1000613c                usbd_control_reset
 .text.usbd_control_set_complete_callback
                0x10006150        0xc CMakeFiles/ex1_create_task.dir/D_/pico/pico-sdk/lib/tinyusb/src/device/usbd_control.c.obj
                0x10006150                usbd_control_set_complete_callback
 .text.usbd_control_set_request
                0x1000615c       0x1c CMakeFiles/ex1_create_task.dir/D_/pico/pico-sdk/lib/tinyusb/src/device/usbd_control.c.obj
                0x1000615c                usbd_control_set_request
 .text.usbd_control_xfer_cb
                0x10006178       0xfc CMakeFiles/ex1_create_task.dir/D_/pico/pico-sdk/lib/tinyusb/src/device/usbd_control.c.obj
                0x10006178                usbd_control_xfer_cb
 .text._prep_out_transaction
                0x10006274       0x46 CMakeFiles/ex1_create_task.dir/D_/pico/pico-sdk/lib/tinyusb/src/class/cdc/cdc_device.c.obj
 *fill*         0x100062ba        0x2 
 .text.tud_cdc_n_connected
                0x100062bc       0x44 CMakeFiles/ex1_create_task.dir/D_/pico/pico-sdk/lib/tinyusb/src/class/cdc/cdc_device.c.obj
                0x100062bc                tud_cdc_n_connected
 .text.tud_cdc_n_available
                0x10006300       0x18 CMakeFiles/ex1_create_task.dir/D_/pico/pico-sdk/lib/tinyusb/src/class/cdc/cdc_device.c.obj
                0x10006300                tud_cdc_n_available
 .text.tud_cdc_n_read
                0x10006318       0x28 CMakeFiles/ex1_create_task.dir/D_/pico/pico-sdk/lib/tinyusb/src/class/cdc/cdc_device.c.obj
                0x10006318                tud_cdc_n_read
 .text.tud_cdc_n_write_flush
                0x10006340       0xcc CMakeFiles/ex1_create_task.dir/D_/pico/pico-sdk/lib/tinyusb/src/class/cdc/cdc_device.c.obj
                0x10006340                tud_cdc_n_write_flush
 .text.tud_cdc_n_write
                0x1000640c       0x38 CMakeFiles/ex1_create_task.dir/D_/pico/pico-sdk/lib/tinyusb/src/class/cdc/cdc_device.c.obj
                0x1000640c                tud_cdc_n_write
 .text.tud_cdc_n_write_available
                0x10006444       0x1c CMakeFiles/ex1_create_task.dir/D_/pico/pico-sdk/lib/tinyusb/src/class/cdc/cdc_device.c.obj
                0x10006444                tud_cdc_n_write_available
 .text.cdcd_init
                0x10006460       0xbc CMakeFiles/ex1_create_task.dir/D_/pico/pico-sdk/lib/tinyusb/src/class/cdc/cdc_device.c.obj
                0x10006460                cdcd_init
 .text.cdcd_reset
                0x1000651c       0x44 CMakeFiles/ex1_create_task.dir/D_/pico/pico-sdk/lib/tinyusb/src/class/cdc/cdc_device.c.obj
                0x1000651c                cdcd_reset
 .text.cdcd_open
                0x10006560       0xf8 CMakeFiles/ex1_create_task.dir/D_/pico/pico-sdk/lib/tinyusb/src/class/cdc/cdc_device.c.obj
                0x10006560                cdcd_open
 .text.cdcd_control_xfer_cb
                0x10006658      0x134 CMakeFiles/ex1_create_task.dir/D_/pico/pico-sdk/lib/tinyusb/src/class/cdc/cdc_device.c.obj
                0x10006658                cdcd_control_xfer_cb
 .text.cdcd_xfer_cb
                0x1000678c      0x144 CMakeFiles/ex1_create_task.dir/D_/pico/pico-sdk/lib/tinyusb/src/class/cdc/cdc_device.c.obj
                0x1000678c                cdcd_xfer_cb
 .text.tusb_init
                0x100068d0       0x24 CMakeFiles/ex1_create_task.dir/D_/pico/pico-sdk/lib/tinyusb/src/tusb.c.obj
                0x100068d0                tusb_init
 .text.tusb_inited
                0x100068f4        0xe CMakeFiles/ex1_create_task.dir/D_/pico/pico-sdk/lib/tinyusb/src/tusb.c.obj
                0x100068f4                tusb_inited
 *fill*         0x10006902        0x2 
 .text.tu_edpt_validate
                0x10006904       0xa8 CMakeFiles/ex1_create_task.dir/D_/pico/pico-sdk/lib/tinyusb/src/tusb.c.obj
                0x10006904                tu_edpt_validate
 .text.tu_edpt_bind_driver
                0x100069ac       0x2a CMakeFiles/ex1_create_task.dir/D_/pico/pico-sdk/lib/tinyusb/src/tusb.c.obj
                0x100069ac                tu_edpt_bind_driver
 .text.advance_pointer
                0x100069d6       0x18 CMakeFiles/ex1_create_task.dir/D_/pico/pico-sdk/lib/tinyusb/src/common/tusb_fifo.c.obj
 .text.backward_pointer
                0x100069ee       0x1e CMakeFiles/ex1_create_task.dir/D_/pico/pico-sdk/lib/tinyusb/src/common/tusb_fifo.c.obj
 .text.get_relative_pointer
                0x10006a0c       0x10 CMakeFiles/ex1_create_task.dir/D_/pico/pico-sdk/lib/tinyusb/src/common/tusb_fifo.c.obj
 .text._tu_fifo_peek
                0x10006a1c       0x50 CMakeFiles/ex1_create_task.dir/D_/pico/pico-sdk/lib/tinyusb/src/common/tusb_fifo.c.obj
 .text._ff_pull_const_addr
                0x10006a6c       0x4c CMakeFiles/ex1_create_task.dir/D_/pico/pico-sdk/lib/tinyusb/src/common/tusb_fifo.c.obj
 .text._ff_pull_n
                0x10006ab8      0x10c CMakeFiles/ex1_create_task.dir/D_/pico/pico-sdk/lib/tinyusb/src/common/tusb_fifo.c.obj
 .text._tu_fifo_peek_n
                0x10006bc4       0x5e CMakeFiles/ex1_create_task.dir/D_/pico/pico-sdk/lib/tinyusb/src/common/tusb_fifo.c.obj
 .text._tu_fifo_read_n
                0x10006c22       0x4e CMakeFiles/ex1_create_task.dir/D_/pico/pico-sdk/lib/tinyusb/src/common/tusb_fifo.c.obj
 .text._ff_push_const_addr
                0x10006c70       0x40 CMakeFiles/ex1_create_task.dir/D_/pico/pico-sdk/lib/tinyusb/src/common/tusb_fifo.c.obj
 .text._ff_push_n
                0x10006cb0      0x108 CMakeFiles/ex1_create_task.dir/D_/pico/pico-sdk/lib/tinyusb/src/common/tusb_fifo.c.obj
 .text._tu_fifo_write_n
                0x10006db8       0x9e CMakeFiles/ex1_create_task.dir/D_/pico/pico-sdk/lib/tinyusb/src/common/tusb_fifo.c.obj
 .text.tu_fifo_config
                0x10006e56       0x72 CMakeFiles/ex1_create_task.dir/D_/pico/pico-sdk/lib/tinyusb/src/common/tusb_fifo.c.obj
                0x10006e56                tu_fifo_config
 .text.tu_fifo_count
                0x10006ec8       0x26 CMakeFiles/ex1_create_task.dir/D_/pico/pico-sdk/lib/tinyusb/src/common/tusb_fifo.c.obj
                0x10006ec8                tu_fifo_count
 .text.tu_fifo_empty
                0x10006eee       0x10 CMakeFiles/ex1_create_task.dir/D_/pico/pico-sdk/lib/tinyusb/src/common/tusb_fifo.c.obj
                0x10006eee                tu_fifo_empty
 .text.tu_fifo_remaining
                0x10006efe       0x20 CMakeFiles/ex1_create_task.dir/D_/pico/pico-sdk/lib/tinyusb/src/common/tusb_fifo.c.obj
                0x10006efe                tu_fifo_remaining
 .text.tu_fifo_read
                0x10006f1e       0x42 CMakeFiles/ex1_create_task.dir/D_/pico/pico-sdk/lib/tinyusb/src/common/tusb_fifo.c.obj
                0x10006f1e                tu_fifo_read
 .text.tu_fifo_read_n
                0x10006f60        0xa CMakeFiles/ex1_create_task.dir/D_/pico/pico-sdk/lib/tinyusb/src/common/tusb_fifo.c.obj
                0x10006f60                tu_fifo_read_n
 .text.tu_fifo_write
                0x10006f6a       0x6c CMakeFiles/ex1_create_task.dir/D_/pico/pico-sdk/lib/tinyusb/src/common/tusb_fifo.c.obj
                0x10006f6a                tu_fifo_write
 .text.tu_fifo_write_n
                0x10006fd6        0xa CMakeFiles/ex1_create_task.dir/D_/pico/pico-sdk/lib/tinyusb/src/common/tusb_fifo.c.obj
                0x10006fd6                tu_fifo_write_n
 .text.tu_fifo_clear
                0x10006fe0       0x4c CMakeFiles/ex1_create_task.dir/D_/pico/pico-sdk/lib/tinyusb/src/common/tusb_fifo.c.obj
                0x10006fe0                tu_fifo_clear
 .text.tu_fifo_set_overwritable
                0x1000702c       0x3c CMakeFiles/ex1_create_task.dir/D_/pico/pico-sdk/lib/tinyusb/src/common/tusb_fifo.c.obj
                0x1000702c                tu_fifo_set_overwritable
 .text._retrieve_unique_id_on_boot
                0x10007068       0x10 CMakeFiles/ex1_create_task.dir/D_/pico/pico-sdk/src/rp2_common/pico_unique_id/unique_id.c.obj
 .text.pico_get_unique_board_id_string
                0x10007078       0x60 CMakeFiles/ex1_create_task.dir/D_/pico/pico-sdk/src/rp2_common/pico_unique_id/unique_id.c.obj
                0x10007078                pico_get_unique_board_id_string
 .text.flash_get_unique_id
                0x100070d8       0x46 CMakeFiles/ex1_create_task.dir/D_/pico/pico-sdk/src/rp2_common/hardware_flash/flash.c.obj
                0x100070d8                flash_get_unique_id
 .text.vPortSVCHandler
                0x1000711e        0x2 CMakeFiles/ex1_create_task.dir/D_/pico/pico-FreeRTOS/Source/portable/ThirdParty/GCC/RP2040/port.c.obj
                0x1000711e                vPortSVCHandler
 .text.vPortStartFirstTask
                0x10007120       0x38 CMakeFiles/ex1_create_task.dir/D_/pico/pico-FreeRTOS/Source/portable/ThirdParty/GCC/RP2040/port.c.obj
 .text.prvFIFOInterruptHandler
                0x10007158       0x28 CMakeFiles/ex1_create_task.dir/D_/pico/pico-FreeRTOS/Source/portable/ThirdParty/GCC/RP2040/port.c.obj
 .text.xPortPendSVHandler
                0x10007180       0x78 CMakeFiles/ex1_create_task.dir/D_/pico/pico-FreeRTOS/Source/portable/ThirdParty/GCC/RP2040/port.c.obj
                0x10007180                xPortPendSVHandler
 .text.prvTaskExitError
                0x100071f8        0x6 CMakeFiles/ex1_create_task.dir/D_/pico/pico-FreeRTOS/Source/portable/ThirdParty/GCC/RP2040/port.c.obj
 *fill*         0x100071fe        0x2 
 .text.xPortSysTickHandler
                0x10007200       0x2c CMakeFiles/ex1_create_task.dir/D_/pico/pico-FreeRTOS/Source/portable/ThirdParty/GCC/RP2040/port.c.obj
                0x10007200                xPortSysTickHandler
 .text.prvGetTicksToWaitBefore
                0x1000722c       0x58 CMakeFiles/ex1_create_task.dir/D_/pico/pico-FreeRTOS/Source/portable/ThirdParty/GCC/RP2040/port.c.obj
 .text.pxPortInitialiseStack
                0x10007284       0x20 CMakeFiles/ex1_create_task.dir/D_/pico/pico-FreeRTOS/Source/portable/ThirdParty/GCC/RP2040/port.c.obj
                0x10007284                pxPortInitialiseStack
 .text.vPortYield
                0x100072a4       0x40 CMakeFiles/ex1_create_task.dir/D_/pico/pico-FreeRTOS/Source/portable/ThirdParty/GCC/RP2040/port.c.obj
                0x100072a4                vPortYield
 .text.vPortEnableInterrupts
                0x100072e4       0x28 CMakeFiles/ex1_create_task.dir/D_/pico/pico-FreeRTOS/Source/portable/ThirdParty/GCC/RP2040/port.c.obj
                0x100072e4                vPortEnableInterrupts
 .text.vYieldCore
                0x1000730c       0x30 CMakeFiles/ex1_create_task.dir/D_/pico/pico-FreeRTOS/Source/portable/ThirdParty/GCC/RP2040/port.c.obj
                0x1000730c                vYieldCore
 .text.vPortSetupTimerInterrupt
                0x1000733c       0x34 CMakeFiles/ex1_create_task.dir/D_/pico/pico-FreeRTOS/Source/portable/ThirdParty/GCC/RP2040/port.c.obj
                0x1000733c                vPortSetupTimerInterrupt
 .text.xPortStartSchedulerOnCore
                0x10007370       0xac CMakeFiles/ex1_create_task.dir/D_/pico/pico-FreeRTOS/Source/portable/ThirdParty/GCC/RP2040/port.c.obj
 .text.xPortStartScheduler
                0x1000741c       0x64 CMakeFiles/ex1_create_task.dir/D_/pico/pico-FreeRTOS/Source/portable/ThirdParty/GCC/RP2040/port.c.obj
                0x1000741c                xPortStartScheduler
 .text.prvDisableInterruptsAndPortStartSchedulerOnCore
                0x10007480        0xc CMakeFiles/ex1_create_task.dir/D_/pico/pico-FreeRTOS/Source/portable/ThirdParty/GCC/RP2040/port.c.obj
 .text.ulPortLockGetCurrentOwnerId
                0x1000748c       0x30 CMakeFiles/ex1_create_task.dir/D_/pico/pico-FreeRTOS/Source/portable/ThirdParty/GCC/RP2040/port.c.obj
                0x1000748c                ulPortLockGetCurrentOwnerId
 .text.vPortLockInternalSpinUnlockWithWait
                0x100074bc       0xd4 CMakeFiles/ex1_create_task.dir/D_/pico/pico-FreeRTOS/Source/portable/ThirdParty/GCC/RP2040/port.c.obj
                0x100074bc                vPortLockInternalSpinUnlockWithWait
 .text.vPortLockInternalSpinUnlockWithNotify
                0x10007590       0x88 CMakeFiles/ex1_create_task.dir/D_/pico/pico-FreeRTOS/Source/portable/ThirdParty/GCC/RP2040/port.c.obj
                0x10007590                vPortLockInternalSpinUnlockWithNotify
 .text.xPortLockInternalSpinUnlockWithBestEffortWaitOrTimeout
                0x10007618      0x12c CMakeFiles/ex1_create_task.dir/D_/pico/pico-FreeRTOS/Source/portable/ThirdParty/GCC/RP2040/port.c.obj
                0x10007618                xPortLockInternalSpinUnlockWithBestEffortWaitOrTimeout
 .text.prvRuntimeInitializer
                0x10007744       0x10 CMakeFiles/ex1_create_task.dir/D_/pico/pico-FreeRTOS/Source/portable/ThirdParty/GCC/RP2040/port.c.obj
 .text.prvTestWaitCondition
                0x10007754       0x1e CMakeFiles/ex1_create_task.dir/D_/pico/pico-FreeRTOS/Source/event_groups.c.obj
 .text.xEventGroupCreate
                0x10007772       0x18 CMakeFiles/ex1_create_task.dir/D_/pico/pico-FreeRTOS/Source/event_groups.c.obj
                0x10007772                xEventGroupCreate
 *fill*         0x1000778a        0x2 
 .text.xEventGroupWaitBits
                0x1000778c      0x124 CMakeFiles/ex1_create_task.dir/D_/pico/pico-FreeRTOS/Source/event_groups.c.obj
                0x1000778c                xEventGroupWaitBits
 .text.xEventGroupSetBits
                0x100078b0       0x98 CMakeFiles/ex1_create_task.dir/D_/pico/pico-FreeRTOS/Source/event_groups.c.obj
                0x100078b0                xEventGroupSetBits
 .text.vEventGroupSetBitsCallback
                0x10007948        0x8 CMakeFiles/ex1_create_task.dir/D_/pico/pico-FreeRTOS/Source/event_groups.c.obj
                0x10007948                vEventGroupSetBitsCallback
 .text.xEventGroupSetBitsFromISR
                0x10007950       0x14 CMakeFiles/ex1_create_task.dir/D_/pico/pico-FreeRTOS/Source/event_groups.c.obj
                0x10007950                xEventGroupSetBitsFromISR
 .text.vListInitialise
                0x10007964       0x16 CMakeFiles/ex1_create_task.dir/D_/pico/pico-FreeRTOS/Source/list.c.obj
                0x10007964                vListInitialise
 .text.vListInitialiseItem
                0x1000797a        0x6 CMakeFiles/ex1_create_task.dir/D_/pico/pico-FreeRTOS/Source/list.c.obj
                0x1000797a                vListInitialiseItem
 .text.vListInsertEnd
                0x10007980       0x16 CMakeFiles/ex1_create_task.dir/D_/pico/pico-FreeRTOS/Source/list.c.obj
                0x10007980                vListInsertEnd
 .text.vListInsert
                0x10007996       0x2e CMakeFiles/ex1_create_task.dir/D_/pico/pico-FreeRTOS/Source/list.c.obj
                0x10007996                vListInsert
 .text.uxListRemove
                0x100079c4       0x26 CMakeFiles/ex1_create_task.dir/D_/pico/pico-FreeRTOS/Source/list.c.obj
                0x100079c4                uxListRemove
 .text.prvIsQueueFull
                0x100079ea       0x1e CMakeFiles/ex1_create_task.dir/D_/pico/pico-FreeRTOS/Source/queue.c.obj
 .text.prvIsQueueEmpty
                0x10007a08       0x1c CMakeFiles/ex1_create_task.dir/D_/pico/pico-FreeRTOS/Source/queue.c.obj
 .text.prvCopyDataToQueue
                0x10007a24       0x82 CMakeFiles/ex1_create_task.dir/D_/pico/pico-FreeRTOS/Source/queue.c.obj
 *fill*         0x10007aa6        0x2 
 .text.prvNotifyQueueSetContainer
                0x10007aa8       0xa0 CMakeFiles/ex1_create_task.dir/D_/pico/pico-FreeRTOS/Source/queue.c.obj
 .text.prvCopyDataFromQueue
                0x10007b48       0x24 CMakeFiles/ex1_create_task.dir/D_/pico/pico-FreeRTOS/Source/queue.c.obj
 .text.prvUnlockQueue
                0x10007b6c       0x88 CMakeFiles/ex1_create_task.dir/D_/pico/pico-FreeRTOS/Source/queue.c.obj
 .text.xQueueGenericReset
                0x10007bf4       0x84 CMakeFiles/ex1_create_task.dir/D_/pico/pico-FreeRTOS/Source/queue.c.obj
                0x10007bf4                xQueueGenericReset
 .text.prvInitialiseNewQueue
                0x10007c78       0x26 CMakeFiles/ex1_create_task.dir/D_/pico/pico-FreeRTOS/Source/queue.c.obj
 *fill*         0x10007c9e        0x2 
 .text.xQueueGenericCreate
                0x10007ca0       0x88 CMakeFiles/ex1_create_task.dir/D_/pico/pico-FreeRTOS/Source/queue.c.obj
                0x10007ca0                xQueueGenericCreate
 .text.xQueueGenericSend
                0x10007d28      0x190 CMakeFiles/ex1_create_task.dir/D_/pico/pico-FreeRTOS/Source/queue.c.obj
                0x10007d28                xQueueGenericSend
 .text.xQueueGenericSendFromISR
                0x10007eb8      0x134 CMakeFiles/ex1_create_task.dir/D_/pico/pico-FreeRTOS/Source/queue.c.obj
                0x10007eb8                xQueueGenericSendFromISR
 .text.xQueueReceive
                0x10007fec      0x150 CMakeFiles/ex1_create_task.dir/D_/pico/pico-FreeRTOS/Source/queue.c.obj
                0x10007fec                xQueueReceive
 .text.vQueueAddToRegistry
                0x1000813c       0x5c CMakeFiles/ex1_create_task.dir/D_/pico/pico-FreeRTOS/Source/queue.c.obj
                0x1000813c                vQueueAddToRegistry
 .text.vQueueWaitForMessageRestricted
                0x10008198       0x50 CMakeFiles/ex1_create_task.dir/D_/pico/pico-FreeRTOS/Source/queue.c.obj
                0x10008198                vQueueWaitForMessageRestricted
 .text.prvGetCurrentYieldPending
                0x100081e8       0x1c CMakeFiles/ex1_create_task.dir/D_/pico/pico-FreeRTOS/Source/tasks.c.obj
 .text.prvResetNextTaskUnblockTime
                0x10008204       0x2c CMakeFiles/ex1_create_task.dir/D_/pico/pico-FreeRTOS/Source/tasks.c.obj
 .text.prvDeleteTCB
                0x10008230       0x12 CMakeFiles/ex1_create_task.dir/D_/pico/pico-FreeRTOS/Source/tasks.c.obj
 *fill*         0x10008242        0x2 
 .text.prvInitialiseNewTask
                0x10008244       0xf8 CMakeFiles/ex1_create_task.dir/D_/pico/pico-FreeRTOS/Source/tasks.c.obj
 .text.prvMinimalIdleTask
                0x1000833c       0x18 CMakeFiles/ex1_create_task.dir/D_/pico/pico-FreeRTOS/Source/tasks.c.obj
 .text.prvInitialiseTaskLists
                0x10008354       0x68 CMakeFiles/ex1_create_task.dir/D_/pico/pico-FreeRTOS/Source/tasks.c.obj
 .text.prvYieldCore
                0x100083bc       0x60 CMakeFiles/ex1_create_task.dir/D_/pico/pico-FreeRTOS/Source/tasks.c.obj
 .text.prvSelectHighestPriorityTask
                0x1000841c      0x1ac CMakeFiles/ex1_create_task.dir/D_/pico/pico-FreeRTOS/Source/tasks.c.obj
 .text.xTaskGetTickCount
                0x100085c8        0xc CMakeFiles/ex1_create_task.dir/D_/pico/pico-FreeRTOS/Source/tasks.c.obj
                0x100085c8                xTaskGetTickCount
 .text.vTaskInternalSetTimeOutState
                0x100085d4       0x18 CMakeFiles/ex1_create_task.dir/D_/pico/pico-FreeRTOS/Source/tasks.c.obj
                0x100085d4                vTaskInternalSetTimeOutState
 .text.vTaskMissedYield
                0x100085ec       0x14 CMakeFiles/ex1_create_task.dir/D_/pico/pico-FreeRTOS/Source/tasks.c.obj
                0x100085ec                vTaskMissedYield
 .text.xTaskGetCurrentTaskHandle
                0x10008600       0x1c CMakeFiles/ex1_create_task.dir/D_/pico/pico-FreeRTOS/Source/tasks.c.obj
                0x10008600                xTaskGetCurrentTaskHandle
 .text.prvYieldForTask
                0x1000861c      0x104 CMakeFiles/ex1_create_task.dir/D_/pico/pico-FreeRTOS/Source/tasks.c.obj
 .text.xTaskRemoveFromEventList
                0x10008720       0x98 CMakeFiles/ex1_create_task.dir/D_/pico/pico-FreeRTOS/Source/tasks.c.obj
                0x10008720                xTaskRemoveFromEventList
 .text.prvAddCurrentTaskToDelayedList
                0x100087b8       0x84 CMakeFiles/ex1_create_task.dir/D_/pico/pico-FreeRTOS/Source/tasks.c.obj
 .text.prvCheckForRunStateChange
                0x1000883c      0x30c CMakeFiles/ex1_create_task.dir/D_/pico/pico-FreeRTOS/Source/tasks.c.obj
 .text.vTaskSuspendAll
                0x10008b48      0x17c CMakeFiles/ex1_create_task.dir/D_/pico/pico-FreeRTOS/Source/tasks.c.obj
                0x10008b48                vTaskSuspendAll
 .text.vTaskSwitchContext
                0x10008cc4      0x230 CMakeFiles/ex1_create_task.dir/D_/pico/pico-FreeRTOS/Source/tasks.c.obj
                0x10008cc4                vTaskSwitchContext
 .text.vTaskPlaceOnEventList
                0x10008ef4       0x40 CMakeFiles/ex1_create_task.dir/D_/pico/pico-FreeRTOS/Source/tasks.c.obj
                0x10008ef4                vTaskPlaceOnEventList
 .text.vTaskPlaceOnUnorderedEventList
                0x10008f34       0x6c CMakeFiles/ex1_create_task.dir/D_/pico/pico-FreeRTOS/Source/tasks.c.obj
                0x10008f34                vTaskPlaceOnUnorderedEventList
 .text.vTaskPlaceOnEventListRestricted
                0x10008fa0       0x48 CMakeFiles/ex1_create_task.dir/D_/pico/pico-FreeRTOS/Source/tasks.c.obj
                0x10008fa0                vTaskPlaceOnEventListRestricted
 .text.xTaskPriorityDisinherit
                0x10008fe8       0x9c CMakeFiles/ex1_create_task.dir/D_/pico/pico-FreeRTOS/Source/tasks.c.obj
                0x10008fe8                xTaskPriorityDisinherit
 .text.vTaskYieldWithinAPI
                0x10009084       0x28 CMakeFiles/ex1_create_task.dir/D_/pico/pico-FreeRTOS/Source/tasks.c.obj
                0x10009084                vTaskYieldWithinAPI
 .text.vTaskEnterCritical
                0x100090ac      0x13c CMakeFiles/ex1_create_task.dir/D_/pico/pico-FreeRTOS/Source/tasks.c.obj
                0x100090ac                vTaskEnterCritical
 .text.vTaskExitCritical
                0x100091e8      0x128 CMakeFiles/ex1_create_task.dir/D_/pico/pico-FreeRTOS/Source/tasks.c.obj
                0x100091e8                vTaskExitCritical
 .text.prvCheckTasksWaitingTermination
                0x10009310       0x58 CMakeFiles/ex1_create_task.dir/D_/pico/pico-FreeRTOS/Source/tasks.c.obj
 .text.prvIdleTask
                0x10009368       0x1c CMakeFiles/ex1_create_task.dir/D_/pico/pico-FreeRTOS/Source/tasks.c.obj
 .text.prvAddNewTaskToReadyList
                0x10009384       0x9c CMakeFiles/ex1_create_task.dir/D_/pico/pico-FreeRTOS/Source/tasks.c.obj
 .text.xTaskCreate
                0x10009420       0x60 CMakeFiles/ex1_create_task.dir/D_/pico/pico-FreeRTOS/Source/tasks.c.obj
                0x10009420                xTaskCreate
 .text.prvCreateIdleTasks
                0x10009480       0x8c CMakeFiles/ex1_create_task.dir/D_/pico/pico-FreeRTOS/Source/tasks.c.obj
 .text.vTaskStartScheduler
                0x1000950c       0x64 CMakeFiles/ex1_create_task.dir/D_/pico/pico-FreeRTOS/Source/tasks.c.obj
                0x1000950c                vTaskStartScheduler
 .text.xTaskIncrementTick
                0x10009570      0x198 CMakeFiles/ex1_create_task.dir/D_/pico/pico-FreeRTOS/Source/tasks.c.obj
                0x10009570                xTaskIncrementTick
 .text.xTaskResumeAll
                0x10009708      0x168 CMakeFiles/ex1_create_task.dir/D_/pico/pico-FreeRTOS/Source/tasks.c.obj
                0x10009708                xTaskResumeAll
 .text.vTaskDelay
                0x10009870       0x48 CMakeFiles/ex1_create_task.dir/D_/pico/pico-FreeRTOS/Source/tasks.c.obj
                0x10009870                vTaskDelay
 .text.vTaskRemoveFromUnorderedEventList
                0x100098b8       0x90 CMakeFiles/ex1_create_task.dir/D_/pico/pico-FreeRTOS/Source/tasks.c.obj
                0x100098b8                vTaskRemoveFromUnorderedEventList
 .text.xTaskCheckForTimeOut
                0x10009948       0xbc CMakeFiles/ex1_create_task.dir/D_/pico/pico-FreeRTOS/Source/tasks.c.obj
                0x10009948                xTaskCheckForTimeOut
 .text.xTaskGetSchedulerState
                0x10009a04       0x30 CMakeFiles/ex1_create_task.dir/D_/pico/pico-FreeRTOS/Source/tasks.c.obj
                0x10009a04                xTaskGetSchedulerState
 .text.uxTaskResetEventItemValue
                0x10009a34       0x1c CMakeFiles/ex1_create_task.dir/D_/pico/pico-FreeRTOS/Source/tasks.c.obj
                0x10009a34                uxTaskResetEventItemValue
 .text.prvGetNextExpireTime
                0x10009a50       0x24 CMakeFiles/ex1_create_task.dir/D_/pico/pico-FreeRTOS/Source/timers.c.obj
 .text.prvInsertTimerInActiveList
                0x10009a74       0x48 CMakeFiles/ex1_create_task.dir/D_/pico/pico-FreeRTOS/Source/timers.c.obj
 .text.prvCheckForValidListAndQueue
                0x10009abc       0x60 CMakeFiles/ex1_create_task.dir/D_/pico/pico-FreeRTOS/Source/timers.c.obj
 .text.xTimerCreateTimerTask
                0x10009b1c       0x58 CMakeFiles/ex1_create_task.dir/D_/pico/pico-FreeRTOS/Source/timers.c.obj
                0x10009b1c                xTimerCreateTimerTask
 .text.xTimerGenericCommandFromTask
                0x10009b74       0x78 CMakeFiles/ex1_create_task.dir/D_/pico/pico-FreeRTOS/Source/timers.c.obj
                0x10009b74                xTimerGenericCommandFromTask
 .text.prvSwitchTimerLists
                0x10009bec       0x88 CMakeFiles/ex1_create_task.dir/D_/pico/pico-FreeRTOS/Source/timers.c.obj
 .text.prvSampleTimeNow
                0x10009c74       0x2c CMakeFiles/ex1_create_task.dir/D_/pico/pico-FreeRTOS/Source/timers.c.obj
 .text.prvProcessExpiredTimer
                0x10009ca0       0x74 CMakeFiles/ex1_create_task.dir/D_/pico/pico-FreeRTOS/Source/timers.c.obj
 .text.prvProcessTimerOrBlockTask
                0x10009d14       0x70 CMakeFiles/ex1_create_task.dir/D_/pico/pico-FreeRTOS/Source/timers.c.obj
 .text.prvProcessReceivedCommands
                0x10009d84      0x114 CMakeFiles/ex1_create_task.dir/D_/pico/pico-FreeRTOS/Source/timers.c.obj
 .text.prvTimerTask
                0x10009e98       0x16 CMakeFiles/ex1_create_task.dir/D_/pico/pico-FreeRTOS/Source/timers.c.obj
 *fill*         0x10009eae        0x2 
 .text.xTimerPendFunctionCallFromISR
                0x10009eb0       0x28 CMakeFiles/ex1_create_task.dir/D_/pico/pico-FreeRTOS/Source/timers.c.obj
                0x10009eb0                xTimerPendFunctionCallFromISR
 .text.exception_is_compile_time_default
                0x10009ed8       0x20 CMakeFiles/ex1_create_task.dir/D_/pico/pico-sdk/src/rp2_common/hardware_exception/exception.c.obj
 .text.set_raw_exception_handler_and_restore_interrupts
                0x10009ef8       0x18 CMakeFiles/ex1_create_task.dir/D_/pico/pico-sdk/src/rp2_common/hardware_exception/exception.c.obj
 .text.exception_get_vtable_handler
                0x10009f10       0x10 CMakeFiles/ex1_create_task.dir/D_/pico/pico-sdk/src/rp2_common/hardware_exception/exception.c.obj
                0x10009f10                exception_get_vtable_handler
 .text.exception_set_exclusive_handler
                0x10009f20       0x44 CMakeFiles/ex1_create_task.dir/D_/pico/pico-sdk/src/rp2_common/hardware_exception/exception.c.obj
                0x10009f20                exception_set_exclusive_handler
 .text.core1_trampoline
                0x10009f64        0x2 CMakeFiles/ex1_create_task.dir/D_/pico/pico-sdk/src/rp2_common/pico_multicore/multicore.c.obj
 .text.core1_wrapper
                0x10009f66        0xc CMakeFiles/ex1_create_task.dir/D_/pico/pico-sdk/src/rp2_common/pico_multicore/multicore.c.obj
                0x10009f66                core1_wrapper
 .text.multicore_fifo_push_blocking
                0x10009f72       0x14 CMakeFiles/ex1_create_task.dir/D_/pico/pico-sdk/src/rp2_common/pico_multicore/multicore.c.obj
                0x10009f72                multicore_fifo_push_blocking
 .text.multicore_fifo_pop_blocking
                0x10009f86       0x16 CMakeFiles/ex1_create_task.dir/D_/pico/pico-sdk/src/rp2_common/pico_multicore/multicore.c.obj
                0x10009f86                multicore_fifo_pop_blocking
 .text.multicore_launch_core1_raw
                0x10009f9c       0x6e CMakeFiles/ex1_create_task.dir/D_/pico/pico-sdk/src/rp2_common/pico_multicore/multicore.c.obj
                0x10009f9c                multicore_launch_core1_raw
 *fill*         0x1000a00a        0x2 
 .text.multicore_launch_core1_with_stack
                0x1000a00c       0x50 CMakeFiles/ex1_create_task.dir/D_/pico/pico-sdk/src/rp2_common/pico_multicore/multicore.c.obj
                0x1000a00c                multicore_launch_core1_with_stack
 .text.multicore_launch_core1
                0x1000a05c       0x24 CMakeFiles/ex1_create_task.dir/D_/pico/pico-sdk/src/rp2_common/pico_multicore/multicore.c.obj
                0x1000a05c                multicore_launch_core1
 .text.prvHeapInit
                0x1000a080       0x64 CMakeFiles/ex1_create_task.dir/D_/pico/pico-FreeRTOS/Source/portable/MemMang/heap_4.c.obj
 .text.prvInsertBlockIntoFreeList
                0x1000a0e4       0x54 CMakeFiles/ex1_create_task.dir/D_/pico/pico-FreeRTOS/Source/portable/MemMang/heap_4.c.obj
 .text.pvPortMalloc
                0x1000a138      0x128 CMakeFiles/ex1_create_task.dir/D_/pico/pico-FreeRTOS/Source/portable/MemMang/heap_4.c.obj
                0x1000a138                pvPortMalloc
 .text.vPortFree
                0x1000a260       0x84 CMakeFiles/ex1_create_task.dir/D_/pico/pico-FreeRTOS/Source/portable/MemMang/heap_4.c.obj
                0x1000a260                vPortFree
 .text.strlen   0x1000a2e4       0x5c d:/pico/armcc/10 2021.10/bin/../lib/gcc/arm-none-eabi/10.3.1/../../../../arm-none-eabi/lib/thumb/v6-m/nofp\libg.a(lib_a-strlen-stub.o)
                0x1000a2e4                strlen
 *(.fini)
 .fini          0x1000a340        0x4 d:/pico/armcc/10 2021.10/bin/../lib/gcc/arm-none-eabi/10.3.1/thumb/v6-m/nofp/crti.o
                0x1000a340                _fini
 *fill*         0x1000a344        0x4 
 .fini.__stub   0x1000a348       0x70 linker stubs
 *crtbegin.o(.ctors)
 *crtbegin?.o(.ctors)
 *(EXCLUDE_FILE(*crtend.o *crtend?.o) .ctors)
 *(SORT_BY_NAME(.ctors.*))
 *(.ctors)
 *crtbegin.o(.dtors)
 *crtbegin?.o(.dtors)
 *(EXCLUDE_FILE(*crtend.o *crtend?.o) .dtors)
 *(SORT_BY_NAME(.dtors.*))
 *(.dtors)
 *(.eh_frame*)
 .eh_frame      0x1000a3b8        0x0 d:/pico/armcc/10 2021.10/bin/../lib/gcc/arm-none-eabi/10.3.1/thumb/v6-m/nofp/crtbegin.o
                0x1000a3b8                . = ALIGN (0x4)

.glue_7         0x1000a3b8        0x0
 .glue_7        0x1000a3b8        0x0 linker stubs

.glue_7t        0x1000a3b8        0x0
 .glue_7t       0x1000a3b8        0x0 linker stubs

.vfp11_veneer   0x1000a3b8        0x0
 .vfp11_veneer  0x1000a3b8        0x0 linker stubs

.v4_bx          0x1000a3b8        0x0
 .v4_bx         0x1000a3b8        0x0 linker stubs

.iplt           0x1000a3b8        0x0
 .iplt          0x1000a3b8        0x0 d:/pico/armcc/10 2021.10/bin/../lib/gcc/arm-none-eabi/10.3.1/thumb/v6-m/nofp/crtbegin.o

.rodata         0x1000a3b8     0x281c
 *(EXCLUDE_FILE(*libm.a: *libc.a:*lib_a-mem*.o *libgcc.a:) .rodata*)
 .rodata.vTask1.str1.4
                0x1000a3b8        0x7 CMakeFiles/ex1_create_task.dir/main.c.obj
 *fill*         0x1000a3bf        0x1 
 .rodata.vTask2.str1.4
                0x1000a3c0        0x7 CMakeFiles/ex1_create_task.dir/main.c.obj
 *fill*         0x1000a3c7        0x1 
 .rodata.vApplicationMallocFailedHook.str1.4
                0x1000a3c8       0x56 CMakeFiles/ex1_create_task.dir/main.c.obj
 *fill*         0x1000a41e        0x2 
 .rodata.__func__.0
                0x1000a420       0x1e CMakeFiles/ex1_create_task.dir/main.c.obj
 *fill*         0x1000a43e        0x2 
 .rodata.__func__.1
                0x1000a440       0x1d CMakeFiles/ex1_create_task.dir/main.c.obj
 *fill*         0x1000a45d        0x3 
 .rodata.spin_lock_claim.str1.4
                0x1000a460       0x1f CMakeFiles/ex1_create_task.dir/D_/pico/pico-sdk/src/rp2_common/hardware_sync/sync.c.obj
 *fill*         0x1000a47f        0x1 
 .rodata.spin_lock_claim_unused.str1.4
                0x1000a480       0x1b CMakeFiles/ex1_create_task.dir/D_/pico/pico-sdk/src/rp2_common/hardware_sync/sync.c.obj
 *fill*         0x1000a49b        0x1 
 .rodata.make_branch.str1.4
                0x1000a49c       0x63 CMakeFiles/ex1_create_task.dir/D_/pico/pico-sdk/src/rp2_common/hardware_irq/irq.c.obj
 *fill*         0x1000a4ff        0x1 
 .rodata.insert_branch_and_link.str1.4
                0x1000a500       0x10 CMakeFiles/ex1_create_task.dir/D_/pico/pico-sdk/src/rp2_common/hardware_irq/irq.c.obj
 .rodata.irq_set_exclusive_handler.str1.4
                0x1000a510       0x36 CMakeFiles/ex1_create_task.dir/D_/pico/pico-sdk/src/rp2_common/hardware_irq/irq.c.obj
 *fill*         0x1000a546        0x2 
 .rodata.irq_add_shared_handler.str1.4
                0x1000a548       0xd9 CMakeFiles/ex1_create_task.dir/D_/pico/pico-sdk/src/rp2_common/hardware_irq/irq.c.obj
 *fill*         0x1000a621        0x3 
 .rodata.irq_remove_handler.str1.4
                0x1000a624       0x2a CMakeFiles/ex1_create_task.dir/D_/pico/pico-sdk/src/rp2_common/hardware_irq/irq.c.obj
 *fill*         0x1000a64e        0x2 
 .rodata.irq_add_tail_to_free_list.str1.4
                0x1000a650       0x3a CMakeFiles/ex1_create_task.dir/D_/pico/pico-sdk/src/rp2_common/hardware_irq/irq.c.obj
 *fill*         0x1000a68a        0x2 
 .rodata.user_irq_claim_unused.str1.4
                0x1000a68c       0x1b CMakeFiles/ex1_create_task.dir/D_/pico/pico-sdk/src/rp2_common/hardware_irq/irq.c.obj
 *fill*         0x1000a6a7        0x1 
 .rodata.__func__.0
                0x1000a6a8       0x1a CMakeFiles/ex1_create_task.dir/D_/pico/pico-sdk/src/rp2_common/hardware_irq/irq.c.obj
 *fill*         0x1000a6c2        0x2 
 .rodata.__func__.1
                0x1000a6c4       0x17 CMakeFiles/ex1_create_task.dir/D_/pico/pico-sdk/src/rp2_common/hardware_irq/irq.c.obj
 *fill*         0x1000a6db        0x1 
 .rodata.__func__.2
                0x1000a6dc       0x13 CMakeFiles/ex1_create_task.dir/D_/pico/pico-sdk/src/rp2_common/hardware_irq/irq.c.obj
 *fill*         0x1000a6ef        0x1 
 .rodata.__func__.3
                0x1000a6f0        0xc CMakeFiles/ex1_create_task.dir/D_/pico/pico-sdk/src/rp2_common/hardware_irq/irq.c.obj
 .rodata.__func__.4
                0x1000a6fc        0xf CMakeFiles/ex1_create_task.dir/D_/pico/pico-sdk/src/rp2_common/hardware_irq/irq.c.obj
 *fill*         0x1000a70b        0x1 
 .rodata.__func__.5
                0x1000a70c       0x17 CMakeFiles/ex1_create_task.dir/D_/pico/pico-sdk/src/rp2_common/hardware_irq/irq.c.obj
 *fill*         0x1000a723        0x1 
 .rodata.__func__.6
                0x1000a724       0x1a CMakeFiles/ex1_create_task.dir/D_/pico/pico-sdk/src/rp2_common/hardware_irq/irq.c.obj
 *fill*         0x1000a73e        0x2 
 .rodata.repeating_timer_callback.str1.4
                0x1000a740       0x41 CMakeFiles/ex1_create_task.dir/D_/pico/pico-sdk/src/common/pico_time/time.c.obj
 *fill*         0x1000a781        0x3 
 .rodata.alarm_pool_dump_key.str1.4
                0x1000a784       0x33 CMakeFiles/ex1_create_task.dir/D_/pico/pico-sdk/src/common/pico_time/time.c.obj
 *fill*         0x1000a7b7        0x1 
 .rodata.ph_add_child_node.str1.4
                0x1000a7b8       0x8a CMakeFiles/ex1_create_task.dir/D_/pico/pico-sdk/src/common/pico_time/time.c.obj
 *fill*         0x1000a842        0x2 
 .rodata.add_alarm_under_lock.str1.4
                0x1000a844       0x28 CMakeFiles/ex1_create_task.dir/D_/pico/pico-sdk/src/common/pico_time/time.c.obj
                                 0x2b (size before relaxing)
 .rodata.alarm_pool_alarm_callback.str1.4
                0x1000a86c       0xda CMakeFiles/ex1_create_task.dir/D_/pico/pico-sdk/src/common/pico_time/time.c.obj
 *fill*         0x1000a946        0x2 
 .rodata.alarm_pool_get_default.str1.4
                0x1000a948       0x21 CMakeFiles/ex1_create_task.dir/D_/pico/pico-sdk/src/common/pico_time/time.c.obj
 *fill*         0x1000a969        0x3 
 .rodata.alarm_pool_cancel_alarm.str1.4
                0x1000a96c       0x27 CMakeFiles/ex1_create_task.dir/D_/pico/pico-sdk/src/common/pico_time/time.c.obj
 *fill*         0x1000a993        0x1 
 .rodata.__func__.1
                0x1000a994       0x18 CMakeFiles/ex1_create_task.dir/D_/pico/pico-sdk/src/common/pico_time/time.c.obj
 .rodata.__func__.10
                0x1000a9ac       0x15 CMakeFiles/ex1_create_task.dir/D_/pico/pico-sdk/src/common/pico_time/time.c.obj
 *fill*         0x1000a9c1        0x3 
 .rodata.__func__.11
                0x1000a9c4       0x1a CMakeFiles/ex1_create_task.dir/D_/pico/pico-sdk/src/common/pico_time/time.c.obj
 *fill*         0x1000a9de        0x2 
 .rodata.__func__.12
                0x1000a9e0        0xa CMakeFiles/ex1_create_task.dir/D_/pico/pico-sdk/src/common/pico_time/time.c.obj
 *fill*         0x1000a9ea        0x2 
 .rodata.__func__.3
                0x1000a9ec       0x17 CMakeFiles/ex1_create_task.dir/D_/pico/pico-sdk/src/common/pico_time/time.c.obj
 *fill*         0x1000aa03        0x1 
 .rodata.__func__.4
                0x1000aa04       0x12 CMakeFiles/ex1_create_task.dir/D_/pico/pico-sdk/src/common/pico_time/time.c.obj
 *fill*         0x1000aa16        0x2 
 .rodata.__func__.5
                0x1000aa18        0xd CMakeFiles/ex1_create_task.dir/D_/pico/pico-sdk/src/common/pico_time/time.c.obj
 *fill*         0x1000aa25        0x3 
 .rodata.__func__.6
                0x1000aa28       0x12 CMakeFiles/ex1_create_task.dir/D_/pico/pico-sdk/src/common/pico_time/time.c.obj
 *fill*         0x1000aa3a        0x2 
 .rodata.__func__.7
                0x1000aa3c        0xf CMakeFiles/ex1_create_task.dir/D_/pico/pico-sdk/src/common/pico_time/time.c.obj
 *fill*         0x1000aa4b        0x1 
 .rodata.__func__.8
                0x1000aa4c        0xc CMakeFiles/ex1_create_task.dir/D_/pico/pico-sdk/src/common/pico_time/time.c.obj
 .rodata.__func__.9
                0x1000aa58       0x15 CMakeFiles/ex1_create_task.dir/D_/pico/pico-sdk/src/common/pico_time/time.c.obj
 *fill*         0x1000aa6d        0x3 
 .rodata.hardware_alarm_claim.str1.4
                0x1000aa70       0x22 CMakeFiles/ex1_create_task.dir/D_/pico/pico-sdk/src/rp2_common/hardware_timer/timer.c.obj
 *fill*         0x1000aa92        0x2 
 .rodata.hardware_alarm_set_target.str1.4
                0x1000aa94       0x5b CMakeFiles/ex1_create_task.dir/D_/pico/pico-sdk/src/rp2_common/hardware_timer/timer.c.obj
 *fill*         0x1000aaef        0x1 
 .rodata.__func__.0
                0x1000aaf0       0x1a CMakeFiles/ex1_create_task.dir/D_/pico/pico-sdk/src/rp2_common/hardware_timer/timer.c.obj
 .rodata.ph_add_child_node.str1.4
                0x1000ab0a       0x8a CMakeFiles/ex1_create_task.dir/D_/pico/pico-sdk/src/common/pico_util/pheap.c.obj
 *fill*         0x1000ab0a        0x2 
 .rodata.ph_remove_any_head.str1.4
                0x1000ab0c       0x84 CMakeFiles/ex1_create_task.dir/D_/pico/pico-sdk/src/common/pico_util/pheap.c.obj
 .rodata.ph_remove_and_free_node.str1.4
                0x1000ab90       0x1e CMakeFiles/ex1_create_task.dir/D_/pico/pico-sdk/src/common/pico_util/pheap.c.obj
                                 0x26 (size before relaxing)
 *fill*         0x1000abae        0x2 
 .rodata.__func__.0
                0x1000abb0       0x18 CMakeFiles/ex1_create_task.dir/D_/pico/pico-sdk/src/common/pico_util/pheap.c.obj
 .rodata.__func__.1
                0x1000abc8       0x13 CMakeFiles/ex1_create_task.dir/D_/pico/pico-sdk/src/common/pico_util/pheap.c.obj
 *fill*         0x1000abdb        0x1 
 .rodata.__func__.2
                0x1000abdc       0x12 CMakeFiles/ex1_create_task.dir/D_/pico/pico-sdk/src/common/pico_util/pheap.c.obj
 *fill*         0x1000abee        0x2 
 .rodata.__func__.3
                0x1000abf0        0xc CMakeFiles/ex1_create_task.dir/D_/pico/pico-sdk/src/common/pico_util/pheap.c.obj
 .rodata.str1.4
                0x1000abfc       0x81 CMakeFiles/ex1_create_task.dir/D_/pico/pico-sdk/src/common/pico_sync/mutex.c.obj
                                 0xd9 (size before relaxing)
 *fill*         0x1000ac7d        0x3 
 .rodata.__func__.1
                0x1000ac80        0xb CMakeFiles/ex1_create_task.dir/D_/pico/pico-sdk/src/common/pico_sync/mutex.c.obj
 *fill*         0x1000ac8b        0x1 
 .rodata.__func__.3
                0x1000ac8c       0x18 CMakeFiles/ex1_create_task.dir/D_/pico/pico-sdk/src/common/pico_sync/mutex.c.obj
 .rodata.__func__.4
                0x1000aca4       0x15 CMakeFiles/ex1_create_task.dir/D_/pico/pico-sdk/src/common/pico_sync/mutex.c.obj
 *fill*         0x1000acb9        0x3 
 .rodata.__assert_func.str1.4
                0x1000acbc       0x3f CMakeFiles/ex1_create_task.dir/D_/pico/pico-sdk/src/rp2_common/pico_runtime/runtime.c.obj
                                 0x43 (size before relaxing)
 *fill*         0x1000acfb        0x1 
 .rodata.runtime_init.str1.4
                0x1000acfc       0x57 CMakeFiles/ex1_create_task.dir/D_/pico/pico-sdk/src/rp2_common/pico_runtime/runtime.c.obj
 *fill*         0x1000ad53        0x1 
 .rodata.panic.str1.4
                0x1000ad54       0x12 CMakeFiles/ex1_create_task.dir/D_/pico/pico-sdk/src/rp2_common/pico_runtime/runtime.c.obj
 *fill*         0x1000ad66        0x2 
 .rodata.panic_unsupported.str1.4
                0x1000ad68        0xe CMakeFiles/ex1_create_task.dir/D_/pico/pico-sdk/src/rp2_common/pico_runtime/runtime.c.obj
 *fill*         0x1000ad76        0x2 
 .rodata.__func__.1
                0x1000ad78        0xd CMakeFiles/ex1_create_task.dir/D_/pico/pico-sdk/src/rp2_common/pico_runtime/runtime.c.obj
 *fill*         0x1000ad85        0x3 
 .rodata.clock_configure.str1.4
                0x1000ad88       0x4d CMakeFiles/ex1_create_task.dir/D_/pico/pico-sdk/src/rp2_common/hardware_clocks/clocks.c.obj
 *fill*         0x1000add5        0x3 
 .rodata.__func__.1
                0x1000add8       0x10 CMakeFiles/ex1_create_task.dir/D_/pico/pico-sdk/src/rp2_common/hardware_clocks/clocks.c.obj
 .rodata.pll_init.str1.4
                0x1000ade8      0x12f CMakeFiles/ex1_create_task.dir/D_/pico/pico-sdk/src/rp2_common/hardware_pll/pll.c.obj
 *fill*         0x1000af17        0x1 
 .rodata.__func__.0
                0x1000af18        0x9 CMakeFiles/ex1_create_task.dir/D_/pico/pico-sdk/src/rp2_common/hardware_pll/pll.c.obj
 *fill*         0x1000af21        0x3 
 .rodata._ftoa.str1.4
                0x1000af24       0x15 CMakeFiles/ex1_create_task.dir/D_/pico/pico-sdk/src/rp2_common/pico_printf/printf.c.obj
 *fill*         0x1000af39        0x3 
 .rodata._vsnprintf
                0x1000af3c      0x1e0 CMakeFiles/ex1_create_task.dir/D_/pico/pico-sdk/src/rp2_common/pico_printf/printf.c.obj
 *fill*         0x1000b11c        0x4 
 .rodata.pow10.0
                0x1000b120       0x50 CMakeFiles/ex1_create_task.dir/D_/pico/pico-sdk/src/rp2_common/pico_printf/printf.c.obj
 .rodata.__aeabi_double_init.str1.4
                0x1000b170       0x9e CMakeFiles/ex1_create_task.dir/D_/pico/pico-sdk/src/rp2_common/pico_double/double_init_rom.c.obj
 *fill*         0x1000b20e        0x2 
 .rodata.__func__.0
                0x1000b210       0x14 CMakeFiles/ex1_create_task.dir/D_/pico/pico-sdk/src/rp2_common/pico_double/double_init_rom.c.obj
 .rodata.__aeabi_float_init.str1.4
                0x1000b224       0x70 CMakeFiles/ex1_create_task.dir/D_/pico/pico-sdk/src/rp2_common/pico_float/float_init_rom.c.obj
                                 0x74 (size before relaxing)
 .rodata.__func__.0
                0x1000b294       0x13 CMakeFiles/ex1_create_task.dir/D_/pico/pico-sdk/src/rp2_common/pico_float/float_init_rom.c.obj
 *fill*         0x1000b2a7        0x1 
 .rodata.str1.4
                0x1000b2a8       0x44 CMakeFiles/ex1_create_task.dir/D_/pico/pico-sdk/src/rp2_common/pico_standard_link/binary_info.c.obj
 .rodata.__bi_44
                0x1000b2ec        0xc CMakeFiles/ex1_create_task.dir/D_/pico/pico-sdk/src/rp2_common/pico_standard_link/binary_info.c.obj
 .rodata.__bi_75
                0x1000b2f8        0xc CMakeFiles/ex1_create_task.dir/D_/pico/pico-sdk/src/rp2_common/pico_standard_link/binary_info.c.obj
 .rodata.__bi_81
                0x1000b304        0xc CMakeFiles/ex1_create_task.dir/D_/pico/pico-sdk/src/rp2_common/pico_standard_link/binary_info.c.obj
 .rodata.crlf_str.3
                0x1000b310        0x2 CMakeFiles/ex1_create_task.dir/D_/pico/pico-sdk/src/rp2_common/pico_stdio/stdio.c.obj
 *fill*         0x1000b312        0x2 
 .rodata._resetd_driver
                0x1000b314       0x18 CMakeFiles/ex1_create_task.dir/D_/pico/pico-sdk/src/rp2_common/pico_stdio_usb/reset_interface.c.obj
 .rodata.timer_task.str1.4
                0x1000b32c       0x63 CMakeFiles/ex1_create_task.dir/D_/pico/pico-sdk/src/rp2_common/pico_stdio_usb/stdio_usb.c.obj
 .rodata.stdio_usb_init.str1.4
                0x1000b38f       0x57 CMakeFiles/ex1_create_task.dir/D_/pico/pico-sdk/src/rp2_common/pico_stdio_usb/stdio_usb.c.obj
 *fill*         0x1000b38f        0x1 
 .rodata.str1.4
                0x1000b390       0x13 CMakeFiles/ex1_create_task.dir/D_/pico/pico-sdk/src/rp2_common/pico_stdio_usb/stdio_usb.c.obj
 *fill*         0x1000b3a3        0x1 
 .rodata.__bi_118.2
                0x1000b3a4        0xc CMakeFiles/ex1_create_task.dir/D_/pico/pico-sdk/src/rp2_common/pico_stdio_usb/stdio_usb.c.obj
 .rodata.__func__.0
                0x1000b3b0       0x15 CMakeFiles/ex1_create_task.dir/D_/pico/pico-sdk/src/rp2_common/pico_stdio_usb/stdio_usb.c.obj
 *fill*         0x1000b3c5        0x3 
 .rodata.__func__.1
                0x1000b3c8        0xb CMakeFiles/ex1_create_task.dir/D_/pico/pico-sdk/src/rp2_common/pico_stdio_usb/stdio_usb.c.obj
 *fill*         0x1000b3d3        0x1 
 .rodata.str1.4
                0x1000b3d4       0x2a CMakeFiles/ex1_create_task.dir/D_/pico/pico-sdk/src/rp2_common/pico_stdio_usb/stdio_usb_descriptors.c.obj
 *fill*         0x1000b3fe        0x2 
 .rodata.usbd_desc_cfg
                0x1000b400       0x54 CMakeFiles/ex1_create_task.dir/D_/pico/pico-sdk/src/rp2_common/pico_stdio_usb/stdio_usb_descriptors.c.obj
 .rodata.usbd_desc_device
                0x1000b454       0x12 CMakeFiles/ex1_create_task.dir/D_/pico/pico-sdk/src/rp2_common/pico_stdio_usb/stdio_usb_descriptors.c.obj
 *fill*         0x1000b466        0x2 
 .rodata.usbd_desc_str
                0x1000b468       0x18 CMakeFiles/ex1_create_task.dir/D_/pico/pico-sdk/src/rp2_common/pico_stdio_usb/stdio_usb_descriptors.c.obj
 .rodata._hw_endpoint_alloc.str1.4
                0x1000b480       0xad CMakeFiles/ex1_create_task.dir/D_/pico/pico-sdk/lib/tinyusb/src/portable/raspberrypi/rp2040/dcd_rp2040.c.obj
 *fill*         0x1000b52d        0x3 
 .rodata.dcd_rp2040_irq.str1.4
                0x1000b530       0x14 CMakeFiles/ex1_create_task.dir/D_/pico/pico-sdk/lib/tinyusb/src/portable/raspberrypi/rp2040/dcd_rp2040.c.obj
 .rodata.dcd_int_enable.str1.4
                0x1000b544        0xc CMakeFiles/ex1_create_task.dir/D_/pico/pico-sdk/lib/tinyusb/src/portable/raspberrypi/rp2040/dcd_rp2040.c.obj
 .rodata.__func__.0
                0x1000b550        0xe CMakeFiles/ex1_create_task.dir/D_/pico/pico-sdk/lib/tinyusb/src/portable/raspberrypi/rp2040/dcd_rp2040.c.obj
 *fill*         0x1000b55e        0x2 
 .rodata.__func__.1
                0x1000b560        0xe CMakeFiles/ex1_create_task.dir/D_/pico/pico-sdk/lib/tinyusb/src/portable/raspberrypi/rp2040/dcd_rp2040.c.obj
 *fill*         0x1000b56e        0x2 
 .rodata.__func__.3
                0x1000b570       0x10 CMakeFiles/ex1_create_task.dir/D_/pico/pico-sdk/lib/tinyusb/src/portable/raspberrypi/rp2040/dcd_rp2040.c.obj
 .rodata.__func__.5
                0x1000b580        0xf CMakeFiles/ex1_create_task.dir/D_/pico/pico-sdk/lib/tinyusb/src/portable/raspberrypi/rp2040/dcd_rp2040.c.obj
 *fill*         0x1000b58f        0x1 
 .rodata.__func__.6
                0x1000b590       0x13 CMakeFiles/ex1_create_task.dir/D_/pico/pico-sdk/lib/tinyusb/src/portable/raspberrypi/rp2040/dcd_rp2040.c.obj
 *fill*         0x1000b5a3        0x1 
 .rodata.__func__.7
                0x1000b5a4        0x9 CMakeFiles/ex1_create_task.dir/D_/pico/pico-sdk/lib/tinyusb/src/portable/raspberrypi/rp2040/dcd_rp2040.c.obj
 *fill*         0x1000b5ad        0x3 
 .rodata.sync_ep_buffer.str1.4
                0x1000b5b0       0x89 CMakeFiles/ex1_create_task.dir/D_/pico/pico-sdk/lib/tinyusb/src/portable/raspberrypi/rp2040/rp2040_usb.c.obj
 *fill*         0x1000b639        0x3 
 .rodata._hw_endpoint_buffer_control_update32.str1.4
                0x1000b63c       0x1f CMakeFiles/ex1_create_task.dir/D_/pico/pico-sdk/lib/tinyusb/src/portable/raspberrypi/rp2040/rp2040_usb.c.obj
 *fill*         0x1000b65b        0x1 
 .rodata.hw_endpoint_xfer_start.str1.4
                0x1000b65c       0x38 CMakeFiles/ex1_create_task.dir/D_/pico/pico-sdk/lib/tinyusb/src/portable/raspberrypi/rp2040/rp2040_usb.c.obj
 .rodata.hw_endpoint_xfer_continue.str1.4
                0x1000b694       0x29 CMakeFiles/ex1_create_task.dir/D_/pico/pico-sdk/lib/tinyusb/src/portable/raspberrypi/rp2040/rp2040_usb.c.obj
 *fill*         0x1000b6bd        0x3 
 .rodata.str1.4
                0x1000b6c0        0x7 CMakeFiles/ex1_create_task.dir/D_/pico/pico-sdk/lib/tinyusb/src/portable/raspberrypi/rp2040/rp2040_usb.c.obj
 *fill*         0x1000b6c7        0x1 
 .rodata.__func__.0
                0x1000b6c8        0xf CMakeFiles/ex1_create_task.dir/D_/pico/pico-sdk/lib/tinyusb/src/portable/raspberrypi/rp2040/rp2040_usb.c.obj
 *fill*         0x1000b6d7        0x1 
 .rodata.process_set_config.str1.4
                0x1000b6d8       0x17 CMakeFiles/ex1_create_task.dir/D_/pico/pico-sdk/lib/tinyusb/src/device/usbd.c.obj
 *fill*         0x1000b6ef        0x1 
 .rodata.process_get_descriptor
                0x1000b6f0       0x40 CMakeFiles/ex1_create_task.dir/D_/pico/pico-sdk/lib/tinyusb/src/device/usbd.c.obj
 .rodata.process_control_request
                0x1000b730       0x28 CMakeFiles/ex1_create_task.dir/D_/pico/pico-sdk/lib/tinyusb/src/device/usbd.c.obj
 .rodata.tud_task
                0x1000b758       0x24 CMakeFiles/ex1_create_task.dir/D_/pico/pico-sdk/lib/tinyusb/src/device/usbd.c.obj
 .rodata.__func__.2
                0x1000b77c        0xf CMakeFiles/ex1_create_task.dir/D_/pico/pico-sdk/lib/tinyusb/src/device/usbd.c.obj
 *fill*         0x1000b78b        0x1 
 .rodata.__func__.3
                0x1000b78c        0xf CMakeFiles/ex1_create_task.dir/D_/pico/pico-sdk/lib/tinyusb/src/device/usbd.c.obj
 *fill*         0x1000b79b        0x1 
 .rodata.__func__.4
                0x1000b79c       0x14 CMakeFiles/ex1_create_task.dir/D_/pico/pico-sdk/lib/tinyusb/src/device/usbd.c.obj
 .rodata.__func__.5
                0x1000b7b0       0x10 CMakeFiles/ex1_create_task.dir/D_/pico/pico-sdk/lib/tinyusb/src/device/usbd.c.obj
 .rodata.__func__.6
                0x1000b7c0       0x17 CMakeFiles/ex1_create_task.dir/D_/pico/pico-sdk/lib/tinyusb/src/device/usbd.c.obj
 *fill*         0x1000b7d7        0x1 
 .rodata.__func__.7
                0x1000b7d8       0x13 CMakeFiles/ex1_create_task.dir/D_/pico/pico-sdk/lib/tinyusb/src/device/usbd.c.obj
 *fill*         0x1000b7eb        0x1 
 .rodata.__func__.8
                0x1000b7ec       0x18 CMakeFiles/ex1_create_task.dir/D_/pico/pico-sdk/lib/tinyusb/src/device/usbd.c.obj
 .rodata.__func__.9
                0x1000b804        0x9 CMakeFiles/ex1_create_task.dir/D_/pico/pico-sdk/lib/tinyusb/src/device/usbd.c.obj
 *fill*         0x1000b80d        0x3 
 .rodata._usbd_driver
                0x1000b810       0x18 CMakeFiles/ex1_create_task.dir/D_/pico/pico-sdk/lib/tinyusb/src/device/usbd.c.obj
 .rodata.tud_control_xfer.str1.4
                0x1000b828       0x17 CMakeFiles/ex1_create_task.dir/D_/pico/pico-sdk/lib/tinyusb/src/device/usbd_control.c.obj
 .rodata.__func__.0
                0x1000b828       0x15 CMakeFiles/ex1_create_task.dir/D_/pico/pico-sdk/lib/tinyusb/src/device/usbd_control.c.obj
 *fill*         0x1000b83d        0x3 
 .rodata.__func__.1
                0x1000b840       0x11 CMakeFiles/ex1_create_task.dir/D_/pico/pico-sdk/lib/tinyusb/src/device/usbd_control.c.obj
 .rodata.tud_cdc_n_write_flush.str1.4
                0x1000b851       0x17 CMakeFiles/ex1_create_task.dir/D_/pico/pico-sdk/lib/tinyusb/src/class/cdc/cdc_device.c.obj
 *fill*         0x1000b851        0x3 
 .rodata.__func__.0
                0x1000b854        0xd CMakeFiles/ex1_create_task.dir/D_/pico/pico-sdk/lib/tinyusb/src/class/cdc/cdc_device.c.obj
 *fill*         0x1000b861        0x3 
 .rodata.__func__.1
                0x1000b864        0xa CMakeFiles/ex1_create_task.dir/D_/pico/pico-sdk/lib/tinyusb/src/class/cdc/cdc_device.c.obj
 *fill*         0x1000b86e        0x2 
 .rodata.__func__.2
                0x1000b870       0x16 CMakeFiles/ex1_create_task.dir/D_/pico/pico-sdk/lib/tinyusb/src/class/cdc/cdc_device.c.obj
 .rodata.tusb_init.str1.4
                0x1000b886       0x17 CMakeFiles/ex1_create_task.dir/D_/pico/pico-sdk/lib/tinyusb/src/tusb.c.obj
 *fill*         0x1000b886        0x2 
 .rodata.__func__.0
                0x1000b888       0x11 CMakeFiles/ex1_create_task.dir/D_/pico/pico-sdk/lib/tinyusb/src/tusb.c.obj
 *fill*         0x1000b899        0x3 
 .rodata.__func__.1
                0x1000b89c        0xa CMakeFiles/ex1_create_task.dir/D_/pico/pico-sdk/lib/tinyusb/src/tusb.c.obj
 *fill*         0x1000b8a6        0x2 
 .rodata.pico_get_unique_board_id_string.str1.4
                0x1000b8a8       0x43 CMakeFiles/ex1_create_task.dir/D_/pico/pico-sdk/src/rp2_common/pico_unique_id/unique_id.c.obj
 *fill*         0x1000b8eb        0x1 
 .rodata.__func__.0
                0x1000b8ec       0x20 CMakeFiles/ex1_create_task.dir/D_/pico/pico-sdk/src/rp2_common/pico_unique_id/unique_id.c.obj
 .rodata.str1.4
                0x1000b90c      0x14e CMakeFiles/ex1_create_task.dir/D_/pico/pico-sdk/src/rp2_common/hardware_flash/flash.c.obj
 *fill*         0x1000ba5a        0x2 
 .rodata.__func__.0
                0x1000ba5c        0xd CMakeFiles/ex1_create_task.dir/D_/pico/pico-sdk/src/rp2_common/hardware_flash/flash.c.obj
 .rodata.prvGetTicksToWaitBefore.str1.4
                0x1000ba69       0x57 CMakeFiles/ex1_create_task.dir/D_/pico/pico-FreeRTOS/Source/portable/ThirdParty/GCC/RP2040/port.c.obj
 *fill*         0x1000ba69        0x3 
 .rodata.vPortYield.str1.4
                0x1000ba6c       0x63 CMakeFiles/ex1_create_task.dir/D_/pico/pico-FreeRTOS/Source/portable/ThirdParty/GCC/RP2040/port.c.obj
 *fill*         0x1000bacf        0x1 
 .rodata.vYieldCore.str1.4
                0x1000bad0       0x1a CMakeFiles/ex1_create_task.dir/D_/pico/pico-FreeRTOS/Source/portable/ThirdParty/GCC/RP2040/port.c.obj
 *fill*         0x1000baea        0x2 
 .rodata.xPortStartScheduler.str1.4
                0x1000baec       0x30 CMakeFiles/ex1_create_task.dir/D_/pico/pico-FreeRTOS/Source/portable/ThirdParty/GCC/RP2040/port.c.obj
 .rodata.vPortLockInternalSpinUnlockWithWait.str1.4
                0x1000bb1c       0x72 CMakeFiles/ex1_create_task.dir/D_/pico/pico-FreeRTOS/Source/portable/ThirdParty/GCC/RP2040/port.c.obj
 *fill*         0x1000bb8e        0x2 
 .rodata.__func__.0
                0x1000bb90       0x15 CMakeFiles/ex1_create_task.dir/D_/pico/pico-FreeRTOS/Source/portable/ThirdParty/GCC/RP2040/port.c.obj
 *fill*         0x1000bba5        0x3 
 .rodata.__func__.1
                0x1000bba8       0x37 CMakeFiles/ex1_create_task.dir/D_/pico/pico-FreeRTOS/Source/portable/ThirdParty/GCC/RP2040/port.c.obj
 *fill*         0x1000bbdf        0x1 
 .rodata.__func__.2
                0x1000bbe0       0x24 CMakeFiles/ex1_create_task.dir/D_/pico/pico-FreeRTOS/Source/portable/ThirdParty/GCC/RP2040/port.c.obj
 .rodata.__func__.3
                0x1000bc04        0xb CMakeFiles/ex1_create_task.dir/D_/pico/pico-FreeRTOS/Source/portable/ThirdParty/GCC/RP2040/port.c.obj
 *fill*         0x1000bc0f        0x1 
 .rodata.__func__.4
                0x1000bc10        0xb CMakeFiles/ex1_create_task.dir/D_/pico/pico-FreeRTOS/Source/portable/ThirdParty/GCC/RP2040/port.c.obj
 *fill*         0x1000bc1b        0x1 
 .rodata.__func__.5
                0x1000bc1c       0x14 CMakeFiles/ex1_create_task.dir/D_/pico/pico-FreeRTOS/Source/portable/ThirdParty/GCC/RP2040/port.c.obj
 .rodata.xEventGroupWaitBits.str1.4
                0x1000bc30       0xcb CMakeFiles/ex1_create_task.dir/D_/pico/pico-FreeRTOS/Source/event_groups.c.obj
 *fill*         0x1000bcfb        0x1 
 .rodata.xEventGroupSetBits.str1.4
                0x1000bcfc       0x24 CMakeFiles/ex1_create_task.dir/D_/pico/pico-FreeRTOS/Source/event_groups.c.obj
 .rodata.__func__.1
                0x1000bd20       0x13 CMakeFiles/ex1_create_task.dir/D_/pico/pico-FreeRTOS/Source/event_groups.c.obj
 *fill*         0x1000bd33        0x1 
 .rodata.__func__.3
                0x1000bd34       0x14 CMakeFiles/ex1_create_task.dir/D_/pico/pico-FreeRTOS/Source/event_groups.c.obj
 .rodata.prvNotifyQueueSetContainer.str1.4
                0x1000bd48       0xa2 CMakeFiles/ex1_create_task.dir/D_/pico/pico-FreeRTOS/Source/queue.c.obj
 *fill*         0x1000bdea        0x2 
 .rodata.xQueueGenericReset.str1.4
                0x1000bdec        0x8 CMakeFiles/ex1_create_task.dir/D_/pico/pico-FreeRTOS/Source/queue.c.obj
 .rodata.xQueueGenericCreate.str1.4
                0x1000bdf4       0xb2 CMakeFiles/ex1_create_task.dir/D_/pico/pico-FreeRTOS/Source/queue.c.obj
 *fill*         0x1000bea6        0x2 
 .rodata.xQueueGenericSend.str1.4
                0x1000bea8       0xa5 CMakeFiles/ex1_create_task.dir/D_/pico/pico-FreeRTOS/Source/queue.c.obj
                                 0xfb (size before relaxing)
 *fill*         0x1000bf4d        0x3 
 .rodata.xQueueReceive.str1.4
                0x1000bf50       0x66 CMakeFiles/ex1_create_task.dir/D_/pico/pico-FreeRTOS/Source/queue.c.obj
 *fill*         0x1000bfb6        0x2 
 .rodata.uxQueueMessagesWaiting.str1.4
                0x1000bfb8        0x7 CMakeFiles/ex1_create_task.dir/D_/pico/pico-FreeRTOS/Source/queue.c.obj
 *fill*         0x1000bfbf        0x1 
 .rodata.vQueueAddToRegistry.str1.4
                0x1000bfc0        0xc CMakeFiles/ex1_create_task.dir/D_/pico/pico-FreeRTOS/Source/queue.c.obj
 .rodata.__func__.13
                0x1000bfcc        0xe CMakeFiles/ex1_create_task.dir/D_/pico/pico-FreeRTOS/Source/queue.c.obj
 *fill*         0x1000bfda        0x2 
 .rodata.__func__.15
                0x1000bfdc       0x19 CMakeFiles/ex1_create_task.dir/D_/pico/pico-FreeRTOS/Source/queue.c.obj
 *fill*         0x1000bff5        0x3 
 .rodata.__func__.16
                0x1000bff8       0x1b CMakeFiles/ex1_create_task.dir/D_/pico/pico-FreeRTOS/Source/queue.c.obj
 *fill*         0x1000c013        0x1 
 .rodata.__func__.17
                0x1000c014       0x12 CMakeFiles/ex1_create_task.dir/D_/pico/pico-FreeRTOS/Source/queue.c.obj
 *fill*         0x1000c026        0x2 
 .rodata.__func__.2
                0x1000c028       0x14 CMakeFiles/ex1_create_task.dir/D_/pico/pico-FreeRTOS/Source/queue.c.obj
 .rodata.__func__.23
                0x1000c03c       0x14 CMakeFiles/ex1_create_task.dir/D_/pico/pico-FreeRTOS/Source/queue.c.obj
 .rodata.__func__.24
                0x1000c050       0x13 CMakeFiles/ex1_create_task.dir/D_/pico/pico-FreeRTOS/Source/queue.c.obj
 *fill*         0x1000c063        0x1 
 .rodata.prvTaskIsTaskSuspended.str1.4
                0x1000c064       0x2d CMakeFiles/ex1_create_task.dir/D_/pico/pico-FreeRTOS/Source/tasks.c.obj
 *fill*         0x1000c091        0x3 
 .rodata.prvSelectHighestPriorityTask.str1.4
                0x1000c094      0x124 CMakeFiles/ex1_create_task.dir/D_/pico/pico-FreeRTOS/Source/tasks.c.obj
 .rodata.prvYieldForTask.str1.4
                0x1000c1b8       0xfe CMakeFiles/ex1_create_task.dir/D_/pico/pico-FreeRTOS/Source/tasks.c.obj
 *fill*         0x1000c2b6        0x2 
 .rodata.xTaskRemoveFromEventList.str1.4
                0x1000c2b8        0xf CMakeFiles/ex1_create_task.dir/D_/pico/pico-FreeRTOS/Source/tasks.c.obj
 *fill*         0x1000c2c7        0x1 
 .rodata.prvCheckForRunStateChange.str1.4
                0x1000c2c8      0x1e1 CMakeFiles/ex1_create_task.dir/D_/pico/pico-FreeRTOS/Source/tasks.c.obj
 *fill*         0x1000c4a9        0x3 
 .rodata.vTaskSwitchContext.str1.4
                0x1000c4ac       0x34 CMakeFiles/ex1_create_task.dir/D_/pico/pico-FreeRTOS/Source/tasks.c.obj
 .rodata.vTaskPlaceOnEventList.str1.4
                0x1000c4e0        0xc CMakeFiles/ex1_create_task.dir/D_/pico/pico-FreeRTOS/Source/tasks.c.obj
 .rodata.vTaskPlaceOnUnorderedEventList.str1.4
                0x1000c4ec       0x1a CMakeFiles/ex1_create_task.dir/D_/pico/pico-FreeRTOS/Source/tasks.c.obj
 *fill*         0x1000c506        0x2 
 .rodata.xTaskPriorityDisinherit.str1.4
                0x1000c508       0x3d CMakeFiles/ex1_create_task.dir/D_/pico/pico-FreeRTOS/Source/tasks.c.obj
 *fill*         0x1000c545        0x3 
 .rodata.prvCreateIdleTasks.str1.4
                0x1000c548        0x5 CMakeFiles/ex1_create_task.dir/D_/pico/pico-FreeRTOS/Source/tasks.c.obj
 *fill*         0x1000c54d        0x3 
 .rodata.vTaskStartScheduler.str1.4
                0x1000c550       0x12 CMakeFiles/ex1_create_task.dir/D_/pico/pico-FreeRTOS/Source/tasks.c.obj
 *fill*         0x1000c562        0x2 
 .rodata.xTaskIncrementTick.str1.4
                0x1000c564       0x76 CMakeFiles/ex1_create_task.dir/D_/pico/pico-FreeRTOS/Source/tasks.c.obj
 *fill*         0x1000c5da        0x2 
 .rodata.xTaskResumeAll.str1.4
                0x1000c5dc       0x15 CMakeFiles/ex1_create_task.dir/D_/pico/pico-FreeRTOS/Source/tasks.c.obj
 *fill*         0x1000c5f1        0x3 
 .rodata.xTaskDelayUntil.str1.4
                0x1000c5f4       0x46 CMakeFiles/ex1_create_task.dir/D_/pico/pico-FreeRTOS/Source/tasks.c.obj
 *fill*         0x1000c63a        0x2 
 .rodata.vTaskRemoveFromUnorderedEventList.str1.4
                0x1000c63c       0x2d CMakeFiles/ex1_create_task.dir/D_/pico/pico-FreeRTOS/Source/tasks.c.obj
 *fill*         0x1000c669        0x3 
 .rodata.vTaskSetTimeOutState.str1.4
                0x1000c66c        0xa CMakeFiles/ex1_create_task.dir/D_/pico/pico-FreeRTOS/Source/tasks.c.obj
 *fill*         0x1000c676        0x2 
 .rodata.xTaskCheckForTimeOut.str1.4
                0x1000c678        0xe CMakeFiles/ex1_create_task.dir/D_/pico/pico-FreeRTOS/Source/tasks.c.obj
 *fill*         0x1000c686        0x2 
 .rodata.__func__.10
                0x1000c688       0x15 CMakeFiles/ex1_create_task.dir/D_/pico/pico-FreeRTOS/Source/tasks.c.obj
 *fill*         0x1000c69d        0x3 
 .rodata.__func__.12
                0x1000c6a0       0x22 CMakeFiles/ex1_create_task.dir/D_/pico/pico-FreeRTOS/Source/tasks.c.obj
 *fill*         0x1000c6c2        0x2 
 .rodata.__func__.13
                0x1000c6c4       0x19 CMakeFiles/ex1_create_task.dir/D_/pico/pico-FreeRTOS/Source/tasks.c.obj
 *fill*         0x1000c6dd        0x3 
 .rodata.__func__.14
                0x1000c6e0       0x20 CMakeFiles/ex1_create_task.dir/D_/pico/pico-FreeRTOS/Source/tasks.c.obj
 .rodata.__func__.15
                0x1000c700       0x1f CMakeFiles/ex1_create_task.dir/D_/pico/pico-FreeRTOS/Source/tasks.c.obj
 *fill*         0x1000c71f        0x1 
 .rodata.__func__.16
                0x1000c720       0x16 CMakeFiles/ex1_create_task.dir/D_/pico/pico-FreeRTOS/Source/tasks.c.obj
 *fill*         0x1000c736        0x2 
 .rodata.__func__.17
                0x1000c738       0x13 CMakeFiles/ex1_create_task.dir/D_/pico/pico-FreeRTOS/Source/tasks.c.obj
 *fill*         0x1000c74b        0x1 
 .rodata.__func__.18
                0x1000c74c       0x13 CMakeFiles/ex1_create_task.dir/D_/pico/pico-FreeRTOS/Source/tasks.c.obj
 *fill*         0x1000c75f        0x1 
 .rodata.__func__.23
                0x1000c760        0xf CMakeFiles/ex1_create_task.dir/D_/pico/pico-FreeRTOS/Source/tasks.c.obj
 *fill*         0x1000c76f        0x1 
 .rodata.__func__.24
                0x1000c770       0x1a CMakeFiles/ex1_create_task.dir/D_/pico/pico-FreeRTOS/Source/tasks.c.obj
 *fill*         0x1000c78a        0x2 
 .rodata.__func__.27
                0x1000c78c       0x13 CMakeFiles/ex1_create_task.dir/D_/pico/pico-FreeRTOS/Source/tasks.c.obj
 *fill*         0x1000c79f        0x1 
 .rodata.__func__.28
                0x1000c7a0       0x14 CMakeFiles/ex1_create_task.dir/D_/pico/pico-FreeRTOS/Source/tasks.c.obj
 .rodata.__func__.32
                0x1000c7b4       0x1d CMakeFiles/ex1_create_task.dir/D_/pico/pico-FreeRTOS/Source/tasks.c.obj
 *fill*         0x1000c7d1        0x3 
 .rodata.__func__.36
                0x1000c7d4        0xb CMakeFiles/ex1_create_task.dir/D_/pico/pico-FreeRTOS/Source/tasks.c.obj
 *fill*         0x1000c7df        0x1 
 .rodata.__func__.39
                0x1000c7e0       0x10 CMakeFiles/ex1_create_task.dir/D_/pico/pico-FreeRTOS/Source/tasks.c.obj
 .rodata.__func__.6
                0x1000c7f0       0x12 CMakeFiles/ex1_create_task.dir/D_/pico/pico-FreeRTOS/Source/tasks.c.obj
 *fill*         0x1000c802        0x2 
 .rodata.__func__.8
                0x1000c804       0x18 CMakeFiles/ex1_create_task.dir/D_/pico/pico-FreeRTOS/Source/tasks.c.obj
 .rodata.prvCheckForValidListAndQueue.str1.4
                0x1000c81c        0x5 CMakeFiles/ex1_create_task.dir/D_/pico/pico-FreeRTOS/Source/timers.c.obj
 *fill*         0x1000c821        0x3 
 .rodata.prvInitialiseNewTimer.str1.4
                0x1000c824       0x42 CMakeFiles/ex1_create_task.dir/D_/pico/pico-FreeRTOS/Source/timers.c.obj
 *fill*         0x1000c866        0x2 
 .rodata.xTimerCreateTimerTask.str1.4
                0x1000c868       0x10 CMakeFiles/ex1_create_task.dir/D_/pico/pico-FreeRTOS/Source/timers.c.obj
 .rodata.xTimerGenericCommandFromTask.str1.4
                0x1000c878       0x2a CMakeFiles/ex1_create_task.dir/D_/pico/pico-FreeRTOS/Source/timers.c.obj
 *fill*         0x1000c8a2        0x2 
 .rodata.prvSwitchTimerLists.str1.4
                0x1000c8a4        0x8 CMakeFiles/ex1_create_task.dir/D_/pico/pico-FreeRTOS/Source/timers.c.obj
 .rodata.prvProcessReceivedCommands.str1.4
                0x1000c8ac       0x25 CMakeFiles/ex1_create_task.dir/D_/pico/pico-FreeRTOS/Source/timers.c.obj
 *fill*         0x1000c8d1        0x3 
 .rodata.prvProcessReceivedCommands
                0x1000c8d4       0x28 CMakeFiles/ex1_create_task.dir/D_/pico/pico-FreeRTOS/Source/timers.c.obj
 .rodata.__func__.11
                0x1000c8fc       0x1d CMakeFiles/ex1_create_task.dir/D_/pico/pico-FreeRTOS/Source/timers.c.obj
 *fill*         0x1000c919        0x3 
 .rodata.__func__.13
                0x1000c91c       0x1b CMakeFiles/ex1_create_task.dir/D_/pico/pico-FreeRTOS/Source/timers.c.obj
 *fill*         0x1000c937        0x1 
 .rodata.__func__.14
                0x1000c938       0x17 CMakeFiles/ex1_create_task.dir/D_/pico/pico-FreeRTOS/Source/timers.c.obj
 *fill*         0x1000c94f        0x1 
 .rodata.__func__.15
                0x1000c950       0x14 CMakeFiles/ex1_create_task.dir/D_/pico/pico-FreeRTOS/Source/timers.c.obj
 .rodata.__func__.17
                0x1000c964       0x16 CMakeFiles/ex1_create_task.dir/D_/pico/pico-FreeRTOS/Source/timers.c.obj
 *fill*         0x1000c97a        0x2 
 .rodata.exception_set_exclusive_handler.str1.4
                0x1000c97c       0x83 CMakeFiles/ex1_create_task.dir/D_/pico/pico-sdk/src/rp2_common/hardware_exception/exception.c.obj
 *fill*         0x1000c9ff        0x1 
 .rodata.__func__.1
                0x1000ca00       0x20 CMakeFiles/ex1_create_task.dir/D_/pico/pico-sdk/src/rp2_common/hardware_exception/exception.c.obj
 .rodata.multicore_lockout_start_block_until.str1.4
                0x1000ca20       0x53 CMakeFiles/ex1_create_task.dir/D_/pico/pico-sdk/src/rp2_common/pico_multicore/multicore.c.obj
 *fill*         0x1000ca73        0x1 
 .rodata.multicore_launch_core1_with_stack.str1.4
                0x1000ca74       0x19 CMakeFiles/ex1_create_task.dir/D_/pico/pico-sdk/src/rp2_common/pico_multicore/multicore.c.obj
 *fill*         0x1000ca8d        0x3 
 .rodata.__func__.2
                0x1000ca90       0x22 CMakeFiles/ex1_create_task.dir/D_/pico/pico-sdk/src/rp2_common/pico_multicore/multicore.c.obj
 *fill*         0x1000cab2        0x2 
 .rodata.pvPortMalloc.str1.4
                0x1000cab4       0xa5 CMakeFiles/ex1_create_task.dir/D_/pico/pico-FreeRTOS/Source/portable/MemMang/heap_4.c.obj
 *fill*         0x1000cb59        0x3 
 .rodata.vPortFree.str1.4
                0x1000cb5c       0x5b CMakeFiles/ex1_create_task.dir/D_/pico/pico-FreeRTOS/Source/portable/MemMang/heap_4.c.obj
 *fill*         0x1000cbb7        0x1 
 .rodata.__func__.0
                0x1000cbb8        0xa CMakeFiles/ex1_create_task.dir/D_/pico/pico-FreeRTOS/Source/portable/MemMang/heap_4.c.obj
 *fill*         0x1000cbc2        0x2 
 .rodata.__func__.1
                0x1000cbc4        0xd CMakeFiles/ex1_create_task.dir/D_/pico/pico-FreeRTOS/Source/portable/MemMang/heap_4.c.obj
                0x1000cbd4                . = ALIGN (0x4)
 *fill*         0x1000cbd1        0x3 
 *(SORT_BY_ALIGNMENT(SORT_BY_NAME(.flashdata*)))
                0x1000cbd4                . = ALIGN (0x4)

.rel.dyn        0x1000cbd4        0x0
 .rel.iplt      0x1000cbd4        0x0 d:/pico/armcc/10 2021.10/bin/../lib/gcc/arm-none-eabi/10.3.1/thumb/v6-m/nofp/crtbegin.o

.ARM.extab
 *(.ARM.extab* .gnu.linkonce.armextab.*)
                0x1000cbd4                __exidx_start = .

.ARM.exidx
 *(.ARM.exidx* .gnu.linkonce.armexidx.*)
                0x1000cbd4                __exidx_end = .
                0x1000cbd4                . = ALIGN (0x4)
                0x1000cbd4                __binary_info_start = .

.binary_info    0x1000cbd4       0x20
 *(.binary_info.keep.*)
 .binary_info.keep.__bi_ptr22
                0x1000cbd4        0x4 CMakeFiles/ex1_create_task.dir/D_/pico/pico-sdk/src/rp2_common/pico_standard_link/binary_info.c.obj
 .binary_info.keep.__bi_ptr30
                0x1000cbd8        0x4 CMakeFiles/ex1_create_task.dir/D_/pico/pico-sdk/src/rp2_common/pico_standard_link/binary_info.c.obj
 .binary_info.keep.__bi_ptr38
                0x1000cbdc        0x4 CMakeFiles/ex1_create_task.dir/D_/pico/pico-sdk/src/rp2_common/pico_standard_link/binary_info.c.obj
 .binary_info.keep.__bi_ptr44
                0x1000cbe0        0x4 CMakeFiles/ex1_create_task.dir/D_/pico/pico-sdk/src/rp2_common/pico_standard_link/binary_info.c.obj
 .binary_info.keep.__bi_ptr50
                0x1000cbe4        0x4 CMakeFiles/ex1_create_task.dir/D_/pico/pico-sdk/src/rp2_common/pico_standard_link/binary_info.c.obj
 .binary_info.keep.__bi_ptr75
                0x1000cbe8        0x4 CMakeFiles/ex1_create_task.dir/D_/pico/pico-sdk/src/rp2_common/pico_standard_link/binary_info.c.obj
 .binary_info.keep.__bi_ptr81
                0x1000cbec        0x4 CMakeFiles/ex1_create_task.dir/D_/pico/pico-sdk/src/rp2_common/pico_standard_link/binary_info.c.obj
 *(.binary_info.*)
 .binary_info.__bi_ptr118
                0x1000cbf0        0x4 CMakeFiles/ex1_create_task.dir/D_/pico/pico-sdk/src/rp2_common/pico_stdio_usb/stdio_usb.c.obj
                0x1000cbf4                __binary_info_end = .
                0x1000cbf4                . = ALIGN (0x4)
                0x1000cbf4                __etext = .

.ram_vector_table
                0x20000000       0xc0
 *(.ram_vector_table)
 .ram_vector_table
                0x20000000       0xc0 CMakeFiles/ex1_create_task.dir/D_/pico/pico-sdk/src/rp2_common/pico_runtime/runtime.c.obj
                0x20000000                ram_vector_table

.data           0x200000c0      0x474 load address 0x1000cbf4
                0x200000c0                __data_start__ = .
 *(vtable)
 *(.time_critical*)
 .time_critical.mutex_enter_blocking
                0x200000c0       0x3c CMakeFiles/ex1_create_task.dir/D_/pico/pico-sdk/src/common/pico_sync/mutex.c.obj
                0x200000c0                mutex_enter_blocking
 .time_critical.mutex_try_enter
                0x200000fc       0x42 CMakeFiles/ex1_create_task.dir/D_/pico/pico-sdk/src/common/pico_sync/mutex.c.obj
                0x200000fc                mutex_try_enter
 *fill*         0x2000013e        0x2 
 .time_critical.mutex_enter_block_until
                0x20000140       0x78 CMakeFiles/ex1_create_task.dir/D_/pico/pico-sdk/src/common/pico_sync/mutex.c.obj
                0x20000140                mutex_enter_block_until
 .time_critical.mutex_enter_timeout_ms
                0x200001b8       0x74 CMakeFiles/ex1_create_task.dir/D_/pico/pico-sdk/src/common/pico_sync/mutex.c.obj
                0x200001b8                mutex_enter_timeout_ms
 .time_critical.mutex_exit
                0x2000022c       0x40 CMakeFiles/ex1_create_task.dir/D_/pico/pico-sdk/src/common/pico_sync/mutex.c.obj
                0x2000022c                mutex_exit
 .time_critical.flash_init_boot2_copyout
                0x2000026c       0x30 CMakeFiles/ex1_create_task.dir/D_/pico/pico-sdk/src/rp2_common/hardware_flash/flash.c.obj
 .time_critical.flash_enable_xip_via_boot2
                0x2000029c       0x10 CMakeFiles/ex1_create_task.dir/D_/pico/pico-sdk/src/rp2_common/hardware_flash/flash.c.obj
 .time_critical.flash_cs_force
                0x200002ac       0x28 CMakeFiles/ex1_create_task.dir/D_/pico/pico-sdk/src/rp2_common/hardware_flash/flash.c.obj
 .time_critical.flash_do_cmd
                0x200002d4       0xd8 CMakeFiles/ex1_create_task.dir/D_/pico/pico-sdk/src/rp2_common/hardware_flash/flash.c.obj
                0x200002d4                flash_do_cmd
 *(.text*)
 .text          0x200003ac        0x4 d:/pico/armcc/10 2021.10/bin/../lib/gcc/arm-none-eabi/10.3.1/thumb/v6-m/nofp\libgcc.a(_dvmd_tls.o)
                0x200003ac                __aeabi_idiv0
                0x200003ac                __aeabi_ldiv0
 .text.__stub   0x200003b0       0x70 linker stubs
                0x20000420                . = ALIGN (0x4)
 *(.rodata*)
                0x20000420                . = ALIGN (0x4)
 *(.data*)
 .data.striped_spin_lock_num
                0x20000420        0x1 CMakeFiles/ex1_create_task.dir/D_/pico/pico-sdk/src/rp2_common/hardware_sync/sync.c.obj
 *fill*         0x20000421        0x3 
 .data          0x20000424       0x48 CMakeFiles/ex1_create_task.dir/D_/pico/pico-sdk/src/rp2_common/hardware_irq/irq_handler_chain.S.obj
                0x20000424                irq_handler_chain_slots
                0x20000454                irq_handler_chain_first_slot
                0x2000045e                irq_handler_chain_remove_tail
 .data.default_alarm_pool
                0x2000046c       0x18 CMakeFiles/ex1_create_task.dir/D_/pico/pico-sdk/src/common/pico_time/time.c.obj
 .data.default_alarm_pool_heap
                0x20000484       0x10 CMakeFiles/ex1_create_task.dir/D_/pico/pico-sdk/src/common/pico_time/time.c.obj
 *fill*         0x20000494        0xc 
 .data.aeabi_bits_funcs
                0x200004a0       0x10 CMakeFiles/ex1_create_task.dir/D_/pico/pico-sdk/src/rp2_common/pico_bit_ops/bit_ops_aeabi.S.obj
                0x200004a0                aeabi_bits_funcs
                0x200004b0                aeabi_bits_funcs_end
 .data.aeabi_mem_funcs
                0x200004b0       0x10 CMakeFiles/ex1_create_task.dir/D_/pico/pico-sdk/src/rp2_common/pico_mem_ops/mem_ops_aeabi.S.obj
                0x200004b0                aeabi_mem_funcs
                0x200004c0                aeabi_mem_funcs_end
 .data.stdio_usb
                0x200004c0       0x14 CMakeFiles/ex1_create_task.dir/D_/pico/pico-sdk/src/rp2_common/pico_stdio_usb/stdio_usb.c.obj
                0x200004c0                stdio_usb
 .data.ep_dir_string
                0x200004d4        0x8 CMakeFiles/ex1_create_task.dir/D_/pico/pico-sdk/lib/tinyusb/src/portable/raspberrypi/rp2040/rp2040_usb.c.obj
                0x200004d4                ep_dir_string
 .data._usbd_qdef
                0x200004dc       0x24 CMakeFiles/ex1_create_task.dir/D_/pico/pico-sdk/lib/tinyusb/src/device/usbd.c.obj
                0x200004dc                _usbd_qdef
 .data.ucPrimaryCoreNum
                0x20000500        0x1 CMakeFiles/ex1_create_task.dir/D_/pico/pico-FreeRTOS/Source/portable/ThirdParty/GCC/RP2040/port.c.obj
 *fill*         0x20000501        0x3 
 .data.uxTopUsedPriority
                0x20000504        0x4 CMakeFiles/ex1_create_task.dir/D_/pico/pico-FreeRTOS/Source/tasks.c.obj
                0x20000504                uxTopUsedPriority
                0x20000508                . = ALIGN (0x4)
 *(.after_data.*)
                0x20000508                . = ALIGN (0x4)
                0x20000508                PROVIDE (__mutex_array_start = .)
 *(SORT_BY_NAME(.mutex_array.*))
 *(.mutex_array)
 .mutex_array   0x20000508        0x8 CMakeFiles/ex1_create_task.dir/D_/pico/pico-sdk/src/rp2_common/pico_malloc/pico_malloc.c.obj
 .mutex_array   0x20000510        0x8 CMakeFiles/ex1_create_task.dir/D_/pico/pico-sdk/src/rp2_common/pico_stdio/stdio.c.obj
                0x20000518                PROVIDE (__mutex_array_end = .)
                0x20000518                . = ALIGN (0x4)
                0x20000518                PROVIDE (__preinit_array_start = .)
 *(SORT_BY_NAME(.preinit_array.*))
 .preinit_array.00001
                0x20000518        0x4 CMakeFiles/ex1_create_task.dir/D_/pico/pico-sdk/src/rp2_common/pico_mem_ops/mem_ops_aeabi.S.obj
 .preinit_array.00010
                0x2000051c        0x4 CMakeFiles/ex1_create_task.dir/D_/pico/pico-sdk/src/rp2_common/pico_bit_ops/bit_ops_aeabi.S.obj
 .preinit_array.00020
                0x20000520        0x4 CMakeFiles/ex1_create_task.dir/D_/pico/pico-sdk/src/rp2_common/pico_double/double_aeabi.S.obj
 .preinit_array.00020
                0x20000524        0x4 CMakeFiles/ex1_create_task.dir/D_/pico/pico-sdk/src/rp2_common/pico_float/float_aeabi.S.obj
 *(.preinit_array)
                0x20000528                PROVIDE (__preinit_array_end = .)
                0x20000528                . = ALIGN (0x4)
                0x20000528                PROVIDE (__init_array_start = .)
 *(SORT_BY_NAME(.init_array.*))
 *(.init_array)
 .init_array    0x20000528        0x4 d:/pico/armcc/10 2021.10/bin/../lib/gcc/arm-none-eabi/10.3.1/thumb/v6-m/nofp/crtbegin.o
 .init_array    0x2000052c        0x4 CMakeFiles/ex1_create_task.dir/D_/pico/pico-sdk/src/rp2_common/pico_unique_id/unique_id.c.obj
 .init_array    0x20000530        0x4 CMakeFiles/ex1_create_task.dir/D_/pico/pico-FreeRTOS/Source/portable/ThirdParty/GCC/RP2040/port.c.obj
                0x20000534                PROVIDE (__init_array_end = .)
                0x20000534                . = ALIGN (0x4)
                [!provide]                PROVIDE (__fini_array_start = .)
 *(SORT_BY_NAME(.fini_array.*))
 *(.fini_array)
                [!provide]                PROVIDE (__fini_array_end = .)
 *(.jcr)
                0x20000534                . = ALIGN (0x4)
                0x20000534                __data_end__ = .

.igot.plt       0x20000534        0x0 load address 0x1000d068
 .igot.plt      0x20000534        0x0 d:/pico/armcc/10 2021.10/bin/../lib/gcc/arm-none-eabi/10.3.1/thumb/v6-m/nofp/crtbegin.o

.uninitialized_data
                0x20000534        0x0 load address 0x1000d068
                0x20000534                . = ALIGN (0x4)
 *(.uninitialized_data*)

.scratch_x      0x20040000        0x0 load address 0x1000d068
                0x20040000                __scratch_x_start__ = .
 *(.scratch_x.*)
                0x20040000                . = ALIGN (0x4)
                0x20040000                __scratch_x_end__ = .
                0x1000d068                __scratch_x_source__ = LOADADDR (.scratch_x)

.scratch_y      0x20041000        0x0 load address 0x1000d068
                0x20041000                __scratch_y_start__ = .
 *(.scratch_y.*)
                0x20041000                . = ALIGN (0x4)
                0x20041000                __scratch_y_end__ = .
                0x1000d068                __scratch_y_source__ = LOADADDR (.scratch_y)

.bss            0x20000538    0x21164
                0x20000538                . = ALIGN (0x4)
                0x20000538                __bss_start__ = .
 *(SORT_BY_ALIGNMENT(SORT_BY_NAME(.bss*)))
 .bss.default_alarm_pool_entries
                0x20000538      0x100 CMakeFiles/ex1_create_task.dir/D_/pico/pico-sdk/src/common/pico_time/time.c.obj
 .bss.last_avail_time.3
                0x20000638        0x8 CMakeFiles/ex1_create_task.dir/D_/pico/pico-sdk/src/rp2_common/pico_stdio_usb/stdio_usb.c.obj
 .bss           0x20000640       0x1c d:/pico/armcc/10 2021.10/bin/../lib/gcc/arm-none-eabi/10.3.1/thumb/v6-m/nofp/crtbegin.o
 .bss._app_driver
                0x2000065c        0x4 CMakeFiles/ex1_create_task.dir/D_/pico/pico-sdk/lib/tinyusb/src/device/usbd.c.obj
 .bss._cdcd_itf
                0x20000660      0x2d8 CMakeFiles/ex1_create_task.dir/D_/pico/pico-sdk/lib/tinyusb/src/class/cdc/cdc_device.c.obj
 .bss._ctrl_xfer
                0x20000938       0x14 CMakeFiles/ex1_create_task.dir/D_/pico/pico-sdk/lib/tinyusb/src/device/usbd_control.c.obj
 .bss._ubsd_mutexdef
                0x2000094c        0x8 CMakeFiles/ex1_create_task.dir/D_/pico/pico-sdk/lib/tinyusb/src/device/usbd.c.obj
 .bss._usbd_ctrl_buf
                0x20000954       0x40 CMakeFiles/ex1_create_task.dir/D_/pico/pico-sdk/lib/tinyusb/src/device/usbd_control.c.obj
 .bss._usbd_dev
                0x20000994       0x53 CMakeFiles/ex1_create_task.dir/D_/pico/pico-sdk/lib/tinyusb/src/device/usbd.c.obj
 *fill*         0x200009e7        0x1 
 .bss._usbd_mutex
                0x200009e8        0x4 CMakeFiles/ex1_create_task.dir/D_/pico/pico-sdk/lib/tinyusb/src/device/usbd.c.obj
 .bss._usbd_q   0x200009ec        0x4 CMakeFiles/ex1_create_task.dir/D_/pico/pico-sdk/lib/tinyusb/src/device/usbd.c.obj
 .bss._usbd_qdef_buf
                0x200009f0       0xc0 CMakeFiles/ex1_create_task.dir/D_/pico/pico-sdk/lib/tinyusb/src/device/usbd.c.obj
                0x200009f0                _usbd_qdef_buf
 .bss.alarm_callbacks
                0x20000ab0       0x10 CMakeFiles/ex1_create_task.dir/D_/pico/pico-sdk/src/rp2_common/hardware_timer/timer.c.obj
 .bss.boot2_copyout
                0x20000ac0      0x100 CMakeFiles/ex1_create_task.dir/D_/pico/pico-sdk/src/rp2_common/hardware_flash/flash.c.obj
 .bss.claimed   0x20000bc0        0x4 CMakeFiles/ex1_create_task.dir/D_/pico/pico-sdk/src/rp2_common/hardware_sync/sync.c.obj
 .bss.configured_freq
                0x20000bc4       0x28 CMakeFiles/ex1_create_task.dir/D_/pico/pico-sdk/src/rp2_common/hardware_clocks/clocks.c.obj
 .bss.default_alarm_pool_entry_ids_high
                0x20000bec       0x10 CMakeFiles/ex1_create_task.dir/D_/pico/pico-sdk/src/common/pico_time/time.c.obj
 .bss.default_alarm_pool_heap_nodes
                0x20000bfc       0x30 CMakeFiles/ex1_create_task.dir/D_/pico/pico-sdk/src/common/pico_time/time.c.obj
 .bss.desc_str.0
                0x20000c2c       0x28 CMakeFiles/ex1_create_task.dir/D_/pico/pico-sdk/src/rp2_common/pico_stdio_usb/stdio_usb_descriptors.c.obj
 .bss.drivers   0x20000c54        0x4 CMakeFiles/ex1_create_task.dir/D_/pico/pico-sdk/src/rp2_common/pico_stdio/stdio.c.obj
 .bss.filter    0x20000c58        0x4 CMakeFiles/ex1_create_task.dir/D_/pico/pico-sdk/src/rp2_common/pico_stdio/stdio.c.obj
 .bss.hw_endpoints
                0x20000c5c      0x400 CMakeFiles/ex1_create_task.dir/D_/pico/pico-sdk/lib/tinyusb/src/portable/raspberrypi/rp2040/dcd_rp2040.c.obj
 .bss.load_value
                0x2000105c        0x4 CMakeFiles/ex1_create_task.dir/D_/pico/pico-sdk/src/rp2_common/hardware_watchdog/watchdog.c.obj
 .bss.next_buffer_ptr
                0x20001060        0x4 CMakeFiles/ex1_create_task.dir/D_/pico/pico-sdk/lib/tinyusb/src/portable/raspberrypi/rp2040/dcd_rp2040.c.obj
 .bss.pools     0x20001064       0x10 CMakeFiles/ex1_create_task.dir/D_/pico/pico-sdk/src/common/pico_time/time.c.obj
 .bss.pxCurrentTCBs
                0x20001074        0x8 CMakeFiles/ex1_create_task.dir/D_/pico/pico-FreeRTOS/Source/tasks.c.obj
                0x20001074                pxCurrentTCBs
 .bss.pxCurrentTimerList
                0x2000107c        0x4 CMakeFiles/ex1_create_task.dir/D_/pico/pico-FreeRTOS/Source/timers.c.obj
 .bss.pxDelayedTaskList
                0x20001080        0x4 CMakeFiles/ex1_create_task.dir/D_/pico/pico-FreeRTOS/Source/tasks.c.obj
 .bss.pxEnd     0x20001084        0x4 CMakeFiles/ex1_create_task.dir/D_/pico/pico-FreeRTOS/Source/portable/MemMang/heap_4.c.obj
 .bss.pxOverflowDelayedTaskList
                0x20001088        0x4 CMakeFiles/ex1_create_task.dir/D_/pico/pico-FreeRTOS/Source/tasks.c.obj
 .bss.pxOverflowTimerList
                0x2000108c        0x4 CMakeFiles/ex1_create_task.dir/D_/pico/pico-FreeRTOS/Source/timers.c.obj
 .bss.pxReadyTasksLists
                0x20001090      0x280 CMakeFiles/ex1_create_task.dir/D_/pico/pico-FreeRTOS/Source/tasks.c.obj
 .bss.pxYieldSpinLock
                0x20001310        0x4 CMakeFiles/ex1_create_task.dir/D_/pico/pico-FreeRTOS/Source/portable/ThirdParty/GCC/RP2040/port.c.obj
 .bss.retrieved_id
                0x20001314        0x8 CMakeFiles/ex1_create_task.dir/D_/pico/pico-sdk/src/rp2_common/pico_unique_id/unique_id.c.obj
 .bss.sd_table  0x2000131c      0x100 CMakeFiles/ex1_create_task.dir/D_/pico/pico-sdk/src/rp2_common/pico_double/double_init_rom.c.obj
                0x2000131c                sd_table
 .bss.sf_clz_func
                0x2000141c        0x4 CMakeFiles/ex1_create_task.dir/D_/pico/pico-sdk/src/rp2_common/pico_double/double_init_rom.c.obj
                0x2000141c                sf_clz_func
 .bss.sf_table  0x20001420      0x100 CMakeFiles/ex1_create_task.dir/D_/pico/pico-sdk/src/rp2_common/pico_float/float_init_rom.c.obj
                0x20001420                sf_table
 .bss.sleep_notifier
                0x20001520        0x4 CMakeFiles/ex1_create_task.dir/D_/pico/pico-sdk/src/common/pico_time/time.c.obj
 .bss.stdio_usb_mutex
                0x20001524        0x8 CMakeFiles/ex1_create_task.dir/D_/pico/pico-sdk/src/rp2_common/pico_stdio_usb/stdio_usb.c.obj
 .bss.target_hi
                0x2000152c       0x10 CMakeFiles/ex1_create_task.dir/D_/pico/pico-sdk/src/rp2_common/hardware_timer/timer.c.obj
 .bss.ucHeap    0x2000153c    0x20000 CMakeFiles/ex1_create_task.dir/D_/pico/pico-FreeRTOS/Source/portable/MemMang/heap_4.c.obj
 .bss.ucOwnedByCore.26
                0x2002153c        0x2 CMakeFiles/ex1_create_task.dir/D_/pico/pico-FreeRTOS/Source/tasks.c.obj
 *fill*         0x2002153e        0x2 
 .bss.ucRecursionCountByLock.25
                0x20021540        0x2 CMakeFiles/ex1_create_task.dir/D_/pico/pico-FreeRTOS/Source/tasks.c.obj
 *fill*         0x20021542        0x2 
 .bss.ulYieldSpinLockSaveValue
                0x20021544        0x4 CMakeFiles/ex1_create_task.dir/D_/pico/pico-FreeRTOS/Source/portable/ThirdParty/GCC/RP2040/port.c.obj
 .bss.usbd_serial_str
                0x20021548       0x11 CMakeFiles/ex1_create_task.dir/D_/pico/pico-sdk/src/rp2_common/pico_stdio_usb/stdio_usb_descriptors.c.obj
 *fill*         0x20021559        0x3 
 .bss.user_irq_claimed
                0x2002155c        0x2 CMakeFiles/ex1_create_task.dir/D_/pico/pico-sdk/src/rp2_common/hardware_irq/irq.c.obj
 *fill*         0x2002155e        0x2 
 .bss.uxCurrentNumberOfTasks
                0x20021560        0x4 CMakeFiles/ex1_create_task.dir/D_/pico/pico-FreeRTOS/Source/tasks.c.obj
 .bss.uxDeletedTasksWaitingCleanUp
                0x20021564        0x4 CMakeFiles/ex1_create_task.dir/D_/pico/pico-FreeRTOS/Source/tasks.c.obj
 .bss.uxSchedulerSuspended
                0x20021568        0x4 CMakeFiles/ex1_create_task.dir/D_/pico/pico-FreeRTOS/Source/tasks.c.obj
 .bss.uxTaskNumber
                0x2002156c        0x4 CMakeFiles/ex1_create_task.dir/D_/pico/pico-FreeRTOS/Source/tasks.c.obj
 .bss.uxTopReadyPriority
                0x20021570        0x4 CMakeFiles/ex1_create_task.dir/D_/pico/pico-FreeRTOS/Source/tasks.c.obj
 .bss.xActiveTimerList1
                0x20021574       0x14 CMakeFiles/ex1_create_task.dir/D_/pico/pico-FreeRTOS/Source/timers.c.obj
 .bss.xActiveTimerList2
                0x20021588       0x14 CMakeFiles/ex1_create_task.dir/D_/pico/pico-FreeRTOS/Source/timers.c.obj
 .bss.xBlockAllocatedBit
                0x2002159c        0x4 CMakeFiles/ex1_create_task.dir/D_/pico/pico-FreeRTOS/Source/portable/MemMang/heap_4.c.obj
 .bss.xDelayedTaskList1
                0x200215a0       0x14 CMakeFiles/ex1_create_task.dir/D_/pico/pico-FreeRTOS/Source/tasks.c.obj
 .bss.xDelayedTaskList2
                0x200215b4       0x14 CMakeFiles/ex1_create_task.dir/D_/pico/pico-FreeRTOS/Source/tasks.c.obj
 .bss.xEventGroup
                0x200215c8        0x4 CMakeFiles/ex1_create_task.dir/D_/pico/pico-FreeRTOS/Source/portable/ThirdParty/GCC/RP2040/port.c.obj
 .bss.xFreeBytesRemaining
                0x200215cc        0x4 CMakeFiles/ex1_create_task.dir/D_/pico/pico-FreeRTOS/Source/portable/MemMang/heap_4.c.obj
 .bss.xIdleTaskHandle
                0x200215d0        0x8 CMakeFiles/ex1_create_task.dir/D_/pico/pico-FreeRTOS/Source/tasks.c.obj
 .bss.xLastTime.16
                0x200215d8        0x4 CMakeFiles/ex1_create_task.dir/D_/pico/pico-FreeRTOS/Source/timers.c.obj
 .bss.xMinimumEverFreeBytesRemaining
                0x200215dc        0x4 CMakeFiles/ex1_create_task.dir/D_/pico/pico-FreeRTOS/Source/portable/MemMang/heap_4.c.obj
 .bss.xNextTaskUnblockTime
                0x200215e0        0x4 CMakeFiles/ex1_create_task.dir/D_/pico/pico-FreeRTOS/Source/tasks.c.obj
 .bss.xNumOfOverflows
                0x200215e4        0x4 CMakeFiles/ex1_create_task.dir/D_/pico/pico-FreeRTOS/Source/tasks.c.obj
 .bss.xNumberOfSuccessfulAllocations
                0x200215e8        0x4 CMakeFiles/ex1_create_task.dir/D_/pico/pico-FreeRTOS/Source/portable/MemMang/heap_4.c.obj
 .bss.xNumberOfSuccessfulFrees
                0x200215ec        0x4 CMakeFiles/ex1_create_task.dir/D_/pico/pico-FreeRTOS/Source/portable/MemMang/heap_4.c.obj
 .bss.xPendedTicks
                0x200215f0        0x4 CMakeFiles/ex1_create_task.dir/D_/pico/pico-FreeRTOS/Source/tasks.c.obj
 .bss.xPendingReadyList
                0x200215f4       0x14 CMakeFiles/ex1_create_task.dir/D_/pico/pico-FreeRTOS/Source/tasks.c.obj
 .bss.xQueueRegistry
                0x20021608       0x40 CMakeFiles/ex1_create_task.dir/D_/pico/pico-FreeRTOS/Source/queue.c.obj
                0x20021608                xQueueRegistry
 .bss.xSchedulerRunning
                0x20021648        0x4 CMakeFiles/ex1_create_task.dir/D_/pico/pico-FreeRTOS/Source/tasks.c.obj
 .bss.xStart    0x2002164c        0x8 CMakeFiles/ex1_create_task.dir/D_/pico/pico-FreeRTOS/Source/portable/MemMang/heap_4.c.obj
 .bss.xSuspendedTaskList
                0x20021654       0x14 CMakeFiles/ex1_create_task.dir/D_/pico/pico-FreeRTOS/Source/tasks.c.obj
 .bss.xTasksWaitingTermination
                0x20021668       0x14 CMakeFiles/ex1_create_task.dir/D_/pico/pico-FreeRTOS/Source/tasks.c.obj
 .bss.xTickCount
                0x2002167c        0x4 CMakeFiles/ex1_create_task.dir/D_/pico/pico-FreeRTOS/Source/tasks.c.obj
 .bss.xTimerQueue
                0x20021680        0x4 CMakeFiles/ex1_create_task.dir/D_/pico/pico-FreeRTOS/Source/timers.c.obj
 .bss.xTimerTaskHandle
                0x20021684        0x4 CMakeFiles/ex1_create_task.dir/D_/pico/pico-FreeRTOS/Source/timers.c.obj
 .bss.xYieldPendings
                0x20021688        0x8 CMakeFiles/ex1_create_task.dir/D_/pico/pico-FreeRTOS/Source/tasks.c.obj
 .bss._app_driver_count
                0x20021690        0x1 CMakeFiles/ex1_create_task.dir/D_/pico/pico-sdk/lib/tinyusb/src/device/usbd.c.obj
 .bss._usbd_initialized
                0x20021691        0x1 CMakeFiles/ex1_create_task.dir/D_/pico/pico-sdk/lib/tinyusb/src/device/usbd.c.obj
 .bss.boot2_copyout_valid
                0x20021692        0x1 CMakeFiles/ex1_create_task.dir/D_/pico/pico-sdk/src/rp2_common/hardware_flash/flash.c.obj
 .bss.claimed   0x20021693        0x1 CMakeFiles/ex1_create_task.dir/D_/pico/pico-sdk/src/rp2_common/hardware_timer/timer.c.obj
 .bss.irq_hander_chain_free_slot_head
                0x20021694        0x1 CMakeFiles/ex1_create_task.dir/D_/pico/pico-sdk/src/rp2_common/hardware_irq/irq.c.obj
 .bss.itf_num   0x20021695        0x1 CMakeFiles/ex1_create_task.dir/D_/pico/pico-sdk/src/rp2_common/pico_stdio_usb/reset_interface.c.obj
 .bss.low_priority_irq_num
                0x20021696        0x1 CMakeFiles/ex1_create_task.dir/D_/pico/pico-sdk/src/rp2_common/pico_stdio_usb/stdio_usb.c.obj
 .bss.stdio_usb_core_num
                0x20021697        0x1 CMakeFiles/ex1_create_task.dir/D_/pico/pico-sdk/src/rp2_common/pico_stdio_usb/stdio_usb.c.obj
 .bss.timer_callbacks_pending
                0x20021698        0x1 CMakeFiles/ex1_create_task.dir/D_/pico/pico-sdk/src/rp2_common/hardware_timer/timer.c.obj
 *(COMMON)
                0x2002169c                . = ALIGN (0x4)
 *fill*         0x20021699        0x3 
                0x2002169c                __bss_end__ = .

.heap           0x2002169c      0x800
                0x2002169c                __end__ = .
                0x2002169c                end = __end__
 *(.heap*)
 .heap          0x2002169c      0x800 CMakeFiles/ex1_create_task.dir/D_/pico/pico-sdk/src/rp2_common/pico_standard_link/crt0.S.obj
                0x20021e9c                __HeapLimit = .

.stack1_dummy   0x20040000      0x800
 *(.stack1*)
 .stack1        0x20040000      0x800 CMakeFiles/ex1_create_task.dir/D_/pico/pico-sdk/src/rp2_common/pico_multicore/multicore.c.obj

.stack_dummy    0x20041000      0x800
 *(.stack*)
 .stack         0x20041000      0x800 CMakeFiles/ex1_create_task.dir/D_/pico/pico-sdk/src/rp2_common/pico_standard_link/crt0.S.obj

.flash_end      0x1000d068        0x0
                0x1000d068                __flash_binary_end = .
                0x20040000                __StackLimit = (ORIGIN (RAM) + LENGTH (RAM))
                0x20041000                __StackOneTop = (ORIGIN (SCRATCH_X) + LENGTH (SCRATCH_X))
                0x20042000                __StackTop = (ORIGIN (SCRATCH_Y) + LENGTH (SCRATCH_Y))
                0x20040800                __StackOneBottom = (__StackOneTop - SIZEOF (.stack1_dummy))
                0x20041800                __StackBottom = (__StackTop - SIZEOF (.stack_dummy))
                0x20042000                PROVIDE (__stack = __StackTop)
                0x00000001                ASSERT ((__StackLimit >= __HeapLimit), region RAM overflowed)
                0x00000001                ASSERT (((__binary_info_header_end - __logical_binary_start) <= 0x100), Binary info must be in first 256 bytes of the binary)
LOAD CMakeFiles/ex1_create_task.dir/main.c.obj
LOAD CMakeFiles/ex1_create_task.dir/D_/pico/pico-sdk/src/rp2_common/pico_stdlib/stdlib.c.obj
LOAD CMakeFiles/ex1_create_task.dir/D_/pico/pico-sdk/src/rp2_common/hardware_gpio/gpio.c.obj
LOAD CMakeFiles/ex1_create_task.dir/D_/pico/pico-sdk/src/rp2_common/hardware_claim/claim.c.obj
LOAD CMakeFiles/ex1_create_task.dir/D_/pico/pico-sdk/src/rp2_common/pico_platform/platform.c.obj
LOAD CMakeFiles/ex1_create_task.dir/D_/pico/pico-sdk/src/rp2_common/hardware_sync/sync.c.obj
LOAD CMakeFiles/ex1_create_task.dir/D_/pico/pico-sdk/src/rp2_common/hardware_irq/irq.c.obj
LOAD CMakeFiles/ex1_create_task.dir/D_/pico/pico-sdk/src/rp2_common/hardware_irq/irq_handler_chain.S.obj
LOAD CMakeFiles/ex1_create_task.dir/D_/pico/pico-sdk/src/common/pico_sync/sem.c.obj
LOAD CMakeFiles/ex1_create_task.dir/D_/pico/pico-sdk/src/common/pico_sync/lock_core.c.obj
LOAD CMakeFiles/ex1_create_task.dir/D_/pico/pico-sdk/src/common/pico_time/time.c.obj
LOAD CMakeFiles/ex1_create_task.dir/D_/pico/pico-sdk/src/common/pico_time/timeout_helper.c.obj
LOAD CMakeFiles/ex1_create_task.dir/D_/pico/pico-sdk/src/rp2_common/hardware_timer/timer.c.obj
LOAD CMakeFiles/ex1_create_task.dir/D_/pico/pico-sdk/src/common/pico_util/datetime.c.obj
LOAD CMakeFiles/ex1_create_task.dir/D_/pico/pico-sdk/src/common/pico_util/pheap.c.obj
LOAD CMakeFiles/ex1_create_task.dir/D_/pico/pico-sdk/src/common/pico_util/queue.c.obj
LOAD CMakeFiles/ex1_create_task.dir/D_/pico/pico-sdk/src/common/pico_sync/mutex.c.obj
LOAD CMakeFiles/ex1_create_task.dir/D_/pico/pico-sdk/src/common/pico_sync/critical_section.c.obj
LOAD CMakeFiles/ex1_create_task.dir/D_/pico/pico-sdk/src/rp2_common/hardware_uart/uart.c.obj
LOAD CMakeFiles/ex1_create_task.dir/D_/pico/pico-sdk/src/rp2_common/hardware_divider/divider.S.obj
LOAD CMakeFiles/ex1_create_task.dir/D_/pico/pico-sdk/src/rp2_common/pico_runtime/runtime.c.obj
LOAD CMakeFiles/ex1_create_task.dir/D_/pico/pico-sdk/src/rp2_common/hardware_clocks/clocks.c.obj
LOAD CMakeFiles/ex1_create_task.dir/D_/pico/pico-sdk/src/rp2_common/hardware_pll/pll.c.obj
LOAD CMakeFiles/ex1_create_task.dir/D_/pico/pico-sdk/src/rp2_common/hardware_vreg/vreg.c.obj
LOAD CMakeFiles/ex1_create_task.dir/D_/pico/pico-sdk/src/rp2_common/hardware_watchdog/watchdog.c.obj
LOAD CMakeFiles/ex1_create_task.dir/D_/pico/pico-sdk/src/rp2_common/hardware_xosc/xosc.c.obj
LOAD CMakeFiles/ex1_create_task.dir/D_/pico/pico-sdk/src/rp2_common/pico_printf/printf.c.obj
LOAD CMakeFiles/ex1_create_task.dir/D_/pico/pico-sdk/src/rp2_common/pico_bit_ops/bit_ops_aeabi.S.obj
LOAD CMakeFiles/ex1_create_task.dir/D_/pico/pico-sdk/src/rp2_common/pico_bootrom/bootrom.c.obj
LOAD CMakeFiles/ex1_create_task.dir/D_/pico/pico-sdk/src/rp2_common/pico_divider/divider.S.obj
LOAD CMakeFiles/ex1_create_task.dir/D_/pico/pico-sdk/src/rp2_common/pico_double/double_aeabi.S.obj
LOAD CMakeFiles/ex1_create_task.dir/D_/pico/pico-sdk/src/rp2_common/pico_double/double_init_rom.c.obj
LOAD CMakeFiles/ex1_create_task.dir/D_/pico/pico-sdk/src/rp2_common/pico_double/double_math.c.obj
LOAD CMakeFiles/ex1_create_task.dir/D_/pico/pico-sdk/src/rp2_common/pico_double/double_v1_rom_shim.S.obj
LOAD CMakeFiles/ex1_create_task.dir/D_/pico/pico-sdk/src/rp2_common/pico_int64_ops/pico_int64_ops_aeabi.S.obj
LOAD CMakeFiles/ex1_create_task.dir/D_/pico/pico-sdk/src/rp2_common/pico_float/float_aeabi.S.obj
LOAD CMakeFiles/ex1_create_task.dir/D_/pico/pico-sdk/src/rp2_common/pico_float/float_init_rom.c.obj
LOAD CMakeFiles/ex1_create_task.dir/D_/pico/pico-sdk/src/rp2_common/pico_float/float_math.c.obj
LOAD CMakeFiles/ex1_create_task.dir/D_/pico/pico-sdk/src/rp2_common/pico_float/float_v1_rom_shim.S.obj
LOAD CMakeFiles/ex1_create_task.dir/D_/pico/pico-sdk/src/rp2_common/pico_malloc/pico_malloc.c.obj
LOAD CMakeFiles/ex1_create_task.dir/D_/pico/pico-sdk/src/rp2_common/pico_mem_ops/mem_ops_aeabi.S.obj
LOAD CMakeFiles/ex1_create_task.dir/D_/pico/pico-sdk/src/rp2_common/pico_standard_link/crt0.S.obj
LOAD CMakeFiles/ex1_create_task.dir/D_/pico/pico-sdk/src/rp2_common/pico_standard_link/new_delete.cpp.obj
LOAD CMakeFiles/ex1_create_task.dir/D_/pico/pico-sdk/src/rp2_common/pico_standard_link/binary_info.c.obj
LOAD CMakeFiles/ex1_create_task.dir/D_/pico/pico-sdk/src/rp2_common/pico_stdio/stdio.c.obj
LOAD CMakeFiles/ex1_create_task.dir/D_/pico/pico-sdk/src/rp2_common/pico_stdio_usb/reset_interface.c.obj
LOAD CMakeFiles/ex1_create_task.dir/D_/pico/pico-sdk/src/rp2_common/pico_stdio_usb/stdio_usb.c.obj
LOAD CMakeFiles/ex1_create_task.dir/D_/pico/pico-sdk/src/rp2_common/pico_stdio_usb/stdio_usb_descriptors.c.obj
LOAD CMakeFiles/ex1_create_task.dir/D_/pico/pico-sdk/lib/tinyusb/src/portable/raspberrypi/rp2040/dcd_rp2040.c.obj
LOAD CMakeFiles/ex1_create_task.dir/D_/pico/pico-sdk/lib/tinyusb/src/portable/raspberrypi/rp2040/rp2040_usb.c.obj
LOAD CMakeFiles/ex1_create_task.dir/D_/pico/pico-sdk/lib/tinyusb/src/device/usbd.c.obj
LOAD CMakeFiles/ex1_create_task.dir/D_/pico/pico-sdk/lib/tinyusb/src/device/usbd_control.c.obj
LOAD CMakeFiles/ex1_create_task.dir/D_/pico/pico-sdk/lib/tinyusb/src/class/audio/audio_device.c.obj
LOAD CMakeFiles/ex1_create_task.dir/D_/pico/pico-sdk/lib/tinyusb/src/class/cdc/cdc_device.c.obj
LOAD CMakeFiles/ex1_create_task.dir/D_/pico/pico-sdk/lib/tinyusb/src/class/dfu/dfu_device.c.obj
LOAD CMakeFiles/ex1_create_task.dir/D_/pico/pico-sdk/lib/tinyusb/src/class/dfu/dfu_rt_device.c.obj
LOAD CMakeFiles/ex1_create_task.dir/D_/pico/pico-sdk/lib/tinyusb/src/class/hid/hid_device.c.obj
LOAD CMakeFiles/ex1_create_task.dir/D_/pico/pico-sdk/lib/tinyusb/src/class/midi/midi_device.c.obj
LOAD CMakeFiles/ex1_create_task.dir/D_/pico/pico-sdk/lib/tinyusb/src/class/msc/msc_device.c.obj
LOAD CMakeFiles/ex1_create_task.dir/D_/pico/pico-sdk/lib/tinyusb/src/class/net/ecm_rndis_device.c.obj
LOAD CMakeFiles/ex1_create_task.dir/D_/pico/pico-sdk/lib/tinyusb/src/class/net/ncm_device.c.obj
LOAD CMakeFiles/ex1_create_task.dir/D_/pico/pico-sdk/lib/tinyusb/src/class/usbtmc/usbtmc_device.c.obj
LOAD CMakeFiles/ex1_create_task.dir/D_/pico/pico-sdk/lib/tinyusb/src/class/vendor/vendor_device.c.obj
LOAD CMakeFiles/ex1_create_task.dir/D_/pico/pico-sdk/lib/tinyusb/src/class/video/video_device.c.obj
LOAD CMakeFiles/ex1_create_task.dir/D_/pico/pico-sdk/lib/tinyusb/src/tusb.c.obj
LOAD CMakeFiles/ex1_create_task.dir/D_/pico/pico-sdk/lib/tinyusb/src/common/tusb_fifo.c.obj
LOAD CMakeFiles/ex1_create_task.dir/D_/pico/pico-sdk/src/rp2_common/pico_fix/rp2040_usb_device_enumeration/rp2040_usb_device_enumeration.c.obj
LOAD CMakeFiles/ex1_create_task.dir/D_/pico/pico-sdk/src/rp2_common/pico_unique_id/unique_id.c.obj
LOAD CMakeFiles/ex1_create_task.dir/D_/pico/pico-sdk/src/rp2_common/hardware_flash/flash.c.obj
LOAD CMakeFiles/ex1_create_task.dir/D_/pico/pico-FreeRTOS/Source/portable/ThirdParty/GCC/RP2040/port.c.obj
LOAD CMakeFiles/ex1_create_task.dir/D_/pico/pico-FreeRTOS/Source/croutine.c.obj
LOAD CMakeFiles/ex1_create_task.dir/D_/pico/pico-FreeRTOS/Source/event_groups.c.obj
LOAD CMakeFiles/ex1_create_task.dir/D_/pico/pico-FreeRTOS/Source/list.c.obj
LOAD CMakeFiles/ex1_create_task.dir/D_/pico/pico-FreeRTOS/Source/queue.c.obj
LOAD CMakeFiles/ex1_create_task.dir/D_/pico/pico-FreeRTOS/Source/stream_buffer.c.obj
LOAD CMakeFiles/ex1_create_task.dir/D_/pico/pico-FreeRTOS/Source/tasks.c.obj
LOAD CMakeFiles/ex1_create_task.dir/D_/pico/pico-FreeRTOS/Source/timers.c.obj
LOAD CMakeFiles/ex1_create_task.dir/D_/pico/pico-sdk/src/rp2_common/hardware_exception/exception.c.obj
LOAD CMakeFiles/ex1_create_task.dir/D_/pico/pico-sdk/src/rp2_common/pico_multicore/multicore.c.obj
LOAD CMakeFiles/ex1_create_task.dir/D_/pico/pico-FreeRTOS/Source/portable/MemMang/heap_4.c.obj
LOAD C:\Users\ployy\AppData\Local\Temp\ccERXrNO.o
LOAD d:/pico/armcc/10 2021.10/bin/../lib/gcc/arm-none-eabi/10.3.1/../../../../arm-none-eabi/lib/thumb/v6-m/nofp\libstdc++.a
LOAD d:/pico/armcc/10 2021.10/bin/../lib/gcc/arm-none-eabi/10.3.1/../../../../arm-none-eabi/lib/thumb/v6-m/nofp\libm.a
START GROUP
LOAD d:/pico/armcc/10 2021.10/bin/../lib/gcc/arm-none-eabi/10.3.1/thumb/v6-m/nofp\libgcc.a
LOAD d:/pico/armcc/10 2021.10/bin/../lib/gcc/arm-none-eabi/10.3.1/../../../../arm-none-eabi/lib/thumb/v6-m/nofp\libg.a
LOAD d:/pico/armcc/10 2021.10/bin/../lib/gcc/arm-none-eabi/10.3.1/../../../../arm-none-eabi/lib/thumb/v6-m/nofp\libc.a
END GROUP
START GROUP
LOAD d:/pico/armcc/10 2021.10/bin/../lib/gcc/arm-none-eabi/10.3.1/thumb/v6-m/nofp\libgcc.a
LOAD d:/pico/armcc/10 2021.10/bin/../lib/gcc/arm-none-eabi/10.3.1/../../../../arm-none-eabi/lib/thumb/v6-m/nofp\libc.a
LOAD d:/pico/armcc/10 2021.10/bin/../lib/gcc/arm-none-eabi/10.3.1/../../../../arm-none-eabi/lib/thumb/v6-m/nofp\libnosys.a
END GROUP
LOAD d:/pico/armcc/10 2021.10/bin/../lib/gcc/arm-none-eabi/10.3.1/thumb/v6-m/nofp/crtend.o
LOAD d:/pico/armcc/10 2021.10/bin/../lib/gcc/arm-none-eabi/10.3.1/thumb/v6-m/nofp/crtn.o
OUTPUT(ex1_create_task.elf elf32-littlearm)
LOAD linker stubs

.ARM.attributes
                0x00000000       0x28
 .ARM.attributes
                0x00000000       0x1e d:/pico/armcc/10 2021.10/bin/../lib/gcc/arm-none-eabi/10.3.1/thumb/v6-m/nofp/crti.o
 .ARM.attributes
                0x0000001e       0x2c d:/pico/armcc/10 2021.10/bin/../lib/gcc/arm-none-eabi/10.3.1/thumb/v6-m/nofp/crtbegin.o
 .ARM.attributes
                0x0000004a       0x2c CMakeFiles/ex1_create_task.dir/main.c.obj
 .ARM.attributes
                0x00000076       0x2c CMakeFiles/ex1_create_task.dir/D_/pico/pico-sdk/src/rp2_common/hardware_claim/claim.c.obj
 .ARM.attributes
                0x000000a2       0x2c CMakeFiles/ex1_create_task.dir/D_/pico/pico-sdk/src/rp2_common/pico_platform/platform.c.obj
 .ARM.attributes
                0x000000ce       0x2c CMakeFiles/ex1_create_task.dir/D_/pico/pico-sdk/src/rp2_common/hardware_sync/sync.c.obj
 .ARM.attributes
                0x000000fa       0x2c CMakeFiles/ex1_create_task.dir/D_/pico/pico-sdk/src/rp2_common/hardware_irq/irq.c.obj
 .ARM.attributes
                0x00000126       0x22 CMakeFiles/ex1_create_task.dir/D_/pico/pico-sdk/src/rp2_common/hardware_irq/irq_handler_chain.S.obj
 .ARM.attributes
                0x00000148       0x2c CMakeFiles/ex1_create_task.dir/D_/pico/pico-sdk/src/common/pico_sync/lock_core.c.obj
 .ARM.attributes
                0x00000174       0x2c CMakeFiles/ex1_create_task.dir/D_/pico/pico-sdk/src/common/pico_time/time.c.obj
 .ARM.attributes
                0x000001a0       0x2c CMakeFiles/ex1_create_task.dir/D_/pico/pico-sdk/src/rp2_common/hardware_timer/timer.c.obj
 .ARM.attributes
                0x000001cc       0x2c CMakeFiles/ex1_create_task.dir/D_/pico/pico-sdk/src/common/pico_util/pheap.c.obj
 .ARM.attributes
                0x000001f8       0x2c CMakeFiles/ex1_create_task.dir/D_/pico/pico-sdk/src/common/pico_sync/mutex.c.obj
 .ARM.attributes
                0x00000224       0x2c CMakeFiles/ex1_create_task.dir/D_/pico/pico-sdk/src/common/pico_sync/critical_section.c.obj
 .ARM.attributes
                0x00000250       0x2c CMakeFiles/ex1_create_task.dir/D_/pico/pico-sdk/src/rp2_common/pico_runtime/runtime.c.obj
 .ARM.attributes
                0x0000027c       0x2c CMakeFiles/ex1_create_task.dir/D_/pico/pico-sdk/src/rp2_common/hardware_clocks/clocks.c.obj
 .ARM.attributes
                0x000002a8       0x2c CMakeFiles/ex1_create_task.dir/D_/pico/pico-sdk/src/rp2_common/hardware_pll/pll.c.obj
 .ARM.attributes
                0x000002d4       0x2c CMakeFiles/ex1_create_task.dir/D_/pico/pico-sdk/src/rp2_common/hardware_watchdog/watchdog.c.obj
 .ARM.attributes
                0x00000300       0x2c CMakeFiles/ex1_create_task.dir/D_/pico/pico-sdk/src/rp2_common/hardware_xosc/xosc.c.obj
 .ARM.attributes
                0x0000032c       0x2c CMakeFiles/ex1_create_task.dir/D_/pico/pico-sdk/src/rp2_common/pico_printf/printf.c.obj
 .ARM.attributes
                0x00000358       0x22 CMakeFiles/ex1_create_task.dir/D_/pico/pico-sdk/src/rp2_common/pico_bit_ops/bit_ops_aeabi.S.obj
 .ARM.attributes
                0x0000037a       0x2c CMakeFiles/ex1_create_task.dir/D_/pico/pico-sdk/src/rp2_common/pico_bootrom/bootrom.c.obj
 .ARM.attributes
                0x000003a6       0x22 CMakeFiles/ex1_create_task.dir/D_/pico/pico-sdk/src/rp2_common/pico_divider/divider.S.obj
 .ARM.attributes
                0x000003c8       0x22 CMakeFiles/ex1_create_task.dir/D_/pico/pico-sdk/src/rp2_common/pico_double/double_aeabi.S.obj
 .ARM.attributes
                0x000003ea       0x2c CMakeFiles/ex1_create_task.dir/D_/pico/pico-sdk/src/rp2_common/pico_double/double_init_rom.c.obj
 .ARM.attributes
                0x00000416       0x22 CMakeFiles/ex1_create_task.dir/D_/pico/pico-sdk/src/rp2_common/pico_double/double_v1_rom_shim.S.obj
 .ARM.attributes
                0x00000438       0x22 CMakeFiles/ex1_create_task.dir/D_/pico/pico-sdk/src/rp2_common/pico_int64_ops/pico_int64_ops_aeabi.S.obj
 .ARM.attributes
                0x0000045a       0x22 CMakeFiles/ex1_create_task.dir/D_/pico/pico-sdk/src/rp2_common/pico_float/float_aeabi.S.obj
 .ARM.attributes
                0x0000047c       0x2c CMakeFiles/ex1_create_task.dir/D_/pico/pico-sdk/src/rp2_common/pico_float/float_init_rom.c.obj
 .ARM.attributes
                0x000004a8       0x22 CMakeFiles/ex1_create_task.dir/D_/pico/pico-sdk/src/rp2_common/pico_float/float_v1_rom_shim.S.obj
 .ARM.attributes
                0x000004ca       0x2c CMakeFiles/ex1_create_task.dir/D_/pico/pico-sdk/src/rp2_common/pico_malloc/pico_malloc.c.obj
 .ARM.attributes
                0x000004f6       0x22 CMakeFiles/ex1_create_task.dir/D_/pico/pico-sdk/src/rp2_common/pico_mem_ops/mem_ops_aeabi.S.obj
 .ARM.attributes
                0x00000518       0x22 CMakeFiles/ex1_create_task.dir/D_/pico/pico-sdk/src/rp2_common/pico_standard_link/crt0.S.obj
 .ARM.attributes
                0x0000053a       0x2c CMakeFiles/ex1_create_task.dir/D_/pico/pico-sdk/src/rp2_common/pico_standard_link/binary_info.c.obj
 .ARM.attributes
                0x00000566       0x2c CMakeFiles/ex1_create_task.dir/D_/pico/pico-sdk/src/rp2_common/pico_stdio/stdio.c.obj
 .ARM.attributes
                0x00000592       0x2c CMakeFiles/ex1_create_task.dir/D_/pico/pico-sdk/src/rp2_common/pico_stdio_usb/reset_interface.c.obj
 .ARM.attributes
                0x000005be       0x2c CMakeFiles/ex1_create_task.dir/D_/pico/pico-sdk/src/rp2_common/pico_stdio_usb/stdio_usb.c.obj
 .ARM.attributes
                0x000005ea       0x2c CMakeFiles/ex1_create_task.dir/D_/pico/pico-sdk/src/rp2_common/pico_stdio_usb/stdio_usb_descriptors.c.obj
 .ARM.attributes
                0x00000616       0x2c CMakeFiles/ex1_create_task.dir/D_/pico/pico-sdk/lib/tinyusb/src/portable/raspberrypi/rp2040/dcd_rp2040.c.obj
 .ARM.attributes
                0x00000642       0x2c CMakeFiles/ex1_create_task.dir/D_/pico/pico-sdk/lib/tinyusb/src/portable/raspberrypi/rp2040/rp2040_usb.c.obj
 .ARM.attributes
                0x0000066e       0x2c CMakeFiles/ex1_create_task.dir/D_/pico/pico-sdk/lib/tinyusb/src/device/usbd.c.obj
 .ARM.attributes
                0x0000069a       0x2c CMakeFiles/ex1_create_task.dir/D_/pico/pico-sdk/lib/tinyusb/src/device/usbd_control.c.obj
 .ARM.attributes
                0x000006c6       0x2c CMakeFiles/ex1_create_task.dir/D_/pico/pico-sdk/lib/tinyusb/src/class/cdc/cdc_device.c.obj
 .ARM.attributes
                0x000006f2       0x2c CMakeFiles/ex1_create_task.dir/D_/pico/pico-sdk/lib/tinyusb/src/tusb.c.obj
 .ARM.attributes
                0x0000071e       0x2c CMakeFiles/ex1_create_task.dir/D_/pico/pico-sdk/lib/tinyusb/src/common/tusb_fifo.c.obj
 .ARM.attributes
                0x0000074a       0x2c CMakeFiles/ex1_create_task.dir/D_/pico/pico-sdk/src/rp2_common/pico_unique_id/unique_id.c.obj
 .ARM.attributes
                0x00000776       0x2c CMakeFiles/ex1_create_task.dir/D_/pico/pico-sdk/src/rp2_common/hardware_flash/flash.c.obj
 .ARM.attributes
                0x000007a2       0x2c CMakeFiles/ex1_create_task.dir/D_/pico/pico-FreeRTOS/Source/portable/ThirdParty/GCC/RP2040/port.c.obj
 .ARM.attributes
                0x000007ce       0x2c CMakeFiles/ex1_create_task.dir/D_/pico/pico-FreeRTOS/Source/event_groups.c.obj
 .ARM.attributes
                0x000007fa       0x2c CMakeFiles/ex1_create_task.dir/D_/pico/pico-FreeRTOS/Source/list.c.obj
 .ARM.attributes
                0x00000826       0x2c CMakeFiles/ex1_create_task.dir/D_/pico/pico-FreeRTOS/Source/queue.c.obj
 .ARM.attributes
                0x00000852       0x2c CMakeFiles/ex1_create_task.dir/D_/pico/pico-FreeRTOS/Source/tasks.c.obj
 .ARM.attributes
                0x0000087e       0x2c CMakeFiles/ex1_create_task.dir/D_/pico/pico-FreeRTOS/Source/timers.c.obj
 .ARM.attributes
                0x000008aa       0x2c CMakeFiles/ex1_create_task.dir/D_/pico/pico-sdk/src/rp2_common/hardware_exception/exception.c.obj
 .ARM.attributes
                0x000008d6       0x2c CMakeFiles/ex1_create_task.dir/D_/pico/pico-sdk/src/rp2_common/pico_multicore/multicore.c.obj
 .ARM.attributes
                0x00000902       0x2c CMakeFiles/ex1_create_task.dir/D_/pico/pico-FreeRTOS/Source/portable/MemMang/heap_4.c.obj
 .ARM.attributes
                0x0000092e       0x22 C:\Users\ployy\AppData\Local\Temp\ccERXrNO.o
 .ARM.attributes
                0x00000950       0x1e d:/pico/armcc/10 2021.10/bin/../lib/gcc/arm-none-eabi/10.3.1/thumb/v6-m/nofp\libgcc.a(_dvmd_tls.o)
 .ARM.attributes
                0x0000096e       0x2c d:/pico/armcc/10 2021.10/bin/../lib/gcc/arm-none-eabi/10.3.1/../../../../arm-none-eabi/lib/thumb/v6-m/nofp\libg.a(lib_a-strlen-stub.o)

.comment        0x00000000       0x49
 .comment       0x00000000       0x49 CMakeFiles/ex1_create_task.dir/main.c.obj
                                 0x4a (size before relaxing)
 .comment       0x00000049       0x4a CMakeFiles/ex1_create_task.dir/D_/pico/pico-sdk/src/rp2_common/hardware_claim/claim.c.obj
 .comment       0x00000049       0x4a CMakeFiles/ex1_create_task.dir/D_/pico/pico-sdk/src/rp2_common/pico_platform/platform.c.obj
 .comment       0x00000049       0x4a CMakeFiles/ex1_create_task.dir/D_/pico/pico-sdk/src/rp2_common/hardware_sync/sync.c.obj
 .comment       0x00000049       0x4a CMakeFiles/ex1_create_task.dir/D_/pico/pico-sdk/src/rp2_common/hardware_irq/irq.c.obj
 .comment       0x00000049       0x4a CMakeFiles/ex1_create_task.dir/D_/pico/pico-sdk/src/common/pico_sync/lock_core.c.obj
 .comment       0x00000049       0x4a CMakeFiles/ex1_create_task.dir/D_/pico/pico-sdk/src/common/pico_time/time.c.obj
 .comment       0x00000049       0x4a CMakeFiles/ex1_create_task.dir/D_/pico/pico-sdk/src/rp2_common/hardware_timer/timer.c.obj
 .comment       0x00000049       0x4a CMakeFiles/ex1_create_task.dir/D_/pico/pico-sdk/src/common/pico_util/pheap.c.obj
 .comment       0x00000049       0x4a CMakeFiles/ex1_create_task.dir/D_/pico/pico-sdk/src/common/pico_sync/mutex.c.obj
 .comment       0x00000049       0x4a CMakeFiles/ex1_create_task.dir/D_/pico/pico-sdk/src/common/pico_sync/critical_section.c.obj
 .comment       0x00000049       0x4a CMakeFiles/ex1_create_task.dir/D_/pico/pico-sdk/src/rp2_common/pico_runtime/runtime.c.obj
 .comment       0x00000049       0x4a CMakeFiles/ex1_create_task.dir/D_/pico/pico-sdk/src/rp2_common/hardware_clocks/clocks.c.obj
 .comment       0x00000049       0x4a CMakeFiles/ex1_create_task.dir/D_/pico/pico-sdk/src/rp2_common/hardware_pll/pll.c.obj
 .comment       0x00000049       0x4a CMakeFiles/ex1_create_task.dir/D_/pico/pico-sdk/src/rp2_common/hardware_watchdog/watchdog.c.obj
 .comment       0x00000049       0x4a CMakeFiles/ex1_create_task.dir/D_/pico/pico-sdk/src/rp2_common/hardware_xosc/xosc.c.obj
 .comment       0x00000049       0x4a CMakeFiles/ex1_create_task.dir/D_/pico/pico-sdk/src/rp2_common/pico_printf/printf.c.obj
 .comment       0x00000049       0x4a CMakeFiles/ex1_create_task.dir/D_/pico/pico-sdk/src/rp2_common/pico_bootrom/bootrom.c.obj
 .comment       0x00000049       0x4a CMakeFiles/ex1_create_task.dir/D_/pico/pico-sdk/src/rp2_common/pico_double/double_init_rom.c.obj
 .comment       0x00000049       0x4a CMakeFiles/ex1_create_task.dir/D_/pico/pico-sdk/src/rp2_common/pico_float/float_init_rom.c.obj
 .comment       0x00000049       0x4a CMakeFiles/ex1_create_task.dir/D_/pico/pico-sdk/src/rp2_common/pico_malloc/pico_malloc.c.obj
 .comment       0x00000049       0x4a CMakeFiles/ex1_create_task.dir/D_/pico/pico-sdk/src/rp2_common/pico_standard_link/binary_info.c.obj
 .comment       0x00000049       0x4a CMakeFiles/ex1_create_task.dir/D_/pico/pico-sdk/src/rp2_common/pico_stdio/stdio.c.obj
 .comment       0x00000049       0x4a CMakeFiles/ex1_create_task.dir/D_/pico/pico-sdk/src/rp2_common/pico_stdio_usb/reset_interface.c.obj
 .comment       0x00000049       0x4a CMakeFiles/ex1_create_task.dir/D_/pico/pico-sdk/src/rp2_common/pico_stdio_usb/stdio_usb.c.obj
 .comment       0x00000049       0x4a CMakeFiles/ex1_create_task.dir/D_/pico/pico-sdk/src/rp2_common/pico_stdio_usb/stdio_usb_descriptors.c.obj
 .comment       0x00000049       0x4a CMakeFiles/ex1_create_task.dir/D_/pico/pico-sdk/lib/tinyusb/src/portable/raspberrypi/rp2040/dcd_rp2040.c.obj
 .comment       0x00000049       0x4a CMakeFiles/ex1_create_task.dir/D_/pico/pico-sdk/lib/tinyusb/src/portable/raspberrypi/rp2040/rp2040_usb.c.obj
 .comment       0x00000049       0x4a CMakeFiles/ex1_create_task.dir/D_/pico/pico-sdk/lib/tinyusb/src/device/usbd.c.obj
 .comment       0x00000049       0x4a CMakeFiles/ex1_create_task.dir/D_/pico/pico-sdk/lib/tinyusb/src/device/usbd_control.c.obj
 .comment       0x00000049       0x4a CMakeFiles/ex1_create_task.dir/D_/pico/pico-sdk/lib/tinyusb/src/class/cdc/cdc_device.c.obj
 .comment       0x00000049       0x4a CMakeFiles/ex1_create_task.dir/D_/pico/pico-sdk/lib/tinyusb/src/tusb.c.obj
 .comment       0x00000049       0x4a CMakeFiles/ex1_create_task.dir/D_/pico/pico-sdk/lib/tinyusb/src/common/tusb_fifo.c.obj
 .comment       0x00000049       0x4a CMakeFiles/ex1_create_task.dir/D_/pico/pico-sdk/src/rp2_common/pico_unique_id/unique_id.c.obj
 .comment       0x00000049       0x4a CMakeFiles/ex1_create_task.dir/D_/pico/pico-sdk/src/rp2_common/hardware_flash/flash.c.obj
 .comment       0x00000049       0x4a CMakeFiles/ex1_create_task.dir/D_/pico/pico-FreeRTOS/Source/portable/ThirdParty/GCC/RP2040/port.c.obj
 .comment       0x00000049       0x4a CMakeFiles/ex1_create_task.dir/D_/pico/pico-FreeRTOS/Source/event_groups.c.obj
 .comment       0x00000049       0x4a CMakeFiles/ex1_create_task.dir/D_/pico/pico-FreeRTOS/Source/list.c.obj
 .comment       0x00000049       0x4a CMakeFiles/ex1_create_task.dir/D_/pico/pico-FreeRTOS/Source/queue.c.obj
 .comment       0x00000049       0x4a CMakeFiles/ex1_create_task.dir/D_/pico/pico-FreeRTOS/Source/tasks.c.obj
 .comment       0x00000049       0x4a CMakeFiles/ex1_create_task.dir/D_/pico/pico-FreeRTOS/Source/timers.c.obj
 .comment       0x00000049       0x4a CMakeFiles/ex1_create_task.dir/D_/pico/pico-sdk/src/rp2_common/hardware_exception/exception.c.obj
 .comment       0x00000049       0x4a CMakeFiles/ex1_create_task.dir/D_/pico/pico-sdk/src/rp2_common/pico_multicore/multicore.c.obj
 .comment       0x00000049       0x4a CMakeFiles/ex1_create_task.dir/D_/pico/pico-FreeRTOS/Source/portable/MemMang/heap_4.c.obj

.debug_info     0x00000000    0x300cf
 .debug_info    0x00000000      0x3e7 CMakeFiles/ex1_create_task.dir/main.c.obj
 .debug_info    0x000003e7      0x6bb CMakeFiles/ex1_create_task.dir/D_/pico/pico-sdk/src/rp2_common/hardware_claim/claim.c.obj
 .debug_info    0x00000aa2      0x1e3 CMakeFiles/ex1_create_task.dir/D_/pico/pico-sdk/src/rp2_common/pico_platform/platform.c.obj
 .debug_info    0x00000c85      0x58e CMakeFiles/ex1_create_task.dir/D_/pico/pico-sdk/src/rp2_common/hardware_sync/sync.c.obj
 .debug_info    0x00001213     0x1c49 CMakeFiles/ex1_create_task.dir/D_/pico/pico-sdk/src/rp2_common/hardware_irq/irq.c.obj
 .debug_info    0x00002e5c      0x1a4 CMakeFiles/ex1_create_task.dir/D_/pico/pico-sdk/src/common/pico_sync/lock_core.c.obj
 .debug_info    0x00003000     0x39f6 CMakeFiles/ex1_create_task.dir/D_/pico/pico-sdk/src/common/pico_time/time.c.obj
 .debug_info    0x000069f6     0x1134 CMakeFiles/ex1_create_task.dir/D_/pico/pico-sdk/src/rp2_common/hardware_timer/timer.c.obj
 .debug_info    0x00007b2a     0x120c CMakeFiles/ex1_create_task.dir/D_/pico/pico-sdk/src/common/pico_util/pheap.c.obj
 .debug_info    0x00008d36     0x1c21 CMakeFiles/ex1_create_task.dir/D_/pico/pico-sdk/src/common/pico_sync/mutex.c.obj
 .debug_info    0x0000a957      0x2d1 CMakeFiles/ex1_create_task.dir/D_/pico/pico-sdk/src/common/pico_sync/critical_section.c.obj
 .debug_info    0x0000ac28      0xa6f CMakeFiles/ex1_create_task.dir/D_/pico/pico-sdk/src/rp2_common/pico_runtime/runtime.c.obj
 .debug_info    0x0000b697      0xf63 CMakeFiles/ex1_create_task.dir/D_/pico/pico-sdk/src/rp2_common/hardware_clocks/clocks.c.obj
 .debug_info    0x0000c5fa      0x54a CMakeFiles/ex1_create_task.dir/D_/pico/pico-sdk/src/rp2_common/hardware_pll/pll.c.obj
 .debug_info    0x0000cb44      0x4ee CMakeFiles/ex1_create_task.dir/D_/pico/pico-sdk/src/rp2_common/hardware_watchdog/watchdog.c.obj
 .debug_info    0x0000d032      0x1d8 CMakeFiles/ex1_create_task.dir/D_/pico/pico-sdk/src/rp2_common/hardware_xosc/xosc.c.obj
 .debug_info    0x0000d20a     0x1a5f CMakeFiles/ex1_create_task.dir/D_/pico/pico-sdk/src/rp2_common/pico_printf/printf.c.obj
 .debug_info    0x0000ec69       0x22 CMakeFiles/ex1_create_task.dir/D_/pico/pico-sdk/src/rp2_common/pico_bit_ops/bit_ops_aeabi.S.obj
 .debug_info    0x0000ec8b      0x27c CMakeFiles/ex1_create_task.dir/D_/pico/pico-sdk/src/rp2_common/pico_bootrom/bootrom.c.obj
 .debug_info    0x0000ef07       0x22 CMakeFiles/ex1_create_task.dir/D_/pico/pico-sdk/src/rp2_common/pico_divider/divider.S.obj
 .debug_info    0x0000ef29       0x22 CMakeFiles/ex1_create_task.dir/D_/pico/pico-sdk/src/rp2_common/pico_double/double_aeabi.S.obj
 .debug_info    0x0000ef4b      0x2d1 CMakeFiles/ex1_create_task.dir/D_/pico/pico-sdk/src/rp2_common/pico_double/double_init_rom.c.obj
 .debug_info    0x0000f21c       0x22 CMakeFiles/ex1_create_task.dir/D_/pico/pico-sdk/src/rp2_common/pico_double/double_v1_rom_shim.S.obj
 .debug_info    0x0000f23e       0x26 CMakeFiles/ex1_create_task.dir/D_/pico/pico-sdk/src/rp2_common/pico_int64_ops/pico_int64_ops_aeabi.S.obj
 .debug_info    0x0000f264       0x22 CMakeFiles/ex1_create_task.dir/D_/pico/pico-sdk/src/rp2_common/pico_float/float_aeabi.S.obj
 .debug_info    0x0000f286      0x2eb CMakeFiles/ex1_create_task.dir/D_/pico/pico-sdk/src/rp2_common/pico_float/float_init_rom.c.obj
 .debug_info    0x0000f571       0x22 CMakeFiles/ex1_create_task.dir/D_/pico/pico-sdk/src/rp2_common/pico_float/float_v1_rom_shim.S.obj
 .debug_info    0x0000f593      0x48e CMakeFiles/ex1_create_task.dir/D_/pico/pico-sdk/src/rp2_common/pico_malloc/pico_malloc.c.obj
 .debug_info    0x0000fa21       0x22 CMakeFiles/ex1_create_task.dir/D_/pico/pico-sdk/src/rp2_common/pico_mem_ops/mem_ops_aeabi.S.obj
 .debug_info    0x0000fa43       0x22 CMakeFiles/ex1_create_task.dir/D_/pico/pico-sdk/src/rp2_common/pico_standard_link/crt0.S.obj
 .debug_info    0x0000fa65      0x2f6 CMakeFiles/ex1_create_task.dir/D_/pico/pico-sdk/src/rp2_common/pico_standard_link/binary_info.c.obj
 .debug_info    0x0000fd5b     0x12bc CMakeFiles/ex1_create_task.dir/D_/pico/pico-sdk/src/rp2_common/pico_stdio/stdio.c.obj
 .debug_info    0x00011017      0x7ce CMakeFiles/ex1_create_task.dir/D_/pico/pico-sdk/src/rp2_common/pico_stdio_usb/reset_interface.c.obj
 .debug_info    0x000117e5      0xfe6 CMakeFiles/ex1_create_task.dir/D_/pico/pico-sdk/src/rp2_common/pico_stdio_usb/stdio_usb.c.obj
 .debug_info    0x000127cb      0x653 CMakeFiles/ex1_create_task.dir/D_/pico/pico-sdk/src/rp2_common/pico_stdio_usb/stdio_usb_descriptors.c.obj
 .debug_info    0x00012e1e     0x187a CMakeFiles/ex1_create_task.dir/D_/pico/pico-sdk/lib/tinyusb/src/portable/raspberrypi/rp2040/dcd_rp2040.c.obj
 .debug_info    0x00014698      0xde5 CMakeFiles/ex1_create_task.dir/D_/pico/pico-sdk/lib/tinyusb/src/portable/raspberrypi/rp2040/rp2040_usb.c.obj
 .debug_info    0x0001547d     0x439e CMakeFiles/ex1_create_task.dir/D_/pico/pico-sdk/lib/tinyusb/src/device/usbd.c.obj
 .debug_info    0x0001981b      0xa40 CMakeFiles/ex1_create_task.dir/D_/pico/pico-sdk/lib/tinyusb/src/device/usbd_control.c.obj
 .debug_info    0x0001a25b     0x1b6b CMakeFiles/ex1_create_task.dir/D_/pico/pico-sdk/lib/tinyusb/src/class/cdc/cdc_device.c.obj
 .debug_info    0x0001bdc6      0xcbe CMakeFiles/ex1_create_task.dir/D_/pico/pico-sdk/lib/tinyusb/src/tusb.c.obj
 .debug_info    0x0001ca84     0x297b CMakeFiles/ex1_create_task.dir/D_/pico/pico-sdk/lib/tinyusb/src/common/tusb_fifo.c.obj
 .debug_info    0x0001f3ff      0x257 CMakeFiles/ex1_create_task.dir/D_/pico/pico-sdk/src/rp2_common/pico_unique_id/unique_id.c.obj
 .debug_info    0x0001f656      0xf22 CMakeFiles/ex1_create_task.dir/D_/pico/pico-sdk/src/rp2_common/hardware_flash/flash.c.obj
 .debug_info    0x00020578     0x1aa4 CMakeFiles/ex1_create_task.dir/D_/pico/pico-FreeRTOS/Source/portable/ThirdParty/GCC/RP2040/port.c.obj
 .debug_info    0x0002201c      0xf19 CMakeFiles/ex1_create_task.dir/D_/pico/pico-FreeRTOS/Source/event_groups.c.obj
 .debug_info    0x00022f35      0x2e0 CMakeFiles/ex1_create_task.dir/D_/pico/pico-FreeRTOS/Source/list.c.obj
 .debug_info    0x00023215     0x2eb7 CMakeFiles/ex1_create_task.dir/D_/pico/pico-FreeRTOS/Source/queue.c.obj
 .debug_info    0x000260cc     0x5dc2 CMakeFiles/ex1_create_task.dir/D_/pico/pico-FreeRTOS/Source/tasks.c.obj
 .debug_info    0x0002be8e     0x19bc CMakeFiles/ex1_create_task.dir/D_/pico/pico-FreeRTOS/Source/timers.c.obj
 .debug_info    0x0002d84a      0x54a CMakeFiles/ex1_create_task.dir/D_/pico/pico-sdk/src/rp2_common/hardware_exception/exception.c.obj
 .debug_info    0x0002dd94     0x1ca6 CMakeFiles/ex1_create_task.dir/D_/pico/pico-sdk/src/rp2_common/pico_multicore/multicore.c.obj
 .debug_info    0x0002fa3a      0x695 CMakeFiles/ex1_create_task.dir/D_/pico/pico-FreeRTOS/Source/portable/MemMang/heap_4.c.obj

.debug_abbrev   0x00000000     0x7981
 .debug_abbrev  0x00000000      0x187 CMakeFiles/ex1_create_task.dir/main.c.obj
 .debug_abbrev  0x00000187      0x2e9 CMakeFiles/ex1_create_task.dir/D_/pico/pico-sdk/src/rp2_common/hardware_claim/claim.c.obj
 .debug_abbrev  0x00000470       0xeb CMakeFiles/ex1_create_task.dir/D_/pico/pico-sdk/src/rp2_common/pico_platform/platform.c.obj
 .debug_abbrev  0x0000055b      0x21b CMakeFiles/ex1_create_task.dir/D_/pico/pico-sdk/src/rp2_common/hardware_sync/sync.c.obj
 .debug_abbrev  0x00000776      0x4fc CMakeFiles/ex1_create_task.dir/D_/pico/pico-sdk/src/rp2_common/hardware_irq/irq.c.obj
 .debug_abbrev  0x00000c72      0x116 CMakeFiles/ex1_create_task.dir/D_/pico/pico-sdk/src/common/pico_sync/lock_core.c.obj
 .debug_abbrev  0x00000d88      0x54d CMakeFiles/ex1_create_task.dir/D_/pico/pico-sdk/src/common/pico_time/time.c.obj
 .debug_abbrev  0x000012d5      0x3a2 CMakeFiles/ex1_create_task.dir/D_/pico/pico-sdk/src/rp2_common/hardware_timer/timer.c.obj
 .debug_abbrev  0x00001677      0x297 CMakeFiles/ex1_create_task.dir/D_/pico/pico-sdk/src/common/pico_util/pheap.c.obj
 .debug_abbrev  0x0000190e      0x351 CMakeFiles/ex1_create_task.dir/D_/pico/pico-sdk/src/common/pico_sync/mutex.c.obj
 .debug_abbrev  0x00001c5f      0x1aa CMakeFiles/ex1_create_task.dir/D_/pico/pico-sdk/src/common/pico_sync/critical_section.c.obj
 .debug_abbrev  0x00001e09      0x3aa CMakeFiles/ex1_create_task.dir/D_/pico/pico-sdk/src/rp2_common/pico_runtime/runtime.c.obj
 .debug_abbrev  0x000021b3      0x3a5 CMakeFiles/ex1_create_task.dir/D_/pico/pico-sdk/src/rp2_common/hardware_clocks/clocks.c.obj
 .debug_abbrev  0x00002558      0x1ea CMakeFiles/ex1_create_task.dir/D_/pico/pico-sdk/src/rp2_common/hardware_pll/pll.c.obj
 .debug_abbrev  0x00002742      0x1a8 CMakeFiles/ex1_create_task.dir/D_/pico/pico-sdk/src/rp2_common/hardware_watchdog/watchdog.c.obj
 .debug_abbrev  0x000028ea      0x109 CMakeFiles/ex1_create_task.dir/D_/pico/pico-sdk/src/rp2_common/hardware_xosc/xosc.c.obj
 .debug_abbrev  0x000029f3      0x384 CMakeFiles/ex1_create_task.dir/D_/pico/pico-sdk/src/rp2_common/pico_printf/printf.c.obj
 .debug_abbrev  0x00002d77       0x12 CMakeFiles/ex1_create_task.dir/D_/pico/pico-sdk/src/rp2_common/pico_bit_ops/bit_ops_aeabi.S.obj
 .debug_abbrev  0x00002d89      0x13b CMakeFiles/ex1_create_task.dir/D_/pico/pico-sdk/src/rp2_common/pico_bootrom/bootrom.c.obj
 .debug_abbrev  0x00002ec4       0x12 CMakeFiles/ex1_create_task.dir/D_/pico/pico-sdk/src/rp2_common/pico_divider/divider.S.obj
 .debug_abbrev  0x00002ed6       0x12 CMakeFiles/ex1_create_task.dir/D_/pico/pico-sdk/src/rp2_common/pico_double/double_aeabi.S.obj
 .debug_abbrev  0x00002ee8      0x179 CMakeFiles/ex1_create_task.dir/D_/pico/pico-sdk/src/rp2_common/pico_double/double_init_rom.c.obj
 .debug_abbrev  0x00003061       0x12 CMakeFiles/ex1_create_task.dir/D_/pico/pico-sdk/src/rp2_common/pico_double/double_v1_rom_shim.S.obj
 .debug_abbrev  0x00003073       0x14 CMakeFiles/ex1_create_task.dir/D_/pico/pico-sdk/src/rp2_common/pico_int64_ops/pico_int64_ops_aeabi.S.obj
 .debug_abbrev  0x00003087       0x12 CMakeFiles/ex1_create_task.dir/D_/pico/pico-sdk/src/rp2_common/pico_float/float_aeabi.S.obj
 .debug_abbrev  0x00003099      0x18c CMakeFiles/ex1_create_task.dir/D_/pico/pico-sdk/src/rp2_common/pico_float/float_init_rom.c.obj
 .debug_abbrev  0x00003225       0x12 CMakeFiles/ex1_create_task.dir/D_/pico/pico-sdk/src/rp2_common/pico_float/float_v1_rom_shim.S.obj
 .debug_abbrev  0x00003237      0x1cf CMakeFiles/ex1_create_task.dir/D_/pico/pico-sdk/src/rp2_common/pico_malloc/pico_malloc.c.obj
 .debug_abbrev  0x00003406       0x12 CMakeFiles/ex1_create_task.dir/D_/pico/pico-sdk/src/rp2_common/pico_mem_ops/mem_ops_aeabi.S.obj
 .debug_abbrev  0x00003418       0x12 CMakeFiles/ex1_create_task.dir/D_/pico/pico-sdk/src/rp2_common/pico_standard_link/crt0.S.obj
 .debug_abbrev  0x0000342a       0xad CMakeFiles/ex1_create_task.dir/D_/pico/pico-sdk/src/rp2_common/pico_standard_link/binary_info.c.obj
 .debug_abbrev  0x000034d7      0x480 CMakeFiles/ex1_create_task.dir/D_/pico/pico-sdk/src/rp2_common/pico_stdio/stdio.c.obj
 .debug_abbrev  0x00003957      0x2b2 CMakeFiles/ex1_create_task.dir/D_/pico/pico-sdk/src/rp2_common/pico_stdio_usb/reset_interface.c.obj
 .debug_abbrev  0x00003c09      0x40d CMakeFiles/ex1_create_task.dir/D_/pico/pico-sdk/src/rp2_common/pico_stdio_usb/stdio_usb.c.obj
 .debug_abbrev  0x00004016      0x14e CMakeFiles/ex1_create_task.dir/D_/pico/pico-sdk/src/rp2_common/pico_stdio_usb/stdio_usb_descriptors.c.obj
 .debug_abbrev  0x00004164      0x3d1 CMakeFiles/ex1_create_task.dir/D_/pico/pico-sdk/lib/tinyusb/src/portable/raspberrypi/rp2040/dcd_rp2040.c.obj
 .debug_abbrev  0x00004535      0x36e CMakeFiles/ex1_create_task.dir/D_/pico/pico-sdk/lib/tinyusb/src/portable/raspberrypi/rp2040/rp2040_usb.c.obj
 .debug_abbrev  0x000048a3      0x569 CMakeFiles/ex1_create_task.dir/D_/pico/pico-sdk/lib/tinyusb/src/device/usbd.c.obj
 .debug_abbrev  0x00004e0c      0x316 CMakeFiles/ex1_create_task.dir/D_/pico/pico-sdk/lib/tinyusb/src/device/usbd_control.c.obj
 .debug_abbrev  0x00005122      0x457 CMakeFiles/ex1_create_task.dir/D_/pico/pico-sdk/lib/tinyusb/src/class/cdc/cdc_device.c.obj
 .debug_abbrev  0x00005579      0x2b4 CMakeFiles/ex1_create_task.dir/D_/pico/pico-sdk/lib/tinyusb/src/tusb.c.obj
 .debug_abbrev  0x0000582d      0x3b4 CMakeFiles/ex1_create_task.dir/D_/pico/pico-sdk/lib/tinyusb/src/common/tusb_fifo.c.obj
 .debug_abbrev  0x00005be1      0x163 CMakeFiles/ex1_create_task.dir/D_/pico/pico-sdk/src/rp2_common/pico_unique_id/unique_id.c.obj
 .debug_abbrev  0x00005d44      0x2b6 CMakeFiles/ex1_create_task.dir/D_/pico/pico-sdk/src/rp2_common/hardware_flash/flash.c.obj
 .debug_abbrev  0x00005ffa      0x51a CMakeFiles/ex1_create_task.dir/D_/pico/pico-FreeRTOS/Source/portable/ThirdParty/GCC/RP2040/port.c.obj
 .debug_abbrev  0x00006514      0x1d6 CMakeFiles/ex1_create_task.dir/D_/pico/pico-FreeRTOS/Source/event_groups.c.obj
 .debug_abbrev  0x000066ea      0x106 CMakeFiles/ex1_create_task.dir/D_/pico/pico-FreeRTOS/Source/list.c.obj
 .debug_abbrev  0x000067f0      0x255 CMakeFiles/ex1_create_task.dir/D_/pico/pico-FreeRTOS/Source/queue.c.obj
 .debug_abbrev  0x00006a45      0x3a6 CMakeFiles/ex1_create_task.dir/D_/pico/pico-FreeRTOS/Source/tasks.c.obj
 .debug_abbrev  0x00006deb      0x262 CMakeFiles/ex1_create_task.dir/D_/pico/pico-FreeRTOS/Source/timers.c.obj
 .debug_abbrev  0x0000704d      0x2ac CMakeFiles/ex1_create_task.dir/D_/pico/pico-sdk/src/rp2_common/hardware_exception/exception.c.obj
 .debug_abbrev  0x000072f9      0x457 CMakeFiles/ex1_create_task.dir/D_/pico/pico-sdk/src/rp2_common/pico_multicore/multicore.c.obj
 .debug_abbrev  0x00007750      0x231 CMakeFiles/ex1_create_task.dir/D_/pico/pico-FreeRTOS/Source/portable/MemMang/heap_4.c.obj

.debug_loc      0x00000000    0x218a7
 .debug_loc     0x00000000       0x94 CMakeFiles/ex1_create_task.dir/main.c.obj
 .debug_loc     0x00000094      0x45f CMakeFiles/ex1_create_task.dir/D_/pico/pico-sdk/src/rp2_common/hardware_claim/claim.c.obj
 .debug_loc     0x000004f3       0xe9 CMakeFiles/ex1_create_task.dir/D_/pico/pico-sdk/src/rp2_common/pico_platform/platform.c.obj
 .debug_loc     0x000005dc      0x233 CMakeFiles/ex1_create_task.dir/D_/pico/pico-sdk/src/rp2_common/hardware_sync/sync.c.obj
 .debug_loc     0x0000080f     0x1365 CMakeFiles/ex1_create_task.dir/D_/pico/pico-sdk/src/rp2_common/hardware_irq/irq.c.obj
 .debug_loc     0x00001b74       0x60 CMakeFiles/ex1_create_task.dir/D_/pico/pico-sdk/src/common/pico_sync/lock_core.c.obj
 .debug_loc     0x00001bd4     0x2d82 CMakeFiles/ex1_create_task.dir/D_/pico/pico-sdk/src/common/pico_time/time.c.obj
 .debug_loc     0x00004956      0x952 CMakeFiles/ex1_create_task.dir/D_/pico/pico-sdk/src/rp2_common/hardware_timer/timer.c.obj
 .debug_loc     0x000052a8     0x1439 CMakeFiles/ex1_create_task.dir/D_/pico/pico-sdk/src/common/pico_util/pheap.c.obj
 .debug_loc     0x000066e1     0x13a2 CMakeFiles/ex1_create_task.dir/D_/pico/pico-sdk/src/common/pico_sync/mutex.c.obj
 .debug_loc     0x00007a83       0xf5 CMakeFiles/ex1_create_task.dir/D_/pico/pico-sdk/src/common/pico_sync/critical_section.c.obj
 .debug_loc     0x00007b78      0x3ff CMakeFiles/ex1_create_task.dir/D_/pico/pico-sdk/src/rp2_common/pico_runtime/runtime.c.obj
 .debug_loc     0x00007f77      0x7eb CMakeFiles/ex1_create_task.dir/D_/pico/pico-sdk/src/rp2_common/hardware_clocks/clocks.c.obj
 .debug_loc     0x00008762      0x32f CMakeFiles/ex1_create_task.dir/D_/pico/pico-sdk/src/rp2_common/hardware_pll/pll.c.obj
 .debug_loc     0x00008a91      0x2ec CMakeFiles/ex1_create_task.dir/D_/pico/pico-sdk/src/rp2_common/hardware_watchdog/watchdog.c.obj
 .debug_loc     0x00008d7d       0x71 CMakeFiles/ex1_create_task.dir/D_/pico/pico-sdk/src/rp2_common/hardware_xosc/xosc.c.obj
 .debug_loc     0x00008dee     0x2095 CMakeFiles/ex1_create_task.dir/D_/pico/pico-sdk/src/rp2_common/pico_printf/printf.c.obj
 .debug_loc     0x0000ae83      0x1a1 CMakeFiles/ex1_create_task.dir/D_/pico/pico-sdk/src/rp2_common/pico_bootrom/bootrom.c.obj
 .debug_loc     0x0000b024       0x59 CMakeFiles/ex1_create_task.dir/D_/pico/pico-sdk/src/rp2_common/pico_double/double_init_rom.c.obj
 .debug_loc     0x0000b07d       0x73 CMakeFiles/ex1_create_task.dir/D_/pico/pico-sdk/src/rp2_common/pico_float/float_init_rom.c.obj
 .debug_loc     0x0000b0f0      0x2dc CMakeFiles/ex1_create_task.dir/D_/pico/pico-sdk/src/rp2_common/pico_malloc/pico_malloc.c.obj
 .debug_loc     0x0000b3cc      0xb88 CMakeFiles/ex1_create_task.dir/D_/pico/pico-sdk/src/rp2_common/pico_stdio/stdio.c.obj
 .debug_loc     0x0000bf54      0x398 CMakeFiles/ex1_create_task.dir/D_/pico/pico-sdk/src/rp2_common/pico_stdio_usb/reset_interface.c.obj
 .debug_loc     0x0000c2ec      0x5a2 CMakeFiles/ex1_create_task.dir/D_/pico/pico-sdk/src/rp2_common/pico_stdio_usb/stdio_usb.c.obj
 .debug_loc     0x0000c88e      0x109 CMakeFiles/ex1_create_task.dir/D_/pico/pico-sdk/src/rp2_common/pico_stdio_usb/stdio_usb_descriptors.c.obj
 .debug_loc     0x0000c997      0xa8c CMakeFiles/ex1_create_task.dir/D_/pico/pico-sdk/lib/tinyusb/src/portable/raspberrypi/rp2040/dcd_rp2040.c.obj
 .debug_loc     0x0000d423      0x694 CMakeFiles/ex1_create_task.dir/D_/pico/pico-sdk/lib/tinyusb/src/portable/raspberrypi/rp2040/rp2040_usb.c.obj
 .debug_loc     0x0000dab7     0x279c CMakeFiles/ex1_create_task.dir/D_/pico/pico-sdk/lib/tinyusb/src/device/usbd.c.obj
 .debug_loc     0x00010253      0x5b9 CMakeFiles/ex1_create_task.dir/D_/pico/pico-sdk/lib/tinyusb/src/device/usbd_control.c.obj
 .debug_loc     0x0001080c     0x1124 CMakeFiles/ex1_create_task.dir/D_/pico/pico-sdk/lib/tinyusb/src/class/cdc/cdc_device.c.obj
 .debug_loc     0x00011930      0x879 CMakeFiles/ex1_create_task.dir/D_/pico/pico-sdk/lib/tinyusb/src/tusb.c.obj
 .debug_loc     0x000121a9     0x28ee CMakeFiles/ex1_create_task.dir/D_/pico/pico-sdk/lib/tinyusb/src/common/tusb_fifo.c.obj
 .debug_loc     0x00014a97       0xff CMakeFiles/ex1_create_task.dir/D_/pico/pico-sdk/src/rp2_common/pico_unique_id/unique_id.c.obj
 .debug_loc     0x00014b96      0x909 CMakeFiles/ex1_create_task.dir/D_/pico/pico-sdk/src/rp2_common/hardware_flash/flash.c.obj
 .debug_loc     0x0001549f      0x97e CMakeFiles/ex1_create_task.dir/D_/pico/pico-FreeRTOS/Source/portable/ThirdParty/GCC/RP2040/port.c.obj
 .debug_loc     0x00015e1d     0x1048 CMakeFiles/ex1_create_task.dir/D_/pico/pico-FreeRTOS/Source/event_groups.c.obj
 .debug_loc     0x00016e65       0xad CMakeFiles/ex1_create_task.dir/D_/pico/pico-FreeRTOS/Source/list.c.obj
 .debug_loc     0x00016f12     0x2ff9 CMakeFiles/ex1_create_task.dir/D_/pico/pico-FreeRTOS/Source/queue.c.obj
 .debug_loc     0x00019f0b     0x4fc4 CMakeFiles/ex1_create_task.dir/D_/pico/pico-FreeRTOS/Source/tasks.c.obj
 .debug_loc     0x0001eecf     0x13e2 CMakeFiles/ex1_create_task.dir/D_/pico/pico-FreeRTOS/Source/timers.c.obj
 .debug_loc     0x000202b1      0x223 CMakeFiles/ex1_create_task.dir/D_/pico/pico-sdk/src/rp2_common/hardware_exception/exception.c.obj
 .debug_loc     0x000204d4      0xf34 CMakeFiles/ex1_create_task.dir/D_/pico/pico-sdk/src/rp2_common/pico_multicore/multicore.c.obj
 .debug_loc     0x00021408      0x49f CMakeFiles/ex1_create_task.dir/D_/pico/pico-FreeRTOS/Source/portable/MemMang/heap_4.c.obj

.debug_aranges  0x00000000     0x1aa8
 .debug_aranges
                0x00000000       0x58 CMakeFiles/ex1_create_task.dir/main.c.obj
 .debug_aranges
                0x00000058       0x48 CMakeFiles/ex1_create_task.dir/D_/pico/pico-sdk/src/rp2_common/hardware_claim/claim.c.obj
 .debug_aranges
                0x000000a0       0x28 CMakeFiles/ex1_create_task.dir/D_/pico/pico-sdk/src/rp2_common/pico_platform/platform.c.obj
 .debug_aranges
                0x000000c8       0x58 CMakeFiles/ex1_create_task.dir/D_/pico/pico-sdk/src/rp2_common/hardware_sync/sync.c.obj
 .debug_aranges
                0x00000120       0xc8 CMakeFiles/ex1_create_task.dir/D_/pico/pico-sdk/src/rp2_common/hardware_irq/irq.c.obj
 .debug_aranges
                0x000001e8       0x20 CMakeFiles/ex1_create_task.dir/D_/pico/pico-sdk/src/common/pico_sync/lock_core.c.obj
 .debug_aranges
                0x00000208       0xd0 CMakeFiles/ex1_create_task.dir/D_/pico/pico-sdk/src/common/pico_time/time.c.obj
 .debug_aranges
                0x000002d8       0x78 CMakeFiles/ex1_create_task.dir/D_/pico/pico-sdk/src/rp2_common/hardware_timer/timer.c.obj
 .debug_aranges
                0x00000350       0x78 CMakeFiles/ex1_create_task.dir/D_/pico/pico-sdk/src/common/pico_util/pheap.c.obj
 .debug_aranges
                0x000003c8       0x88 CMakeFiles/ex1_create_task.dir/D_/pico/pico-sdk/src/common/pico_sync/mutex.c.obj
 .debug_aranges
                0x00000450       0x30 CMakeFiles/ex1_create_task.dir/D_/pico/pico-sdk/src/common/pico_sync/critical_section.c.obj
 .debug_aranges
                0x00000480       0x60 CMakeFiles/ex1_create_task.dir/D_/pico/pico-sdk/src/rp2_common/pico_runtime/runtime.c.obj
 .debug_aranges
                0x000004e0       0x70 CMakeFiles/ex1_create_task.dir/D_/pico/pico-sdk/src/rp2_common/hardware_clocks/clocks.c.obj
 .debug_aranges
                0x00000550       0x28 CMakeFiles/ex1_create_task.dir/D_/pico/pico-sdk/src/rp2_common/hardware_pll/pll.c.obj
 .debug_aranges
                0x00000578       0x58 CMakeFiles/ex1_create_task.dir/D_/pico/pico-sdk/src/rp2_common/hardware_watchdog/watchdog.c.obj
 .debug_aranges
                0x000005d0       0x30 CMakeFiles/ex1_create_task.dir/D_/pico/pico-sdk/src/rp2_common/hardware_xosc/xosc.c.obj
 .debug_aranges
                0x00000600       0x90 CMakeFiles/ex1_create_task.dir/D_/pico/pico-sdk/src/rp2_common/pico_printf/printf.c.obj
 .debug_aranges
                0x00000690       0x68 CMakeFiles/ex1_create_task.dir/D_/pico/pico-sdk/src/rp2_common/pico_bit_ops/bit_ops_aeabi.S.obj
 .debug_aranges
                0x000006f8       0x30 CMakeFiles/ex1_create_task.dir/D_/pico/pico-sdk/src/rp2_common/pico_bootrom/bootrom.c.obj
 .debug_aranges
                0x00000728       0x40 CMakeFiles/ex1_create_task.dir/D_/pico/pico-sdk/src/rp2_common/pico_divider/divider.S.obj
 .debug_aranges
                0x00000768      0x140 CMakeFiles/ex1_create_task.dir/D_/pico/pico-sdk/src/rp2_common/pico_double/double_aeabi.S.obj
 .debug_aranges
                0x000008a8       0x20 CMakeFiles/ex1_create_task.dir/D_/pico/pico-sdk/src/rp2_common/pico_double/double_init_rom.c.obj
 .debug_aranges
                0x000008c8       0xc8 CMakeFiles/ex1_create_task.dir/D_/pico/pico-sdk/src/rp2_common/pico_double/double_v1_rom_shim.S.obj
 .debug_aranges
                0x00000990       0x20 CMakeFiles/ex1_create_task.dir/D_/pico/pico-sdk/src/rp2_common/pico_int64_ops/pico_int64_ops_aeabi.S.obj
 .debug_aranges
                0x000009b0      0x130 CMakeFiles/ex1_create_task.dir/D_/pico/pico-sdk/src/rp2_common/pico_float/float_aeabi.S.obj
 .debug_aranges
                0x00000ae0       0x20 CMakeFiles/ex1_create_task.dir/D_/pico/pico-sdk/src/rp2_common/pico_float/float_init_rom.c.obj
 .debug_aranges
                0x00000b00       0x50 CMakeFiles/ex1_create_task.dir/D_/pico/pico-sdk/src/rp2_common/pico_float/float_v1_rom_shim.S.obj
 .debug_aranges
                0x00000b50       0x38 CMakeFiles/ex1_create_task.dir/D_/pico/pico-sdk/src/rp2_common/pico_malloc/pico_malloc.c.obj
 .debug_aranges
                0x00000b88       0x38 CMakeFiles/ex1_create_task.dir/D_/pico/pico-sdk/src/rp2_common/pico_mem_ops/mem_ops_aeabi.S.obj
 .debug_aranges
                0x00000bc0       0x28 CMakeFiles/ex1_create_task.dir/D_/pico/pico-sdk/src/rp2_common/pico_standard_link/crt0.S.obj
 .debug_aranges
                0x00000be8       0x18 CMakeFiles/ex1_create_task.dir/D_/pico/pico-sdk/src/rp2_common/pico_standard_link/binary_info.c.obj
 .debug_aranges
                0x00000c00       0xd0 CMakeFiles/ex1_create_task.dir/D_/pico/pico-sdk/src/rp2_common/pico_stdio/stdio.c.obj
 .debug_aranges
                0x00000cd0       0x58 CMakeFiles/ex1_create_task.dir/D_/pico/pico-sdk/src/rp2_common/pico_stdio_usb/reset_interface.c.obj
 .debug_aranges
                0x00000d28       0x50 CMakeFiles/ex1_create_task.dir/D_/pico/pico-sdk/src/rp2_common/pico_stdio_usb/stdio_usb.c.obj
 .debug_aranges
                0x00000d78       0x30 CMakeFiles/ex1_create_task.dir/D_/pico/pico-sdk/src/rp2_common/pico_stdio_usb/stdio_usb_descriptors.c.obj
 .debug_aranges
                0x00000da8       0xd0 CMakeFiles/ex1_create_task.dir/D_/pico/pico-sdk/lib/tinyusb/src/portable/raspberrypi/rp2040/dcd_rp2040.c.obj
 .debug_aranges
                0x00000e78       0x60 CMakeFiles/ex1_create_task.dir/D_/pico/pico-sdk/lib/tinyusb/src/portable/raspberrypi/rp2040/rp2040_usb.c.obj
 .debug_aranges
                0x00000ed8      0x128 CMakeFiles/ex1_create_task.dir/D_/pico/pico-sdk/lib/tinyusb/src/device/usbd.c.obj
 .debug_aranges
                0x00001000       0x50 CMakeFiles/ex1_create_task.dir/D_/pico/pico-sdk/lib/tinyusb/src/device/usbd_control.c.obj
 .debug_aranges
                0x00001050       0xa8 CMakeFiles/ex1_create_task.dir/D_/pico/pico-sdk/lib/tinyusb/src/class/cdc/cdc_device.c.obj
 .debug_aranges
                0x000010f8       0x50 CMakeFiles/ex1_create_task.dir/D_/pico/pico-sdk/lib/tinyusb/src/tusb.c.obj
 .debug_aranges
                0x00001148      0x118 CMakeFiles/ex1_create_task.dir/D_/pico/pico-sdk/lib/tinyusb/src/common/tusb_fifo.c.obj
 .debug_aranges
                0x00001260       0x30 CMakeFiles/ex1_create_task.dir/D_/pico/pico-sdk/src/rp2_common/pico_unique_id/unique_id.c.obj
 .debug_aranges
                0x00001290       0x50 CMakeFiles/ex1_create_task.dir/D_/pico/pico-sdk/src/rp2_common/hardware_flash/flash.c.obj
 .debug_aranges
                0x000012e0       0xc8 CMakeFiles/ex1_create_task.dir/D_/pico/pico-FreeRTOS/Source/portable/ThirdParty/GCC/RP2040/port.c.obj
 .debug_aranges
                0x000013a8       0x88 CMakeFiles/ex1_create_task.dir/D_/pico/pico-FreeRTOS/Source/event_groups.c.obj
 .debug_aranges
                0x00001430       0x40 CMakeFiles/ex1_create_task.dir/D_/pico/pico-FreeRTOS/Source/list.c.obj
 .debug_aranges
                0x00001470      0x170 CMakeFiles/ex1_create_task.dir/D_/pico/pico-FreeRTOS/Source/queue.c.obj
 .debug_aranges
                0x000015e0      0x288 CMakeFiles/ex1_create_task.dir/D_/pico/pico-FreeRTOS/Source/tasks.c.obj
 .debug_aranges
                0x00001868       0xf0 CMakeFiles/ex1_create_task.dir/D_/pico/pico-FreeRTOS/Source/timers.c.obj
 .debug_aranges
                0x00001958       0x40 CMakeFiles/ex1_create_task.dir/D_/pico/pico-sdk/src/rp2_common/hardware_exception/exception.c.obj
 .debug_aranges
                0x00001998       0xb8 CMakeFiles/ex1_create_task.dir/D_/pico/pico-sdk/src/rp2_common/pico_multicore/multicore.c.obj
 .debug_aranges
                0x00001a50       0x58 CMakeFiles/ex1_create_task.dir/D_/pico/pico-FreeRTOS/Source/portable/MemMang/heap_4.c.obj

.debug_ranges   0x00000000     0x4da8
 .debug_ranges  0x00000000       0x48 CMakeFiles/ex1_create_task.dir/main.c.obj
 .debug_ranges  0x00000048       0xd8 CMakeFiles/ex1_create_task.dir/D_/pico/pico-sdk/src/rp2_common/hardware_claim/claim.c.obj
 .debug_ranges  0x00000120       0x18 CMakeFiles/ex1_create_task.dir/D_/pico/pico-sdk/src/rp2_common/pico_platform/platform.c.obj
 .debug_ranges  0x00000138       0xf0 CMakeFiles/ex1_create_task.dir/D_/pico/pico-sdk/src/rp2_common/hardware_sync/sync.c.obj
 .debug_ranges  0x00000228      0x400 CMakeFiles/ex1_create_task.dir/D_/pico/pico-sdk/src/rp2_common/hardware_irq/irq.c.obj
 .debug_ranges  0x00000628       0x10 CMakeFiles/ex1_create_task.dir/D_/pico/pico-sdk/src/common/pico_sync/lock_core.c.obj
 .debug_ranges  0x00000638      0xad8 CMakeFiles/ex1_create_task.dir/D_/pico/pico-sdk/src/common/pico_time/time.c.obj
 .debug_ranges  0x00001110      0x320 CMakeFiles/ex1_create_task.dir/D_/pico/pico-sdk/src/rp2_common/hardware_timer/timer.c.obj
 .debug_ranges  0x00001430      0x248 CMakeFiles/ex1_create_task.dir/D_/pico/pico-sdk/src/common/pico_util/pheap.c.obj
 .debug_ranges  0x00001678      0x850 CMakeFiles/ex1_create_task.dir/D_/pico/pico-sdk/src/common/pico_sync/mutex.c.obj
 .debug_ranges  0x00001ec8       0x38 CMakeFiles/ex1_create_task.dir/D_/pico/pico-sdk/src/common/pico_sync/critical_section.c.obj
 .debug_ranges  0x00001f00       0x80 CMakeFiles/ex1_create_task.dir/D_/pico/pico-sdk/src/rp2_common/pico_runtime/runtime.c.obj
 .debug_ranges  0x00001f80       0x60 CMakeFiles/ex1_create_task.dir/D_/pico/pico-sdk/src/rp2_common/hardware_clocks/clocks.c.obj
 .debug_ranges  0x00001fe0       0x30 CMakeFiles/ex1_create_task.dir/D_/pico/pico-sdk/src/rp2_common/hardware_pll/pll.c.obj
 .debug_ranges  0x00002010       0x48 CMakeFiles/ex1_create_task.dir/D_/pico/pico-sdk/src/rp2_common/hardware_watchdog/watchdog.c.obj
 .debug_ranges  0x00002058       0x20 CMakeFiles/ex1_create_task.dir/D_/pico/pico-sdk/src/rp2_common/hardware_xosc/xosc.c.obj
 .debug_ranges  0x00002078      0x108 CMakeFiles/ex1_create_task.dir/D_/pico/pico-sdk/src/rp2_common/pico_printf/printf.c.obj
 .debug_ranges  0x00002180       0x60 CMakeFiles/ex1_create_task.dir/D_/pico/pico-sdk/src/rp2_common/pico_bit_ops/bit_ops_aeabi.S.obj
 .debug_ranges  0x000021e0       0x38 CMakeFiles/ex1_create_task.dir/D_/pico/pico-sdk/src/rp2_common/pico_bootrom/bootrom.c.obj
 .debug_ranges  0x00002218       0x38 CMakeFiles/ex1_create_task.dir/D_/pico/pico-sdk/src/rp2_common/pico_divider/divider.S.obj
 .debug_ranges  0x00002250      0x138 CMakeFiles/ex1_create_task.dir/D_/pico/pico-sdk/src/rp2_common/pico_double/double_aeabi.S.obj
 .debug_ranges  0x00002388       0x30 CMakeFiles/ex1_create_task.dir/D_/pico/pico-sdk/src/rp2_common/pico_double/double_init_rom.c.obj
 .debug_ranges  0x000023b8       0xc0 CMakeFiles/ex1_create_task.dir/D_/pico/pico-sdk/src/rp2_common/pico_double/double_v1_rom_shim.S.obj
 .debug_ranges  0x00002478      0x128 CMakeFiles/ex1_create_task.dir/D_/pico/pico-sdk/src/rp2_common/pico_float/float_aeabi.S.obj
 .debug_ranges  0x000025a0       0x28 CMakeFiles/ex1_create_task.dir/D_/pico/pico-sdk/src/rp2_common/pico_float/float_init_rom.c.obj
 .debug_ranges  0x000025c8       0x48 CMakeFiles/ex1_create_task.dir/D_/pico/pico-sdk/src/rp2_common/pico_float/float_v1_rom_shim.S.obj
 .debug_ranges  0x00002610       0x70 CMakeFiles/ex1_create_task.dir/D_/pico/pico-sdk/src/rp2_common/pico_malloc/pico_malloc.c.obj
 .debug_ranges  0x00002680       0x30 CMakeFiles/ex1_create_task.dir/D_/pico/pico-sdk/src/rp2_common/pico_mem_ops/mem_ops_aeabi.S.obj
 .debug_ranges  0x000026b0       0x20 CMakeFiles/ex1_create_task.dir/D_/pico/pico-sdk/src/rp2_common/pico_standard_link/crt0.S.obj
 .debug_ranges  0x000026d0      0x1b0 CMakeFiles/ex1_create_task.dir/D_/pico/pico-sdk/src/rp2_common/pico_stdio/stdio.c.obj
 .debug_ranges  0x00002880       0x48 CMakeFiles/ex1_create_task.dir/D_/pico/pico-sdk/src/rp2_common/pico_stdio_usb/reset_interface.c.obj
 .debug_ranges  0x000028c8       0xe8 CMakeFiles/ex1_create_task.dir/D_/pico/pico-sdk/src/rp2_common/pico_stdio_usb/stdio_usb.c.obj
 .debug_ranges  0x000029b0       0x20 CMakeFiles/ex1_create_task.dir/D_/pico/pico-sdk/src/rp2_common/pico_stdio_usb/stdio_usb_descriptors.c.obj
 .debug_ranges  0x000029d0       0xf0 CMakeFiles/ex1_create_task.dir/D_/pico/pico-sdk/lib/tinyusb/src/portable/raspberrypi/rp2040/dcd_rp2040.c.obj
 .debug_ranges  0x00002ac0       0x68 CMakeFiles/ex1_create_task.dir/D_/pico/pico-sdk/lib/tinyusb/src/portable/raspberrypi/rp2040/rp2040_usb.c.obj
 .debug_ranges  0x00002b28      0xb48 CMakeFiles/ex1_create_task.dir/D_/pico/pico-sdk/lib/tinyusb/src/device/usbd.c.obj
 .debug_ranges  0x00003670       0x88 CMakeFiles/ex1_create_task.dir/D_/pico/pico-sdk/lib/tinyusb/src/device/usbd_control.c.obj
 .debug_ranges  0x000036f8      0x110 CMakeFiles/ex1_create_task.dir/D_/pico/pico-sdk/lib/tinyusb/src/class/cdc/cdc_device.c.obj
 .debug_ranges  0x00003808       0xd0 CMakeFiles/ex1_create_task.dir/D_/pico/pico-sdk/lib/tinyusb/src/tusb.c.obj
 .debug_ranges  0x000038d8      0x138 CMakeFiles/ex1_create_task.dir/D_/pico/pico-sdk/lib/tinyusb/src/common/tusb_fifo.c.obj
 .debug_ranges  0x00003a10       0x38 CMakeFiles/ex1_create_task.dir/D_/pico/pico-sdk/src/rp2_common/pico_unique_id/unique_id.c.obj
 .debug_ranges  0x00003a48       0x58 CMakeFiles/ex1_create_task.dir/D_/pico/pico-sdk/src/rp2_common/hardware_flash/flash.c.obj
 .debug_ranges  0x00003aa0      0x318 CMakeFiles/ex1_create_task.dir/D_/pico/pico-FreeRTOS/Source/portable/ThirdParty/GCC/RP2040/port.c.obj
 .debug_ranges  0x00003db8       0x98 CMakeFiles/ex1_create_task.dir/D_/pico/pico-FreeRTOS/Source/event_groups.c.obj
 .debug_ranges  0x00003e50       0x30 CMakeFiles/ex1_create_task.dir/D_/pico/pico-FreeRTOS/Source/list.c.obj
 .debug_ranges  0x00003e80      0x268 CMakeFiles/ex1_create_task.dir/D_/pico/pico-FreeRTOS/Source/queue.c.obj
 .debug_ranges  0x000040e8      0x848 CMakeFiles/ex1_create_task.dir/D_/pico/pico-FreeRTOS/Source/tasks.c.obj
 .debug_ranges  0x00004930       0xe0 CMakeFiles/ex1_create_task.dir/D_/pico/pico-FreeRTOS/Source/timers.c.obj
 .debug_ranges  0x00004a10       0x30 CMakeFiles/ex1_create_task.dir/D_/pico/pico-sdk/src/rp2_common/hardware_exception/exception.c.obj
 .debug_ranges  0x00004a40      0x320 CMakeFiles/ex1_create_task.dir/D_/pico/pico-sdk/src/rp2_common/pico_multicore/multicore.c.obj
 .debug_ranges  0x00004d60       0x48 CMakeFiles/ex1_create_task.dir/D_/pico/pico-FreeRTOS/Source/portable/MemMang/heap_4.c.obj

.debug_line     0x00000000    0x1c909
 .debug_line    0x00000000      0x365 CMakeFiles/ex1_create_task.dir/main.c.obj
 .debug_line    0x00000365      0x41b CMakeFiles/ex1_create_task.dir/D_/pico/pico-sdk/src/rp2_common/hardware_claim/claim.c.obj
 .debug_line    0x00000780      0x234 CMakeFiles/ex1_create_task.dir/D_/pico/pico-sdk/src/rp2_common/pico_platform/platform.c.obj
 .debug_line    0x000009b4      0x417 CMakeFiles/ex1_create_task.dir/D_/pico/pico-sdk/src/rp2_common/hardware_sync/sync.c.obj
 .debug_line    0x00000dcb      0xfae CMakeFiles/ex1_create_task.dir/D_/pico/pico-sdk/src/rp2_common/hardware_irq/irq.c.obj
 .debug_line    0x00001d79      0x1d6 CMakeFiles/ex1_create_task.dir/D_/pico/pico-sdk/src/common/pico_sync/lock_core.c.obj
 .debug_line    0x00001f4f     0x1833 CMakeFiles/ex1_create_task.dir/D_/pico/pico-sdk/src/common/pico_time/time.c.obj
 .debug_line    0x00003782      0xa5a CMakeFiles/ex1_create_task.dir/D_/pico/pico-sdk/src/rp2_common/hardware_timer/timer.c.obj
 .debug_line    0x000041dc      0x850 CMakeFiles/ex1_create_task.dir/D_/pico/pico-sdk/src/common/pico_util/pheap.c.obj
 .debug_line    0x00004a2c      0xdc8 CMakeFiles/ex1_create_task.dir/D_/pico/pico-sdk/src/common/pico_sync/mutex.c.obj
 .debug_line    0x000057f4      0x261 CMakeFiles/ex1_create_task.dir/D_/pico/pico-sdk/src/common/pico_sync/critical_section.c.obj
 .debug_line    0x00005a55      0x783 CMakeFiles/ex1_create_task.dir/D_/pico/pico-sdk/src/rp2_common/pico_runtime/runtime.c.obj
 .debug_line    0x000061d8      0x906 CMakeFiles/ex1_create_task.dir/D_/pico/pico-sdk/src/rp2_common/hardware_clocks/clocks.c.obj
 .debug_line    0x00006ade      0x4e2 CMakeFiles/ex1_create_task.dir/D_/pico/pico-sdk/src/rp2_common/hardware_pll/pll.c.obj
 .debug_line    0x00006fc0      0x3c9 CMakeFiles/ex1_create_task.dir/D_/pico/pico-sdk/src/rp2_common/hardware_watchdog/watchdog.c.obj
 .debug_line    0x00007389      0x26d CMakeFiles/ex1_create_task.dir/D_/pico/pico-sdk/src/rp2_common/hardware_xosc/xosc.c.obj
 .debug_line    0x000075f6     0x11ee CMakeFiles/ex1_create_task.dir/D_/pico/pico-sdk/src/rp2_common/pico_printf/printf.c.obj
 .debug_line    0x000087e4      0x13d CMakeFiles/ex1_create_task.dir/D_/pico/pico-sdk/src/rp2_common/pico_bit_ops/bit_ops_aeabi.S.obj
 .debug_line    0x00008921      0x1ff CMakeFiles/ex1_create_task.dir/D_/pico/pico-sdk/src/rp2_common/pico_bootrom/bootrom.c.obj
 .debug_line    0x00008b20      0x2c6 CMakeFiles/ex1_create_task.dir/D_/pico/pico-sdk/src/rp2_common/pico_divider/divider.S.obj
 .debug_line    0x00008de6      0x41b CMakeFiles/ex1_create_task.dir/D_/pico/pico-sdk/src/rp2_common/pico_double/double_aeabi.S.obj
 .debug_line    0x00009201      0x2f4 CMakeFiles/ex1_create_task.dir/D_/pico/pico-sdk/src/rp2_common/pico_double/double_init_rom.c.obj
 .debug_line    0x000094f5      0x693 CMakeFiles/ex1_create_task.dir/D_/pico/pico-sdk/src/rp2_common/pico_double/double_v1_rom_shim.S.obj
 .debug_line    0x00009b88       0x8d CMakeFiles/ex1_create_task.dir/D_/pico/pico-sdk/src/rp2_common/pico_int64_ops/pico_int64_ops_aeabi.S.obj
 .debug_line    0x00009c15      0x3d1 CMakeFiles/ex1_create_task.dir/D_/pico/pico-sdk/src/rp2_common/pico_float/float_aeabi.S.obj
 .debug_line    0x00009fe6      0x2e6 CMakeFiles/ex1_create_task.dir/D_/pico/pico-sdk/src/rp2_common/pico_float/float_init_rom.c.obj
 .debug_line    0x0000a2cc      0x1bd CMakeFiles/ex1_create_task.dir/D_/pico/pico-sdk/src/rp2_common/pico_float/float_v1_rom_shim.S.obj
 .debug_line    0x0000a489      0x30b CMakeFiles/ex1_create_task.dir/D_/pico/pico-sdk/src/rp2_common/pico_malloc/pico_malloc.c.obj
 .debug_line    0x0000a794       0xb7 CMakeFiles/ex1_create_task.dir/D_/pico/pico-sdk/src/rp2_common/pico_mem_ops/mem_ops_aeabi.S.obj
 .debug_line    0x0000a84b       0xc8 CMakeFiles/ex1_create_task.dir/D_/pico/pico-sdk/src/rp2_common/pico_standard_link/crt0.S.obj
 .debug_line    0x0000a913      0x17f CMakeFiles/ex1_create_task.dir/D_/pico/pico-sdk/src/rp2_common/pico_standard_link/binary_info.c.obj
 .debug_line    0x0000aa92      0xc75 CMakeFiles/ex1_create_task.dir/D_/pico/pico-sdk/src/rp2_common/pico_stdio/stdio.c.obj
 .debug_line    0x0000b707      0x3f5 CMakeFiles/ex1_create_task.dir/D_/pico/pico-sdk/src/rp2_common/pico_stdio_usb/reset_interface.c.obj
 .debug_line    0x0000bafc      0x8e8 CMakeFiles/ex1_create_task.dir/D_/pico/pico-sdk/src/rp2_common/pico_stdio_usb/stdio_usb.c.obj
 .debug_line    0x0000c3e4      0x2a3 CMakeFiles/ex1_create_task.dir/D_/pico/pico-sdk/src/rp2_common/pico_stdio_usb/stdio_usb_descriptors.c.obj
 .debug_line    0x0000c687      0xaf8 CMakeFiles/ex1_create_task.dir/D_/pico/pico-sdk/lib/tinyusb/src/portable/raspberrypi/rp2040/dcd_rp2040.c.obj
 .debug_line    0x0000d17f      0x844 CMakeFiles/ex1_create_task.dir/D_/pico/pico-sdk/lib/tinyusb/src/portable/raspberrypi/rp2040/rp2040_usb.c.obj
 .debug_line    0x0000d9c3     0x22a5 CMakeFiles/ex1_create_task.dir/D_/pico/pico-sdk/lib/tinyusb/src/device/usbd.c.obj
 .debug_line    0x0000fc68      0x569 CMakeFiles/ex1_create_task.dir/D_/pico/pico-sdk/lib/tinyusb/src/device/usbd_control.c.obj
 .debug_line    0x000101d1      0xe81 CMakeFiles/ex1_create_task.dir/D_/pico/pico-sdk/lib/tinyusb/src/class/cdc/cdc_device.c.obj
 .debug_line    0x00011052      0x6f9 CMakeFiles/ex1_create_task.dir/D_/pico/pico-sdk/lib/tinyusb/src/tusb.c.obj
 .debug_line    0x0001174b     0x144d CMakeFiles/ex1_create_task.dir/D_/pico/pico-sdk/lib/tinyusb/src/common/tusb_fifo.c.obj
 .debug_line    0x00012b98      0x338 CMakeFiles/ex1_create_task.dir/D_/pico/pico-sdk/src/rp2_common/pico_unique_id/unique_id.c.obj
 .debug_line    0x00012ed0      0x765 CMakeFiles/ex1_create_task.dir/D_/pico/pico-sdk/src/rp2_common/hardware_flash/flash.c.obj
 .debug_line    0x00013635      0xe9d CMakeFiles/ex1_create_task.dir/D_/pico/pico-FreeRTOS/Source/portable/ThirdParty/GCC/RP2040/port.c.obj
 .debug_line    0x000144d2      0x797 CMakeFiles/ex1_create_task.dir/D_/pico/pico-FreeRTOS/Source/event_groups.c.obj
 .debug_line    0x00014c69      0x30c CMakeFiles/ex1_create_task.dir/D_/pico/pico-FreeRTOS/Source/list.c.obj
 .debug_line    0x00014f75     0x18da CMakeFiles/ex1_create_task.dir/D_/pico/pico-FreeRTOS/Source/queue.c.obj
 .debug_line    0x0001684f     0x3c50 CMakeFiles/ex1_create_task.dir/D_/pico/pico-FreeRTOS/Source/tasks.c.obj
 .debug_line    0x0001a49f      0xb32 CMakeFiles/ex1_create_task.dir/D_/pico/pico-FreeRTOS/Source/timers.c.obj
 .debug_line    0x0001afd1      0x3b7 CMakeFiles/ex1_create_task.dir/D_/pico/pico-sdk/src/rp2_common/hardware_exception/exception.c.obj
 .debug_line    0x0001b388      0xeb4 CMakeFiles/ex1_create_task.dir/D_/pico/pico-sdk/src/rp2_common/pico_multicore/multicore.c.obj
 .debug_line    0x0001c23c      0x6cd CMakeFiles/ex1_create_task.dir/D_/pico/pico-FreeRTOS/Source/portable/MemMang/heap_4.c.obj

.debug_str      0x00000000     0x913d
 .debug_str     0x00000000      0x2cb CMakeFiles/ex1_create_task.dir/main.c.obj
                                0x317 (size before relaxing)
 .debug_str     0x000002cb      0x1ae CMakeFiles/ex1_create_task.dir/D_/pico/pico-sdk/src/rp2_common/hardware_claim/claim.c.obj
                                0x36a (size before relaxing)
 .debug_str     0x00000479       0x80 CMakeFiles/ex1_create_task.dir/D_/pico/pico-sdk/src/rp2_common/pico_platform/platform.c.obj
                                0x226 (size before relaxing)
 .debug_str     0x000004f9       0xe2 CMakeFiles/ex1_create_task.dir/D_/pico/pico-sdk/src/rp2_common/hardware_sync/sync.c.obj
                                0x351 (size before relaxing)
 .debug_str     0x000005db      0x454 CMakeFiles/ex1_create_task.dir/D_/pico/pico-sdk/src/rp2_common/hardware_irq/irq.c.obj
                                0x7c7 (size before relaxing)
 .debug_str     0x00000a2f       0x52 CMakeFiles/ex1_create_task.dir/D_/pico/pico-sdk/src/common/pico_sync/lock_core.c.obj
                                0x207 (size before relaxing)
 .debug_str     0x00000a81      0x792 CMakeFiles/ex1_create_task.dir/D_/pico/pico-sdk/src/common/pico_time/time.c.obj
                                0xbe0 (size before relaxing)
 .debug_str     0x00001213      0x152 CMakeFiles/ex1_create_task.dir/D_/pico/pico-sdk/src/rp2_common/hardware_timer/timer.c.obj
                                0x69f (size before relaxing)
 .debug_str     0x00001365       0xdc CMakeFiles/ex1_create_task.dir/D_/pico/pico-sdk/src/common/pico_util/pheap.c.obj
                                0x3f0 (size before relaxing)
 .debug_str     0x00001441      0x1ae CMakeFiles/ex1_create_task.dir/D_/pico/pico-sdk/src/common/pico_sync/mutex.c.obj
                                0x624 (size before relaxing)
 .debug_str     0x000015ef       0xca CMakeFiles/ex1_create_task.dir/D_/pico/pico-sdk/src/common/pico_sync/critical_section.c.obj
                                0x2c7 (size before relaxing)
 .debug_str     0x000016b9      0x2ab CMakeFiles/ex1_create_task.dir/D_/pico/pico-sdk/src/rp2_common/pico_runtime/runtime.c.obj
                                0x5f9 (size before relaxing)
 .debug_str     0x00001964      0x35e CMakeFiles/ex1_create_task.dir/D_/pico/pico-sdk/src/rp2_common/hardware_clocks/clocks.c.obj
                                0x67d (size before relaxing)
 .debug_str     0x00001cc2       0x85 CMakeFiles/ex1_create_task.dir/D_/pico/pico-sdk/src/rp2_common/hardware_pll/pll.c.obj
                                0x2e1 (size before relaxing)
 .debug_str     0x00001d47      0x117 CMakeFiles/ex1_create_task.dir/D_/pico/pico-sdk/src/rp2_common/hardware_watchdog/watchdog.c.obj
                                0x328 (size before relaxing)
 .debug_str     0x00001e5e       0x67 CMakeFiles/ex1_create_task.dir/D_/pico/pico-sdk/src/rp2_common/hardware_xosc/xosc.c.obj
                                0x225 (size before relaxing)
 .debug_str     0x00001ec5      0x25c CMakeFiles/ex1_create_task.dir/D_/pico/pico-sdk/src/rp2_common/pico_printf/printf.c.obj
                                0x486 (size before relaxing)
 .debug_str     0x00002121       0x4b CMakeFiles/ex1_create_task.dir/D_/pico/pico-sdk/src/rp2_common/pico_bit_ops/bit_ops_aeabi.S.obj
                                 0x77 (size before relaxing)
 .debug_str     0x0000216c       0xba CMakeFiles/ex1_create_task.dir/D_/pico/pico-sdk/src/rp2_common/pico_bootrom/bootrom.c.obj
                                0x260 (size before relaxing)
 .debug_str     0x00002226       0x37 CMakeFiles/ex1_create_task.dir/D_/pico/pico-sdk/src/rp2_common/pico_divider/divider.S.obj
                                 0x71 (size before relaxing)
 .debug_str     0x0000225d       0x3b CMakeFiles/ex1_create_task.dir/D_/pico/pico-sdk/src/rp2_common/pico_double/double_aeabi.S.obj
                                 0x75 (size before relaxing)
 .debug_str     0x00002298       0x93 CMakeFiles/ex1_create_task.dir/D_/pico/pico-sdk/src/rp2_common/pico_double/double_init_rom.c.obj
                                0x29f (size before relaxing)
 .debug_str     0x0000232b       0x41 CMakeFiles/ex1_create_task.dir/D_/pico/pico-sdk/src/rp2_common/pico_double/double_v1_rom_shim.S.obj
                                 0x7b (size before relaxing)
 .debug_str     0x0000236c       0x46 CMakeFiles/ex1_create_task.dir/D_/pico/pico-sdk/src/rp2_common/pico_int64_ops/pico_int64_ops_aeabi.S.obj
                                 0x80 (size before relaxing)
 .debug_str     0x000023b2       0x39 CMakeFiles/ex1_create_task.dir/D_/pico/pico-sdk/src/rp2_common/pico_float/float_aeabi.S.obj
                                 0x73 (size before relaxing)
 .debug_str     0x000023eb       0x77 CMakeFiles/ex1_create_task.dir/D_/pico/pico-sdk/src/rp2_common/pico_float/float_init_rom.c.obj
                                0x2bb (size before relaxing)
 .debug_str     0x00002462       0x3f CMakeFiles/ex1_create_task.dir/D_/pico/pico-sdk/src/rp2_common/pico_float/float_v1_rom_shim.S.obj
                                 0x79 (size before relaxing)
 .debug_str     0x000024a1       0xc1 CMakeFiles/ex1_create_task.dir/D_/pico/pico-sdk/src/rp2_common/pico_malloc/pico_malloc.c.obj
                                0x2c0 (size before relaxing)
 .debug_str     0x00002562       0x3d CMakeFiles/ex1_create_task.dir/D_/pico/pico-sdk/src/rp2_common/pico_mem_ops/mem_ops_aeabi.S.obj
                                 0x77 (size before relaxing)
 .debug_str     0x0000259f       0x3a CMakeFiles/ex1_create_task.dir/D_/pico/pico-sdk/src/rp2_common/pico_standard_link/crt0.S.obj
                                 0x74 (size before relaxing)
 .debug_str     0x000025d9      0x23a CMakeFiles/ex1_create_task.dir/D_/pico/pico-sdk/src/rp2_common/pico_standard_link/binary_info.c.obj
                                0x3e8 (size before relaxing)
 .debug_str     0x00002813      0x34f CMakeFiles/ex1_create_task.dir/D_/pico/pico-sdk/src/rp2_common/pico_stdio/stdio.c.obj
                                0x7b7 (size before relaxing)
 .debug_str     0x00002b62      0x660 CMakeFiles/ex1_create_task.dir/D_/pico/pico-sdk/src/rp2_common/pico_stdio_usb/reset_interface.c.obj
                                0x869 (size before relaxing)
 .debug_str     0x000031c2      0x24e CMakeFiles/ex1_create_task.dir/D_/pico/pico-sdk/src/rp2_common/pico_stdio_usb/stdio_usb.c.obj
                                0x918 (size before relaxing)
 .debug_str     0x00003410      0xad8 CMakeFiles/ex1_create_task.dir/D_/pico/pico-sdk/src/rp2_common/pico_stdio_usb/stdio_usb_descriptors.c.obj
                                0xf8f (size before relaxing)
 .debug_str     0x00003ee8      0x90c CMakeFiles/ex1_create_task.dir/D_/pico/pico-sdk/lib/tinyusb/src/portable/raspberrypi/rp2040/dcd_rp2040.c.obj
                                0xdf7 (size before relaxing)
 .debug_str     0x000047f4      0x130 CMakeFiles/ex1_create_task.dir/D_/pico/pico-sdk/lib/tinyusb/src/portable/raspberrypi/rp2040/rp2040_usb.c.obj
                                0x856 (size before relaxing)
 .debug_str     0x00004924      0x9bf CMakeFiles/ex1_create_task.dir/D_/pico/pico-sdk/lib/tinyusb/src/device/usbd.c.obj
                               0x1844 (size before relaxing)
 .debug_str     0x000052e3       0xe1 CMakeFiles/ex1_create_task.dir/D_/pico/pico-sdk/lib/tinyusb/src/device/usbd_control.c.obj
                                0x62e (size before relaxing)
 .debug_str     0x000053c4      0x719 CMakeFiles/ex1_create_task.dir/D_/pico/pico-sdk/lib/tinyusb/src/class/cdc/cdc_device.c.obj
                               0x165b (size before relaxing)
 .debug_str     0x00005add       0xbb CMakeFiles/ex1_create_task.dir/D_/pico/pico-sdk/lib/tinyusb/src/tusb.c.obj
                                0x8c7 (size before relaxing)
 .debug_str     0x00005b98      0x381 CMakeFiles/ex1_create_task.dir/D_/pico/pico-sdk/lib/tinyusb/src/common/tusb_fifo.c.obj
                                0x77b (size before relaxing)
 .debug_str     0x00005f19       0xb6 CMakeFiles/ex1_create_task.dir/D_/pico/pico-sdk/src/rp2_common/pico_unique_id/unique_id.c.obj
                                0x279 (size before relaxing)
 .debug_str     0x00005fcf      0x304 CMakeFiles/ex1_create_task.dir/D_/pico/pico-sdk/src/rp2_common/hardware_flash/flash.c.obj
                                0x5e8 (size before relaxing)
 .debug_str     0x000062d3      0x663 CMakeFiles/ex1_create_task.dir/D_/pico/pico-FreeRTOS/Source/portable/ThirdParty/GCC/RP2040/port.c.obj
                                0xc5c (size before relaxing)
 .debug_str     0x00006936      0x41c CMakeFiles/ex1_create_task.dir/D_/pico/pico-FreeRTOS/Source/event_groups.c.obj
                                0x6c9 (size before relaxing)
 .debug_str     0x00006d52       0xa1 CMakeFiles/ex1_create_task.dir/D_/pico/pico-FreeRTOS/Source/list.c.obj
                                0x2cd (size before relaxing)
 .debug_str     0x00006df3      0x851 CMakeFiles/ex1_create_task.dir/D_/pico/pico-FreeRTOS/Source/queue.c.obj
                                0xc6f (size before relaxing)
 .debug_str     0x00007644      0xe64 CMakeFiles/ex1_create_task.dir/D_/pico/pico-FreeRTOS/Source/tasks.c.obj
                               0x1610 (size before relaxing)
 .debug_str     0x000084a8      0x526 CMakeFiles/ex1_create_task.dir/D_/pico/pico-FreeRTOS/Source/timers.c.obj
                                0x9d7 (size before relaxing)
 .debug_str     0x000089ce      0x12c CMakeFiles/ex1_create_task.dir/D_/pico/pico-sdk/src/rp2_common/hardware_exception/exception.c.obj
                                0x3e1 (size before relaxing)
 .debug_str     0x00008afa      0x3a4 CMakeFiles/ex1_create_task.dir/D_/pico/pico-sdk/src/rp2_common/pico_multicore/multicore.c.obj
                                0xa96 (size before relaxing)
 .debug_str     0x00008e9e      0x29f CMakeFiles/ex1_create_task.dir/D_/pico/pico-FreeRTOS/Source/portable/MemMang/heap_4.c.obj
                                0x4f0 (size before relaxing)

.debug_frame    0x00000000     0x3c6c
 .debug_frame   0x00000000       0xcc CMakeFiles/ex1_create_task.dir/main.c.obj
 .debug_frame   0x000000cc       0x9c CMakeFiles/ex1_create_task.dir/D_/pico/pico-sdk/src/rp2_common/hardware_claim/claim.c.obj
 .debug_frame   0x00000168       0x38 CMakeFiles/ex1_create_task.dir/D_/pico/pico-sdk/src/rp2_common/pico_platform/platform.c.obj
 .debug_frame   0x000001a0       0xc4 CMakeFiles/ex1_create_task.dir/D_/pico/pico-sdk/src/rp2_common/hardware_sync/sync.c.obj
 .debug_frame   0x00000264      0x20c CMakeFiles/ex1_create_task.dir/D_/pico/pico-sdk/src/rp2_common/hardware_irq/irq.c.obj
 .debug_frame   0x00000470       0x20 CMakeFiles/ex1_create_task.dir/D_/pico/pico-sdk/src/common/pico_sync/lock_core.c.obj
 .debug_frame   0x00000490      0x29c CMakeFiles/ex1_create_task.dir/D_/pico/pico-sdk/src/common/pico_time/time.c.obj
 .debug_frame   0x0000072c      0x134 CMakeFiles/ex1_create_task.dir/D_/pico/pico-sdk/src/rp2_common/hardware_timer/timer.c.obj
 .debug_frame   0x00000860      0x164 CMakeFiles/ex1_create_task.dir/D_/pico/pico-sdk/src/common/pico_util/pheap.c.obj
 .debug_frame   0x000009c4      0x1b8 CMakeFiles/ex1_create_task.dir/D_/pico/pico-sdk/src/common/pico_sync/mutex.c.obj
 .debug_frame   0x00000b7c       0x50 CMakeFiles/ex1_create_task.dir/D_/pico/pico-sdk/src/common/pico_sync/critical_section.c.obj
 .debug_frame   0x00000bcc       0xdc CMakeFiles/ex1_create_task.dir/D_/pico/pico-sdk/src/rp2_common/pico_runtime/runtime.c.obj
 .debug_frame   0x00000ca8      0x12c CMakeFiles/ex1_create_task.dir/D_/pico/pico-sdk/src/rp2_common/hardware_clocks/clocks.c.obj
 .debug_frame   0x00000dd4       0x44 CMakeFiles/ex1_create_task.dir/D_/pico/pico-sdk/src/rp2_common/hardware_pll/pll.c.obj
 .debug_frame   0x00000e18       0xa8 CMakeFiles/ex1_create_task.dir/D_/pico/pico-sdk/src/rp2_common/hardware_watchdog/watchdog.c.obj
 .debug_frame   0x00000ec0       0x40 CMakeFiles/ex1_create_task.dir/D_/pico/pico-sdk/src/rp2_common/hardware_xosc/xosc.c.obj
 .debug_frame   0x00000f00      0x1f8 CMakeFiles/ex1_create_task.dir/D_/pico/pico-sdk/src/rp2_common/pico_printf/printf.c.obj
 .debug_frame   0x000010f8       0x64 CMakeFiles/ex1_create_task.dir/D_/pico/pico-sdk/src/rp2_common/pico_bootrom/bootrom.c.obj
 .debug_frame   0x0000115c       0x2c CMakeFiles/ex1_create_task.dir/D_/pico/pico-sdk/src/rp2_common/pico_double/double_init_rom.c.obj
 .debug_frame   0x00001188       0x2c CMakeFiles/ex1_create_task.dir/D_/pico/pico-sdk/src/rp2_common/pico_float/float_init_rom.c.obj
 .debug_frame   0x000011b4       0x80 CMakeFiles/ex1_create_task.dir/D_/pico/pico-sdk/src/rp2_common/pico_malloc/pico_malloc.c.obj
 .debug_frame   0x00001234      0x26c CMakeFiles/ex1_create_task.dir/D_/pico/pico-sdk/src/rp2_common/pico_stdio/stdio.c.obj
 .debug_frame   0x000014a0       0xac CMakeFiles/ex1_create_task.dir/D_/pico/pico-sdk/src/rp2_common/pico_stdio_usb/reset_interface.c.obj
 .debug_frame   0x0000154c       0xd4 CMakeFiles/ex1_create_task.dir/D_/pico/pico-sdk/src/rp2_common/pico_stdio_usb/stdio_usb.c.obj
 .debug_frame   0x00001620       0x48 CMakeFiles/ex1_create_task.dir/D_/pico/pico-sdk/src/rp2_common/pico_stdio_usb/stdio_usb_descriptors.c.obj
 .debug_frame   0x00001668      0x238 CMakeFiles/ex1_create_task.dir/D_/pico/pico-sdk/lib/tinyusb/src/portable/raspberrypi/rp2040/dcd_rp2040.c.obj
 .debug_frame   0x000018a0       0xf8 CMakeFiles/ex1_create_task.dir/D_/pico/pico-sdk/lib/tinyusb/src/portable/raspberrypi/rp2040/rp2040_usb.c.obj
 .debug_frame   0x00001998      0x3bc CMakeFiles/ex1_create_task.dir/D_/pico/pico-sdk/lib/tinyusb/src/device/usbd.c.obj
 .debug_frame   0x00001d54       0xcc CMakeFiles/ex1_create_task.dir/D_/pico/pico-sdk/lib/tinyusb/src/device/usbd_control.c.obj
 .debug_frame   0x00001e20      0x1f4 CMakeFiles/ex1_create_task.dir/D_/pico/pico-sdk/lib/tinyusb/src/class/cdc/cdc_device.c.obj
 .debug_frame   0x00002014       0xd4 CMakeFiles/ex1_create_task.dir/D_/pico/pico-sdk/lib/tinyusb/src/tusb.c.obj
 .debug_frame   0x000020e8      0x398 CMakeFiles/ex1_create_task.dir/D_/pico/pico-sdk/lib/tinyusb/src/common/tusb_fifo.c.obj
 .debug_frame   0x00002480       0x58 CMakeFiles/ex1_create_task.dir/D_/pico/pico-sdk/src/rp2_common/pico_unique_id/unique_id.c.obj
 .debug_frame   0x000024d8       0xe4 CMakeFiles/ex1_create_task.dir/D_/pico/pico-sdk/src/rp2_common/hardware_flash/flash.c.obj
 .debug_frame   0x000025bc      0x210 CMakeFiles/ex1_create_task.dir/D_/pico/pico-FreeRTOS/Source/portable/ThirdParty/GCC/RP2040/port.c.obj
 .debug_frame   0x000027cc      0x178 CMakeFiles/ex1_create_task.dir/D_/pico/pico-FreeRTOS/Source/event_groups.c.obj
 .debug_frame   0x00002944       0x6c CMakeFiles/ex1_create_task.dir/D_/pico/pico-FreeRTOS/Source/list.c.obj
 .debug_frame   0x000029b0      0x474 CMakeFiles/ex1_create_task.dir/D_/pico/pico-FreeRTOS/Source/queue.c.obj
 .debug_frame   0x00002e24      0x814 CMakeFiles/ex1_create_task.dir/D_/pico/pico-FreeRTOS/Source/tasks.c.obj
 .debug_frame   0x00003638      0x2c8 CMakeFiles/ex1_create_task.dir/D_/pico/pico-FreeRTOS/Source/timers.c.obj
 .debug_frame   0x00003900       0x7c CMakeFiles/ex1_create_task.dir/D_/pico/pico-sdk/src/rp2_common/hardware_exception/exception.c.obj
 .debug_frame   0x0000397c      0x208 CMakeFiles/ex1_create_task.dir/D_/pico/pico-sdk/src/rp2_common/pico_multicore/multicore.c.obj
 .debug_frame   0x00003b84       0xc0 CMakeFiles/ex1_create_task.dir/D_/pico/pico-FreeRTOS/Source/portable/MemMang/heap_4.c.obj
 .debug_frame   0x00003c44       0x28 d:/pico/armcc/10 2021.10/bin/../lib/gcc/arm-none-eabi/10.3.1/../../../../arm-none-eabi/lib/thumb/v6-m/nofp\libg.a(lib_a-strlen-stub.o)
