Archive member included to satisfy reference by file (symbol)

d:/pico/armcc/10 2021.10/bin/../lib/gcc/arm-none-eabi/10.3.1/thumb/v6-m/nofp\libgcc.a(_dvmd_tls.o)
                              CMakeFiles/example1.dir/D_/pico/pico-sdk/src/rp2_common/pico_divider/divider.S.obj (__aeabi_idiv0)
d:/pico/armcc/10 2021.10/bin/../lib/gcc/arm-none-eabi/10.3.1/../../../../arm-none-eabi/lib/thumb/v6-m/nofp\libg.a(lib_a-calloc.o)
                              CMakeFiles/example1.dir/D_/pico/pico-sdk/src/rp2_common/pico_malloc/pico_malloc.c.obj (calloc)
d:/pico/armcc/10 2021.10/bin/../lib/gcc/arm-none-eabi/10.3.1/../../../../arm-none-eabi/lib/thumb/v6-m/nofp\libg.a(lib_a-callocr.o)
                              d:/pico/armcc/10 2021.10/bin/../lib/gcc/arm-none-eabi/10.3.1/../../../../arm-none-eabi/lib/thumb/v6-m/nofp\libg.a(lib_a-calloc.o) (_calloc_r)
d:/pico/armcc/10 2021.10/bin/../lib/gcc/arm-none-eabi/10.3.1/../../../../arm-none-eabi/lib/thumb/v6-m/nofp\libg.a(lib_a-ctype_.o)
                              CMakeFiles/example1.dir/D_/pico/pico-sdk/lib/tinyusb/src/tusb.c.obj (_ctype_)
d:/pico/armcc/10 2021.10/bin/../lib/gcc/arm-none-eabi/10.3.1/../../../../arm-none-eabi/lib/thumb/v6-m/nofp\libg.a(lib_a-errno.o)
                              d:/pico/armcc/10 2021.10/bin/../lib/gcc/arm-none-eabi/10.3.1/../../../../arm-none-eabi/lib/thumb/v6-m/nofp\libg.a(lib_a-callocr.o) (__errno)
d:/pico/armcc/10 2021.10/bin/../lib/gcc/arm-none-eabi/10.3.1/../../../../arm-none-eabi/lib/thumb/v6-m/nofp\libg.a(lib_a-impure.o)
                              d:/pico/armcc/10 2021.10/bin/../lib/gcc/arm-none-eabi/10.3.1/../../../../arm-none-eabi/lib/thumb/v6-m/nofp\libg.a(lib_a-calloc.o) (_impure_ptr)
d:/pico/armcc/10 2021.10/bin/../lib/gcc/arm-none-eabi/10.3.1/../../../../arm-none-eabi/lib/thumb/v6-m/nofp\libg.a(lib_a-init.o)
                              d:/pico/armcc/10 2021.10/bin/../lib/gcc/arm-none-eabi/10.3.1/../../../../arm-none-eabi/lib/thumb/v6-m/nofp/crt0.o (__libc_init_array)
d:/pico/armcc/10 2021.10/bin/../lib/gcc/arm-none-eabi/10.3.1/../../../../arm-none-eabi/lib/thumb/v6-m/nofp\libg.a(lib_a-malloc.o)
                              CMakeFiles/example1.dir/D_/pico/pico-sdk/src/rp2_common/pico_malloc/pico_malloc.c.obj (malloc)
d:/pico/armcc/10 2021.10/bin/../lib/gcc/arm-none-eabi/10.3.1/../../../../arm-none-eabi/lib/thumb/v6-m/nofp\libg.a(lib_a-mallocr.o)
                              d:/pico/armcc/10 2021.10/bin/../lib/gcc/arm-none-eabi/10.3.1/../../../../arm-none-eabi/lib/thumb/v6-m/nofp\libg.a(lib_a-callocr.o) (_malloc_r)
d:/pico/armcc/10 2021.10/bin/../lib/gcc/arm-none-eabi/10.3.1/../../../../arm-none-eabi/lib/thumb/v6-m/nofp\libg.a(lib_a-mlock.o)
                              d:/pico/armcc/10 2021.10/bin/../lib/gcc/arm-none-eabi/10.3.1/../../../../arm-none-eabi/lib/thumb/v6-m/nofp\libg.a(lib_a-mallocr.o) (__malloc_lock)
d:/pico/armcc/10 2021.10/bin/../lib/gcc/arm-none-eabi/10.3.1/../../../../arm-none-eabi/lib/thumb/v6-m/nofp\libg.a(lib_a-realloc.o)
                              CMakeFiles/example1.dir/D_/pico/pico-sdk/src/rp2_common/pico_malloc/pico_malloc.c.obj (realloc)
d:/pico/armcc/10 2021.10/bin/../lib/gcc/arm-none-eabi/10.3.1/../../../../arm-none-eabi/lib/thumb/v6-m/nofp\libg.a(lib_a-reallocr.o)
                              d:/pico/armcc/10 2021.10/bin/../lib/gcc/arm-none-eabi/10.3.1/../../../../arm-none-eabi/lib/thumb/v6-m/nofp\libg.a(lib_a-realloc.o) (_realloc_r)
d:/pico/armcc/10 2021.10/bin/../lib/gcc/arm-none-eabi/10.3.1/../../../../arm-none-eabi/lib/thumb/v6-m/nofp\libg.a(lib_a-sbrkr.o)
                              d:/pico/armcc/10 2021.10/bin/../lib/gcc/arm-none-eabi/10.3.1/../../../../arm-none-eabi/lib/thumb/v6-m/nofp\libg.a(lib_a-mallocr.o) (_sbrk_r)
d:/pico/armcc/10 2021.10/bin/../lib/gcc/arm-none-eabi/10.3.1/../../../../arm-none-eabi/lib/thumb/v6-m/nofp\libg.a(lib_a-strlen-stub.o)
                              CMakeFiles/example1.dir/D_/pico/pico-sdk/src/rp2_common/pico_stdio/stdio.c.obj (strlen)
d:/pico/armcc/10 2021.10/bin/../lib/gcc/arm-none-eabi/10.3.1/../../../../arm-none-eabi/lib/thumb/v6-m/nofp\libg.a(lib_a-freer.o)
                              d:/pico/armcc/10 2021.10/bin/../lib/gcc/arm-none-eabi/10.3.1/../../../../arm-none-eabi/lib/thumb/v6-m/nofp\libg.a(lib_a-malloc.o) (_free_r)
d:/pico/armcc/10 2021.10/bin/../lib/gcc/arm-none-eabi/10.3.1/../../../../arm-none-eabi/lib/thumb/v6-m/nofp\libg.a(lib_a-lock.o)
                              d:/pico/armcc/10 2021.10/bin/../lib/gcc/arm-none-eabi/10.3.1/../../../../arm-none-eabi/lib/thumb/v6-m/nofp\libg.a(lib_a-mlock.o) (__retarget_lock_acquire_recursive)
d:/pico/armcc/10 2021.10/bin/../lib/gcc/arm-none-eabi/10.3.1/../../../../arm-none-eabi/lib/thumb/v6-m/nofp\libg.a(lib_a-memmove.o)
                              d:/pico/armcc/10 2021.10/bin/../lib/gcc/arm-none-eabi/10.3.1/../../../../arm-none-eabi/lib/thumb/v6-m/nofp\libg.a(lib_a-reallocr.o) (memmove)
d:/pico/armcc/10 2021.10/bin/../lib/gcc/arm-none-eabi/10.3.1/../../../../arm-none-eabi/lib/thumb/v6-m/nofp\libg.a(lib_a-reent.o)
                              d:/pico/armcc/10 2021.10/bin/../lib/gcc/arm-none-eabi/10.3.1/../../../../arm-none-eabi/lib/thumb/v6-m/nofp\libg.a(lib_a-sbrkr.o) (errno)

Discarded input sections

 .text          0x00000000        0x0 d:/pico/armcc/10 2021.10/bin/../lib/gcc/arm-none-eabi/10.3.1/thumb/v6-m/nofp/crti.o
 .data          0x00000000        0x0 d:/pico/armcc/10 2021.10/bin/../lib/gcc/arm-none-eabi/10.3.1/thumb/v6-m/nofp/crti.o
 .bss           0x00000000        0x0 d:/pico/armcc/10 2021.10/bin/../lib/gcc/arm-none-eabi/10.3.1/thumb/v6-m/nofp/crti.o
 .data          0x00000000        0x4 d:/pico/armcc/10 2021.10/bin/../lib/gcc/arm-none-eabi/10.3.1/thumb/v6-m/nofp/crtbegin.o
 .rodata        0x00000000       0x24 d:/pico/armcc/10 2021.10/bin/../lib/gcc/arm-none-eabi/10.3.1/thumb/v6-m/nofp/crtbegin.o
 .fini_array    0x00000000        0x4 d:/pico/armcc/10 2021.10/bin/../lib/gcc/arm-none-eabi/10.3.1/thumb/v6-m/nofp/crtbegin.o
 .text          0x00000000       0x80 d:/pico/armcc/10 2021.10/bin/../lib/gcc/arm-none-eabi/10.3.1/../../../../arm-none-eabi/lib/thumb/v6-m/nofp/crt0.o
 .data          0x00000000        0x0 d:/pico/armcc/10 2021.10/bin/../lib/gcc/arm-none-eabi/10.3.1/../../../../arm-none-eabi/lib/thumb/v6-m/nofp/crt0.o
 .bss           0x00000000        0x0 d:/pico/armcc/10 2021.10/bin/../lib/gcc/arm-none-eabi/10.3.1/../../../../arm-none-eabi/lib/thumb/v6-m/nofp/crt0.o
 .ARM.extab     0x00000000        0x0 d:/pico/armcc/10 2021.10/bin/../lib/gcc/arm-none-eabi/10.3.1/../../../../arm-none-eabi/lib/thumb/v6-m/nofp/crt0.o
 .ARM.exidx     0x00000000       0x10 d:/pico/armcc/10 2021.10/bin/../lib/gcc/arm-none-eabi/10.3.1/../../../../arm-none-eabi/lib/thumb/v6-m/nofp/crt0.o
 .ARM.attributes
                0x00000000       0x1b d:/pico/armcc/10 2021.10/bin/../lib/gcc/arm-none-eabi/10.3.1/../../../../arm-none-eabi/lib/thumb/v6-m/nofp/crt0.o
 .text          0x00000000        0x0 CMakeFiles/example1.dir/main.c.obj
 .data          0x00000000        0x0 CMakeFiles/example1.dir/main.c.obj
 .bss           0x00000000        0x0 CMakeFiles/example1.dir/main.c.obj
 .text.vApplicationIdleHook
                0x00000000       0x10 CMakeFiles/example1.dir/main.c.obj
 .text          0x00000000        0x0 CMakeFiles/example1.dir/ex1_create_task.c.obj
 .data          0x00000000        0x0 CMakeFiles/example1.dir/ex1_create_task.c.obj
 .bss           0x00000000        0x0 CMakeFiles/example1.dir/ex1_create_task.c.obj
 .text          0x00000000        0x0 CMakeFiles/example1.dir/D_/pico/pico-sdk/src/rp2_common/pico_stdlib/stdlib.c.obj
 .data          0x00000000        0x0 CMakeFiles/example1.dir/D_/pico/pico-sdk/src/rp2_common/pico_stdlib/stdlib.c.obj
 .bss           0x00000000        0x0 CMakeFiles/example1.dir/D_/pico/pico-sdk/src/rp2_common/pico_stdlib/stdlib.c.obj
 .text.set_sys_clock_48mhz
                0x00000000       0x40 CMakeFiles/example1.dir/D_/pico/pico-sdk/src/rp2_common/pico_stdlib/stdlib.c.obj
 .text.set_sys_clock_pll
                0x00000000       0x78 CMakeFiles/example1.dir/D_/pico/pico-sdk/src/rp2_common/pico_stdlib/stdlib.c.obj
 .text.check_sys_clock_khz
                0x00000000       0xb0 CMakeFiles/example1.dir/D_/pico/pico-sdk/src/rp2_common/pico_stdlib/stdlib.c.obj
 .text.setup_default_uart
                0x00000000       0x2c CMakeFiles/example1.dir/D_/pico/pico-sdk/src/rp2_common/pico_stdlib/stdlib.c.obj
 .binary_info.__bi_ptr102
                0x00000000        0x4 CMakeFiles/example1.dir/D_/pico/pico-sdk/src/rp2_common/pico_stdlib/stdlib.c.obj
 .rodata.__bi_102.0
                0x00000000        0x8 CMakeFiles/example1.dir/D_/pico/pico-sdk/src/rp2_common/pico_stdlib/stdlib.c.obj
 .debug_info    0x00000000      0x775 CMakeFiles/example1.dir/D_/pico/pico-sdk/src/rp2_common/pico_stdlib/stdlib.c.obj
 .debug_abbrev  0x00000000      0x1e9 CMakeFiles/example1.dir/D_/pico/pico-sdk/src/rp2_common/pico_stdlib/stdlib.c.obj
 .debug_loc     0x00000000      0x2d7 CMakeFiles/example1.dir/D_/pico/pico-sdk/src/rp2_common/pico_stdlib/stdlib.c.obj
 .debug_aranges
                0x00000000       0x38 CMakeFiles/example1.dir/D_/pico/pico-sdk/src/rp2_common/pico_stdlib/stdlib.c.obj
 .debug_ranges  0x00000000       0x98 CMakeFiles/example1.dir/D_/pico/pico-sdk/src/rp2_common/pico_stdlib/stdlib.c.obj
 .debug_line    0x00000000      0x533 CMakeFiles/example1.dir/D_/pico/pico-sdk/src/rp2_common/pico_stdlib/stdlib.c.obj
 .debug_str     0x00000000      0x52f CMakeFiles/example1.dir/D_/pico/pico-sdk/src/rp2_common/pico_stdlib/stdlib.c.obj
 .comment       0x00000000       0x4a CMakeFiles/example1.dir/D_/pico/pico-sdk/src/rp2_common/pico_stdlib/stdlib.c.obj
 .debug_frame   0x00000000       0x90 CMakeFiles/example1.dir/D_/pico/pico-sdk/src/rp2_common/pico_stdlib/stdlib.c.obj
 .ARM.attributes
                0x00000000       0x2c CMakeFiles/example1.dir/D_/pico/pico-sdk/src/rp2_common/pico_stdlib/stdlib.c.obj
 .text          0x00000000        0x0 CMakeFiles/example1.dir/D_/pico/pico-sdk/src/rp2_common/hardware_gpio/gpio.c.obj
 .data          0x00000000        0x0 CMakeFiles/example1.dir/D_/pico/pico-sdk/src/rp2_common/hardware_gpio/gpio.c.obj
 .bss           0x00000000        0x0 CMakeFiles/example1.dir/D_/pico/pico-sdk/src/rp2_common/hardware_gpio/gpio.c.obj
 .text.gpio_get_pad
                0x00000000       0x28 CMakeFiles/example1.dir/D_/pico/pico-sdk/src/rp2_common/hardware_gpio/gpio.c.obj
 .text.gpio_set_function
                0x00000000       0x30 CMakeFiles/example1.dir/D_/pico/pico-sdk/src/rp2_common/hardware_gpio/gpio.c.obj
 .text.gpio_get_function
                0x00000000       0x14 CMakeFiles/example1.dir/D_/pico/pico-sdk/src/rp2_common/hardware_gpio/gpio.c.obj
 .text.gpio_set_pulls
                0x00000000       0x34 CMakeFiles/example1.dir/D_/pico/pico-sdk/src/rp2_common/hardware_gpio/gpio.c.obj
 .text.gpio_set_irqover
                0x00000000       0x24 CMakeFiles/example1.dir/D_/pico/pico-sdk/src/rp2_common/hardware_gpio/gpio.c.obj
 .text.gpio_set_inover
                0x00000000       0x24 CMakeFiles/example1.dir/D_/pico/pico-sdk/src/rp2_common/hardware_gpio/gpio.c.obj
 .text.gpio_set_outover
                0x00000000       0x24 CMakeFiles/example1.dir/D_/pico/pico-sdk/src/rp2_common/hardware_gpio/gpio.c.obj
 .text.gpio_set_oeover
                0x00000000       0x24 CMakeFiles/example1.dir/D_/pico/pico-sdk/src/rp2_common/hardware_gpio/gpio.c.obj
 .text.gpio_set_input_hysteresis_enabled
                0x00000000       0x30 CMakeFiles/example1.dir/D_/pico/pico-sdk/src/rp2_common/hardware_gpio/gpio.c.obj
 .text.gpio_is_input_hysteresis_enabled
                0x00000000       0x1c CMakeFiles/example1.dir/D_/pico/pico-sdk/src/rp2_common/hardware_gpio/gpio.c.obj
 .text.gpio_set_slew_rate
                0x00000000       0x20 CMakeFiles/example1.dir/D_/pico/pico-sdk/src/rp2_common/hardware_gpio/gpio.c.obj
 .text.gpio_get_slew_rate
                0x00000000       0x14 CMakeFiles/example1.dir/D_/pico/pico-sdk/src/rp2_common/hardware_gpio/gpio.c.obj
 .text.gpio_set_drive_strength
                0x00000000       0x20 CMakeFiles/example1.dir/D_/pico/pico-sdk/src/rp2_common/hardware_gpio/gpio.c.obj
 .text.gpio_get_drive_strength
                0x00000000       0x18 CMakeFiles/example1.dir/D_/pico/pico-sdk/src/rp2_common/hardware_gpio/gpio.c.obj
 .text.gpio_set_irq_callback
                0x00000000       0x48 CMakeFiles/example1.dir/D_/pico/pico-sdk/src/rp2_common/hardware_gpio/gpio.c.obj
 .rodata.gpio_add_raw_irq_handler_with_order_priority_masked.str1.4
                0x00000000       0x61 CMakeFiles/example1.dir/D_/pico/pico-sdk/src/rp2_common/hardware_gpio/gpio.c.obj
 .text.gpio_add_raw_irq_handler_with_order_priority_masked
                0x00000000       0x40 CMakeFiles/example1.dir/D_/pico/pico-sdk/src/rp2_common/hardware_gpio/gpio.c.obj
 .text.gpio_add_raw_irq_handler_masked
                0x00000000        0xa CMakeFiles/example1.dir/D_/pico/pico-sdk/src/rp2_common/hardware_gpio/gpio.c.obj
 .rodata.gpio_remove_raw_irq_handler_masked.str1.4
                0x00000000       0x29 CMakeFiles/example1.dir/D_/pico/pico-sdk/src/rp2_common/hardware_gpio/gpio.c.obj
 .text.gpio_remove_raw_irq_handler_masked
                0x00000000       0x48 CMakeFiles/example1.dir/D_/pico/pico-sdk/src/rp2_common/hardware_gpio/gpio.c.obj
 .text.gpio_acknowledge_irq
                0x00000000       0x18 CMakeFiles/example1.dir/D_/pico/pico-sdk/src/rp2_common/hardware_gpio/gpio.c.obj
 .text._gpio_set_irq_enabled
                0x00000000       0x34 CMakeFiles/example1.dir/D_/pico/pico-sdk/src/rp2_common/hardware_gpio/gpio.c.obj
 .text.gpio_set_irq_enabled
                0x00000000       0x20 CMakeFiles/example1.dir/D_/pico/pico-sdk/src/rp2_common/hardware_gpio/gpio.c.obj
 .text.gpio_set_irq_enabled_with_callback
                0x00000000       0x20 CMakeFiles/example1.dir/D_/pico/pico-sdk/src/rp2_common/hardware_gpio/gpio.c.obj
 .text.gpio_set_dormant_irq_enabled
                0x00000000       0x10 CMakeFiles/example1.dir/D_/pico/pico-sdk/src/rp2_common/hardware_gpio/gpio.c.obj
 .text.gpio_default_irq_handler
                0x00000000       0x98 CMakeFiles/example1.dir/D_/pico/pico-sdk/src/rp2_common/hardware_gpio/gpio.c.obj
 .text.gpio_set_input_enabled
                0x00000000       0x30 CMakeFiles/example1.dir/D_/pico/pico-sdk/src/rp2_common/hardware_gpio/gpio.c.obj
 .text.gpio_init
                0x00000000       0x16 CMakeFiles/example1.dir/D_/pico/pico-sdk/src/rp2_common/hardware_gpio/gpio.c.obj
 .text.gpio_deinit
                0x00000000        0xa CMakeFiles/example1.dir/D_/pico/pico-sdk/src/rp2_common/hardware_gpio/gpio.c.obj
 .text.gpio_init_mask
                0x00000000       0x1e CMakeFiles/example1.dir/D_/pico/pico-sdk/src/rp2_common/hardware_gpio/gpio.c.obj
 .text.gpio_debug_pins_init
                0x00000000       0x18 CMakeFiles/example1.dir/D_/pico/pico-sdk/src/rp2_common/hardware_gpio/gpio.c.obj
 .bss.callbacks
                0x00000000        0x8 CMakeFiles/example1.dir/D_/pico/pico-sdk/src/rp2_common/hardware_gpio/gpio.c.obj
 .bss.raw_irq_mask
                0x00000000        0x8 CMakeFiles/example1.dir/D_/pico/pico-sdk/src/rp2_common/hardware_gpio/gpio.c.obj
 .rodata.__func__.0
                0x00000000       0x23 CMakeFiles/example1.dir/D_/pico/pico-sdk/src/rp2_common/hardware_gpio/gpio.c.obj
 .rodata.__func__.1
                0x00000000       0x34 CMakeFiles/example1.dir/D_/pico/pico-sdk/src/rp2_common/hardware_gpio/gpio.c.obj
 .debug_info    0x00000000     0x16d7 CMakeFiles/example1.dir/D_/pico/pico-sdk/src/rp2_common/hardware_gpio/gpio.c.obj
 .debug_abbrev  0x00000000      0x326 CMakeFiles/example1.dir/D_/pico/pico-sdk/src/rp2_common/hardware_gpio/gpio.c.obj
 .debug_loc     0x00000000     0x118d CMakeFiles/example1.dir/D_/pico/pico-sdk/src/rp2_common/hardware_gpio/gpio.c.obj
 .debug_aranges
                0x00000000      0x100 CMakeFiles/example1.dir/D_/pico/pico-sdk/src/rp2_common/hardware_gpio/gpio.c.obj
 .debug_ranges  0x00000000      0x150 CMakeFiles/example1.dir/D_/pico/pico-sdk/src/rp2_common/hardware_gpio/gpio.c.obj
 .debug_line    0x00000000      0xc20 CMakeFiles/example1.dir/D_/pico/pico-sdk/src/rp2_common/hardware_gpio/gpio.c.obj
 .debug_str     0x00000000      0x9a2 CMakeFiles/example1.dir/D_/pico/pico-sdk/src/rp2_common/hardware_gpio/gpio.c.obj
 .comment       0x00000000       0x4a CMakeFiles/example1.dir/D_/pico/pico-sdk/src/rp2_common/hardware_gpio/gpio.c.obj
 .debug_frame   0x00000000      0x278 CMakeFiles/example1.dir/D_/pico/pico-sdk/src/rp2_common/hardware_gpio/gpio.c.obj
 .ARM.attributes
                0x00000000       0x2c CMakeFiles/example1.dir/D_/pico/pico-sdk/src/rp2_common/hardware_gpio/gpio.c.obj
 .text          0x00000000        0x0 CMakeFiles/example1.dir/D_/pico/pico-sdk/src/rp2_common/hardware_claim/claim.c.obj
 .data          0x00000000        0x0 CMakeFiles/example1.dir/D_/pico/pico-sdk/src/rp2_common/hardware_claim/claim.c.obj
 .bss           0x00000000        0x0 CMakeFiles/example1.dir/D_/pico/pico-sdk/src/rp2_common/hardware_claim/claim.c.obj
 .text.hw_is_claimed
                0x00000000       0x16 CMakeFiles/example1.dir/D_/pico/pico-sdk/src/rp2_common/hardware_claim/claim.c.obj
 .rodata.hw_claim_clear.str1.4
                0x00000000       0x57 CMakeFiles/example1.dir/D_/pico/pico-sdk/src/rp2_common/hardware_claim/claim.c.obj
 .text.hw_claim_clear
                0x00000000       0x40 CMakeFiles/example1.dir/D_/pico/pico-sdk/src/rp2_common/hardware_claim/claim.c.obj
 .rodata.__func__.0
                0x00000000        0xf CMakeFiles/example1.dir/D_/pico/pico-sdk/src/rp2_common/hardware_claim/claim.c.obj
 .text          0x00000000        0x0 CMakeFiles/example1.dir/D_/pico/pico-sdk/src/rp2_common/pico_platform/platform.c.obj
 .data          0x00000000        0x0 CMakeFiles/example1.dir/D_/pico/pico-sdk/src/rp2_common/pico_platform/platform.c.obj
 .bss           0x00000000        0x0 CMakeFiles/example1.dir/D_/pico/pico-sdk/src/rp2_common/pico_platform/platform.c.obj
 .rodata.rp2040_chip_version.str1.4
                0x00000000       0x71 CMakeFiles/example1.dir/D_/pico/pico-sdk/src/rp2_common/pico_platform/platform.c.obj
 .text.rp2040_chip_version
                0x00000000       0x4c CMakeFiles/example1.dir/D_/pico/pico-sdk/src/rp2_common/pico_platform/platform.c.obj
 .rodata.__func__.0
                0x00000000       0x14 CMakeFiles/example1.dir/D_/pico/pico-sdk/src/rp2_common/pico_platform/platform.c.obj
 .text          0x00000000        0x0 CMakeFiles/example1.dir/D_/pico/pico-sdk/src/rp2_common/hardware_sync/sync.c.obj
 .data          0x00000000        0x0 CMakeFiles/example1.dir/D_/pico/pico-sdk/src/rp2_common/hardware_sync/sync.c.obj
 .bss           0x00000000        0x0 CMakeFiles/example1.dir/D_/pico/pico-sdk/src/rp2_common/hardware_sync/sync.c.obj
 .rodata.spin_lock_init.str1.4
                0x00000000       0x51 CMakeFiles/example1.dir/D_/pico/pico-sdk/src/rp2_common/hardware_sync/sync.c.obj
 .text.spin_lock_init
                0x00000000       0x34 CMakeFiles/example1.dir/D_/pico/pico-sdk/src/rp2_common/hardware_sync/sync.c.obj
 .text.spin_lock_claim_mask
                0x00000000       0x1e CMakeFiles/example1.dir/D_/pico/pico-sdk/src/rp2_common/hardware_sync/sync.c.obj
 .text.spin_lock_unclaim
                0x00000000       0x24 CMakeFiles/example1.dir/D_/pico/pico-sdk/src/rp2_common/hardware_sync/sync.c.obj
 .text.spin_lock_is_claimed
                0x00000000       0x10 CMakeFiles/example1.dir/D_/pico/pico-sdk/src/rp2_common/hardware_sync/sync.c.obj
 .rodata.__func__.0
                0x00000000        0xf CMakeFiles/example1.dir/D_/pico/pico-sdk/src/rp2_common/hardware_sync/sync.c.obj
 .text          0x00000000        0x0 CMakeFiles/example1.dir/D_/pico/pico-sdk/src/rp2_common/hardware_irq/irq.c.obj
 .data          0x00000000        0x0 CMakeFiles/example1.dir/D_/pico/pico-sdk/src/rp2_common/hardware_irq/irq.c.obj
 .bss           0x00000000        0x0 CMakeFiles/example1.dir/D_/pico/pico-sdk/src/rp2_common/hardware_irq/irq.c.obj
 .text.get_user_irq_claim_index
                0x00000000        0x6 CMakeFiles/example1.dir/D_/pico/pico-sdk/src/rp2_common/hardware_irq/irq.c.obj
 .text.irq_get_exclusive_handler
                0x00000000       0x4c CMakeFiles/example1.dir/D_/pico/pico-sdk/src/rp2_common/hardware_irq/irq.c.obj
 .text.irq_get_priority
                0x00000000       0x20 CMakeFiles/example1.dir/D_/pico/pico-sdk/src/rp2_common/hardware_irq/irq.c.obj
 .rodata.user_irq_claim.str1.4
                0x00000000       0x1c CMakeFiles/example1.dir/D_/pico/pico-sdk/src/rp2_common/hardware_irq/irq.c.obj
 .text.user_irq_claim
                0x00000000       0x24 CMakeFiles/example1.dir/D_/pico/pico-sdk/src/rp2_common/hardware_irq/irq.c.obj
 .text.user_irq_unclaim
                0x00000000       0x1c CMakeFiles/example1.dir/D_/pico/pico-sdk/src/rp2_common/hardware_irq/irq.c.obj
 .text.user_irq_is_claimed
                0x00000000       0x20 CMakeFiles/example1.dir/D_/pico/pico-sdk/src/rp2_common/hardware_irq/irq.c.obj
 .text          0x00000000        0x0 CMakeFiles/example1.dir/D_/pico/pico-sdk/src/rp2_common/hardware_irq/irq_handler_chain.S.obj
 .bss           0x00000000        0x0 CMakeFiles/example1.dir/D_/pico/pico-sdk/src/rp2_common/hardware_irq/irq_handler_chain.S.obj
 .text          0x00000000        0x0 CMakeFiles/example1.dir/D_/pico/pico-sdk/src/common/pico_sync/sem.c.obj
 .data          0x00000000        0x0 CMakeFiles/example1.dir/D_/pico/pico-sdk/src/common/pico_sync/sem.c.obj
 .bss           0x00000000        0x0 CMakeFiles/example1.dir/D_/pico/pico-sdk/src/common/pico_sync/sem.c.obj
 .text.sem_init
                0x00000000       0x1e CMakeFiles/example1.dir/D_/pico/pico-sdk/src/common/pico_sync/sem.c.obj
 .time_critical.sem_available
                0x00000000        0x6 CMakeFiles/example1.dir/D_/pico/pico-sdk/src/common/pico_sync/sem.c.obj
 .time_critical.sem_acquire_blocking
                0x00000000       0x3a CMakeFiles/example1.dir/D_/pico/pico-sdk/src/common/pico_sync/sem.c.obj
 .time_critical.sem_acquire_block_until
                0x00000000       0x4a CMakeFiles/example1.dir/D_/pico/pico-sdk/src/common/pico_sync/sem.c.obj
 .rodata.str1.4
                0x00000000       0xb0 CMakeFiles/example1.dir/D_/pico/pico-sdk/src/common/pico_sync/sem.c.obj
 .time_critical.sem_acquire_timeout_ms
                0x00000000       0x74 CMakeFiles/example1.dir/D_/pico/pico-sdk/src/common/pico_sync/sem.c.obj
 .time_critical.sem_acquire_timeout_us
                0x00000000       0x5c CMakeFiles/example1.dir/D_/pico/pico-sdk/src/common/pico_sync/sem.c.obj
 .time_critical.sem_try_acquire
                0x00000000       0x42 CMakeFiles/example1.dir/D_/pico/pico-sdk/src/common/pico_sync/sem.c.obj
 .time_critical.sem_release
                0x00000000       0x3e CMakeFiles/example1.dir/D_/pico/pico-sdk/src/common/pico_sync/sem.c.obj
 .time_critical.sem_reset
                0x00000000       0x5c CMakeFiles/example1.dir/D_/pico/pico-sdk/src/common/pico_sync/sem.c.obj
 .rodata.__func__.0
                0x00000000        0xa CMakeFiles/example1.dir/D_/pico/pico-sdk/src/common/pico_sync/sem.c.obj
 .rodata.__func__.1
                0x00000000       0x15 CMakeFiles/example1.dir/D_/pico/pico-sdk/src/common/pico_sync/sem.c.obj
 .debug_info    0x00000000     0x1192 CMakeFiles/example1.dir/D_/pico/pico-sdk/src/common/pico_sync/sem.c.obj
 .debug_abbrev  0x00000000      0x336 CMakeFiles/example1.dir/D_/pico/pico-sdk/src/common/pico_sync/sem.c.obj
 .debug_loc     0x00000000      0xa9f CMakeFiles/example1.dir/D_/pico/pico-sdk/src/common/pico_sync/sem.c.obj
 .debug_aranges
                0x00000000       0x60 CMakeFiles/example1.dir/D_/pico/pico-sdk/src/common/pico_sync/sem.c.obj
 .debug_ranges  0x00000000      0x528 CMakeFiles/example1.dir/D_/pico/pico-sdk/src/common/pico_sync/sem.c.obj
 .debug_line    0x00000000      0x946 CMakeFiles/example1.dir/D_/pico/pico-sdk/src/common/pico_sync/sem.c.obj
 .debug_str     0x00000000      0x54a CMakeFiles/example1.dir/D_/pico/pico-sdk/src/common/pico_sync/sem.c.obj
 .comment       0x00000000       0x4a CMakeFiles/example1.dir/D_/pico/pico-sdk/src/common/pico_sync/sem.c.obj
 .debug_frame   0x00000000       0xf8 CMakeFiles/example1.dir/D_/pico/pico-sdk/src/common/pico_sync/sem.c.obj
 .ARM.attributes
                0x00000000       0x2c CMakeFiles/example1.dir/D_/pico/pico-sdk/src/common/pico_sync/sem.c.obj
 .text          0x00000000        0x0 CMakeFiles/example1.dir/D_/pico/pico-sdk/src/common/pico_sync/lock_core.c.obj
 .data          0x00000000        0x0 CMakeFiles/example1.dir/D_/pico/pico-sdk/src/common/pico_sync/lock_core.c.obj
 .bss           0x00000000        0x0 CMakeFiles/example1.dir/D_/pico/pico-sdk/src/common/pico_sync/lock_core.c.obj
 .text          0x00000000        0x0 CMakeFiles/example1.dir/D_/pico/pico-sdk/src/common/pico_time/time.c.obj
 .data          0x00000000        0x0 CMakeFiles/example1.dir/D_/pico/pico-sdk/src/common/pico_time/time.c.obj
 .bss           0x00000000        0x0 CMakeFiles/example1.dir/D_/pico/pico-sdk/src/common/pico_time/time.c.obj
 .text.repeating_timer_callback
                0x00000000       0x40 CMakeFiles/example1.dir/D_/pico/pico-sdk/src/common/pico_time/time.c.obj
 .text.alarm_pool_dump_key
                0x00000000       0x70 CMakeFiles/example1.dir/D_/pico/pico-sdk/src/common/pico_time/time.c.obj
 .text.alarm_pool_create
                0x00000000       0x40 CMakeFiles/example1.dir/D_/pico/pico-sdk/src/common/pico_time/time.c.obj
 .rodata.alarm_pool_destroy.str1.4
                0x00000000       0x30 CMakeFiles/example1.dir/D_/pico/pico-sdk/src/common/pico_time/time.c.obj
 .text.alarm_pool_destroy
                0x00000000       0x78 CMakeFiles/example1.dir/D_/pico/pico-sdk/src/common/pico_time/time.c.obj
 .text.alarm_pool_hardware_alarm_num
                0x00000000        0x4 CMakeFiles/example1.dir/D_/pico/pico-sdk/src/common/pico_time/time.c.obj
 .text.alarm_pool_add_repeating_timer_us
                0x00000000       0x9c CMakeFiles/example1.dir/D_/pico/pico-sdk/src/common/pico_time/time.c.obj
 .text.cancel_repeating_timer
                0x00000000       0x1a CMakeFiles/example1.dir/D_/pico/pico-sdk/src/common/pico_time/time.c.obj
 .text.alarm_pool_dump
                0x00000000       0x34 CMakeFiles/example1.dir/D_/pico/pico-sdk/src/common/pico_time/time.c.obj
 .rodata.sleep_until.str1.4
                0x00000000       0x4d CMakeFiles/example1.dir/D_/pico/pico-sdk/src/common/pico_time/time.c.obj
 .text.sleep_until
                0x00000000       0xf0 CMakeFiles/example1.dir/D_/pico/pico-sdk/src/common/pico_time/time.c.obj
 .text.sleep_us
                0x00000000       0x58 CMakeFiles/example1.dir/D_/pico/pico-sdk/src/common/pico_time/time.c.obj
 .text.sleep_ms
                0x00000000       0x14 CMakeFiles/example1.dir/D_/pico/pico-sdk/src/common/pico_time/time.c.obj
 .rodata.__func__.0
                0x00000000       0x19 CMakeFiles/example1.dir/D_/pico/pico-sdk/src/common/pico_time/time.c.obj
 .rodata.__func__.2
                0x00000000       0x13 CMakeFiles/example1.dir/D_/pico/pico-sdk/src/common/pico_time/time.c.obj
 .rodata.at_the_end_of_time
                0x00000000        0x8 CMakeFiles/example1.dir/D_/pico/pico-sdk/src/common/pico_time/time.c.obj
 .rodata.nil_time
                0x00000000        0x8 CMakeFiles/example1.dir/D_/pico/pico-sdk/src/common/pico_time/time.c.obj
 .text          0x00000000        0x0 CMakeFiles/example1.dir/D_/pico/pico-sdk/src/common/pico_time/timeout_helper.c.obj
 .data          0x00000000        0x0 CMakeFiles/example1.dir/D_/pico/pico-sdk/src/common/pico_time/timeout_helper.c.obj
 .bss           0x00000000        0x0 CMakeFiles/example1.dir/D_/pico/pico-sdk/src/common/pico_time/timeout_helper.c.obj
 .rodata.check_per_iteration_timeout_us.str1.4
                0x00000000       0x57 CMakeFiles/example1.dir/D_/pico/pico-sdk/src/common/pico_time/timeout_helper.c.obj
 .text.check_per_iteration_timeout_us
                0x00000000       0x8c CMakeFiles/example1.dir/D_/pico/pico-sdk/src/common/pico_time/timeout_helper.c.obj
 .text.check_single_timeout_us
                0x00000000       0x2c CMakeFiles/example1.dir/D_/pico/pico-sdk/src/common/pico_time/timeout_helper.c.obj
 .text.init_single_timeout_until
                0x00000000        0xc CMakeFiles/example1.dir/D_/pico/pico-sdk/src/common/pico_time/timeout_helper.c.obj
 .text.init_per_iteration_timeout_us
                0x00000000       0x64 CMakeFiles/example1.dir/D_/pico/pico-sdk/src/common/pico_time/timeout_helper.c.obj
 .rodata.__func__.0
                0x00000000       0x15 CMakeFiles/example1.dir/D_/pico/pico-sdk/src/common/pico_time/timeout_helper.c.obj
 .debug_info    0x00000000      0x7fb CMakeFiles/example1.dir/D_/pico/pico-sdk/src/common/pico_time/timeout_helper.c.obj
 .debug_abbrev  0x00000000      0x243 CMakeFiles/example1.dir/D_/pico/pico-sdk/src/common/pico_time/timeout_helper.c.obj
 .debug_loc     0x00000000      0x464 CMakeFiles/example1.dir/D_/pico/pico-sdk/src/common/pico_time/timeout_helper.c.obj
 .debug_aranges
                0x00000000       0x38 CMakeFiles/example1.dir/D_/pico/pico-sdk/src/common/pico_time/timeout_helper.c.obj
 .debug_ranges  0x00000000      0x148 CMakeFiles/example1.dir/D_/pico/pico-sdk/src/common/pico_time/timeout_helper.c.obj
 .debug_line    0x00000000      0x4d5 CMakeFiles/example1.dir/D_/pico/pico-sdk/src/common/pico_time/timeout_helper.c.obj
 .debug_str     0x00000000      0x3e9 CMakeFiles/example1.dir/D_/pico/pico-sdk/src/common/pico_time/timeout_helper.c.obj
 .comment       0x00000000       0x4a CMakeFiles/example1.dir/D_/pico/pico-sdk/src/common/pico_time/timeout_helper.c.obj
 .debug_frame   0x00000000       0x6c CMakeFiles/example1.dir/D_/pico/pico-sdk/src/common/pico_time/timeout_helper.c.obj
 .ARM.attributes
                0x00000000       0x2c CMakeFiles/example1.dir/D_/pico/pico-sdk/src/common/pico_time/timeout_helper.c.obj
 .text          0x00000000        0x0 CMakeFiles/example1.dir/D_/pico/pico-sdk/src/rp2_common/hardware_timer/timer.c.obj
 .data          0x00000000        0x0 CMakeFiles/example1.dir/D_/pico/pico-sdk/src/rp2_common/hardware_timer/timer.c.obj
 .bss           0x00000000        0x0 CMakeFiles/example1.dir/D_/pico/pico-sdk/src/rp2_common/hardware_timer/timer.c.obj
 .text.hardware_alarm_unclaim
                0x00000000       0x10 CMakeFiles/example1.dir/D_/pico/pico-sdk/src/rp2_common/hardware_timer/timer.c.obj
 .text.hardware_alarm_is_claimed
                0x00000000       0x10 CMakeFiles/example1.dir/D_/pico/pico-sdk/src/rp2_common/hardware_timer/timer.c.obj
 .text.busy_wait_until
                0x00000000       0x28 CMakeFiles/example1.dir/D_/pico/pico-sdk/src/rp2_common/hardware_timer/timer.c.obj
 .rodata.busy_wait_us.str1.4
                0x00000000       0x57 CMakeFiles/example1.dir/D_/pico/pico-sdk/src/rp2_common/hardware_timer/timer.c.obj
 .text.busy_wait_us
                0x00000000       0x48 CMakeFiles/example1.dir/D_/pico/pico-sdk/src/rp2_common/hardware_timer/timer.c.obj
 .text.busy_wait_us_32
                0x00000000       0x24 CMakeFiles/example1.dir/D_/pico/pico-sdk/src/rp2_common/hardware_timer/timer.c.obj
 .text.busy_wait_ms
                0x00000000       0x30 CMakeFiles/example1.dir/D_/pico/pico-sdk/src/rp2_common/hardware_timer/timer.c.obj
 .rodata.__func__.1
                0x00000000       0x15 CMakeFiles/example1.dir/D_/pico/pico-sdk/src/rp2_common/hardware_timer/timer.c.obj
 .text          0x00000000        0x0 CMakeFiles/example1.dir/D_/pico/pico-sdk/src/common/pico_util/datetime.c.obj
 .data          0x00000000        0x0 CMakeFiles/example1.dir/D_/pico/pico-sdk/src/common/pico_util/datetime.c.obj
 .bss           0x00000000        0x0 CMakeFiles/example1.dir/D_/pico/pico-sdk/src/common/pico_util/datetime.c.obj
 .rodata.datetime_to_str.str1.4
                0x00000000       0x19 CMakeFiles/example1.dir/D_/pico/pico-sdk/src/common/pico_util/datetime.c.obj
 .text.datetime_to_str
                0x00000000       0x64 CMakeFiles/example1.dir/D_/pico/pico-sdk/src/common/pico_util/datetime.c.obj
 .rodata.str1.4
                0x00000000       0xad CMakeFiles/example1.dir/D_/pico/pico-sdk/src/common/pico_util/datetime.c.obj
 .rodata.DATETIME_DOWS
                0x00000000       0x1c CMakeFiles/example1.dir/D_/pico/pico-sdk/src/common/pico_util/datetime.c.obj
 .rodata.DATETIME_MONTHS
                0x00000000       0x30 CMakeFiles/example1.dir/D_/pico/pico-sdk/src/common/pico_util/datetime.c.obj
 .debug_info    0x00000000      0x21a CMakeFiles/example1.dir/D_/pico/pico-sdk/src/common/pico_util/datetime.c.obj
 .debug_abbrev  0x00000000      0x10b CMakeFiles/example1.dir/D_/pico/pico-sdk/src/common/pico_util/datetime.c.obj
 .debug_loc     0x00000000       0x7c CMakeFiles/example1.dir/D_/pico/pico-sdk/src/common/pico_util/datetime.c.obj
 .debug_aranges
                0x00000000       0x20 CMakeFiles/example1.dir/D_/pico/pico-sdk/src/common/pico_util/datetime.c.obj
 .debug_ranges  0x00000000       0x10 CMakeFiles/example1.dir/D_/pico/pico-sdk/src/common/pico_util/datetime.c.obj
 .debug_line    0x00000000      0x18b CMakeFiles/example1.dir/D_/pico/pico-sdk/src/common/pico_util/datetime.c.obj
 .debug_str     0x00000000      0x212 CMakeFiles/example1.dir/D_/pico/pico-sdk/src/common/pico_util/datetime.c.obj
 .comment       0x00000000       0x4a CMakeFiles/example1.dir/D_/pico/pico-sdk/src/common/pico_util/datetime.c.obj
 .debug_frame   0x00000000       0x38 CMakeFiles/example1.dir/D_/pico/pico-sdk/src/common/pico_util/datetime.c.obj
 .ARM.attributes
                0x00000000       0x2c CMakeFiles/example1.dir/D_/pico/pico-sdk/src/common/pico_util/datetime.c.obj
 .text          0x00000000        0x0 CMakeFiles/example1.dir/D_/pico/pico-sdk/src/common/pico_util/pheap.c.obj
 .data          0x00000000        0x0 CMakeFiles/example1.dir/D_/pico/pico-sdk/src/common/pico_util/pheap.c.obj
 .bss           0x00000000        0x0 CMakeFiles/example1.dir/D_/pico/pico-sdk/src/common/pico_util/pheap.c.obj
 .rodata.ph_dump_node.str1.4
                0x00000000       0x15 CMakeFiles/example1.dir/D_/pico/pico-sdk/src/common/pico_util/pheap.c.obj
 .text.ph_dump_node
                0x00000000       0xb4 CMakeFiles/example1.dir/D_/pico/pico-sdk/src/common/pico_util/pheap.c.obj
 .text.ph_create
                0x00000000       0x2c CMakeFiles/example1.dir/D_/pico/pico-sdk/src/common/pico_util/pheap.c.obj
 .text.ph_destroy
                0x00000000       0x12 CMakeFiles/example1.dir/D_/pico/pico-sdk/src/common/pico_util/pheap.c.obj
 .rodata.ph_dump.str1.4
                0x00000000        0xf CMakeFiles/example1.dir/D_/pico/pico-sdk/src/common/pico_util/pheap.c.obj
 .text.ph_dump  0x00000000       0x24 CMakeFiles/example1.dir/D_/pico/pico-sdk/src/common/pico_util/pheap.c.obj
 .text          0x00000000        0x0 CMakeFiles/example1.dir/D_/pico/pico-sdk/src/common/pico_util/queue.c.obj
 .data          0x00000000        0x0 CMakeFiles/example1.dir/D_/pico/pico-sdk/src/common/pico_util/queue.c.obj
 .bss           0x00000000        0x0 CMakeFiles/example1.dir/D_/pico/pico-sdk/src/common/pico_util/queue.c.obj
 .rodata.queue_add_internal.str1.4
                0x00000000       0x4a CMakeFiles/example1.dir/D_/pico/pico-sdk/src/common/pico_util/queue.c.obj
 .text.queue_add_internal
                0x00000000       0x98 CMakeFiles/example1.dir/D_/pico/pico-sdk/src/common/pico_util/queue.c.obj
 .text.queue_peek_internal
                0x00000000       0x88 CMakeFiles/example1.dir/D_/pico/pico-sdk/src/common/pico_util/queue.c.obj
 .text.queue_remove_internal
                0x00000000       0x98 CMakeFiles/example1.dir/D_/pico/pico-sdk/src/common/pico_util/queue.c.obj
 .text.queue_init_with_spinlock
                0x00000000       0x24 CMakeFiles/example1.dir/D_/pico/pico-sdk/src/common/pico_util/queue.c.obj
 .text.queue_free
                0x00000000        0xa CMakeFiles/example1.dir/D_/pico/pico-sdk/src/common/pico_util/queue.c.obj
 .text.queue_try_add
                0x00000000        0xa CMakeFiles/example1.dir/D_/pico/pico-sdk/src/common/pico_util/queue.c.obj
 .text.queue_try_remove
                0x00000000        0xa CMakeFiles/example1.dir/D_/pico/pico-sdk/src/common/pico_util/queue.c.obj
 .text.queue_try_peek
                0x00000000        0xa CMakeFiles/example1.dir/D_/pico/pico-sdk/src/common/pico_util/queue.c.obj
 .text.queue_add_blocking
                0x00000000        0xa CMakeFiles/example1.dir/D_/pico/pico-sdk/src/common/pico_util/queue.c.obj
 .text.queue_remove_blocking
                0x00000000        0xa CMakeFiles/example1.dir/D_/pico/pico-sdk/src/common/pico_util/queue.c.obj
 .text.queue_peek_blocking
                0x00000000        0xa CMakeFiles/example1.dir/D_/pico/pico-sdk/src/common/pico_util/queue.c.obj
 .rodata.__func__.0
                0x00000000        0xc CMakeFiles/example1.dir/D_/pico/pico-sdk/src/common/pico_util/queue.c.obj
 .debug_info    0x00000000      0xe78 CMakeFiles/example1.dir/D_/pico/pico-sdk/src/common/pico_util/queue.c.obj
 .debug_abbrev  0x00000000      0x31b CMakeFiles/example1.dir/D_/pico/pico-sdk/src/common/pico_util/queue.c.obj
 .debug_loc     0x00000000      0x9fa CMakeFiles/example1.dir/D_/pico/pico-sdk/src/common/pico_util/queue.c.obj
 .debug_aranges
                0x00000000       0x70 CMakeFiles/example1.dir/D_/pico/pico-sdk/src/common/pico_util/queue.c.obj
 .debug_ranges  0x00000000      0x390 CMakeFiles/example1.dir/D_/pico/pico-sdk/src/common/pico_util/queue.c.obj
 .debug_line    0x00000000      0x7eb CMakeFiles/example1.dir/D_/pico/pico-sdk/src/common/pico_util/queue.c.obj
 .debug_str     0x00000000      0x4a7 CMakeFiles/example1.dir/D_/pico/pico-sdk/src/common/pico_util/queue.c.obj
 .comment       0x00000000       0x4a CMakeFiles/example1.dir/D_/pico/pico-sdk/src/common/pico_util/queue.c.obj
 .debug_frame   0x00000000      0x134 CMakeFiles/example1.dir/D_/pico/pico-sdk/src/common/pico_util/queue.c.obj
 .ARM.attributes
                0x00000000       0x2c CMakeFiles/example1.dir/D_/pico/pico-sdk/src/common/pico_util/queue.c.obj
 .text          0x00000000        0x0 CMakeFiles/example1.dir/D_/pico/pico-sdk/src/common/pico_sync/mutex.c.obj
 .data          0x00000000        0x0 CMakeFiles/example1.dir/D_/pico/pico-sdk/src/common/pico_sync/mutex.c.obj
 .bss           0x00000000        0x0 CMakeFiles/example1.dir/D_/pico/pico-sdk/src/common/pico_sync/mutex.c.obj
 .time_critical.recursive_mutex_enter_blocking
                0x00000000       0x64 CMakeFiles/example1.dir/D_/pico/pico-sdk/src/common/pico_sync/mutex.c.obj
 .time_critical.recursive_mutex_try_enter
                0x00000000       0x6c CMakeFiles/example1.dir/D_/pico/pico-sdk/src/common/pico_sync/mutex.c.obj
 .time_critical.mutex_enter_timeout_us
                0x00000000       0x5c CMakeFiles/example1.dir/D_/pico/pico-sdk/src/common/pico_sync/mutex.c.obj
 .time_critical.recursive_mutex_enter_block_until
                0x00000000       0x98 CMakeFiles/example1.dir/D_/pico/pico-sdk/src/common/pico_sync/mutex.c.obj
 .time_critical.recursive_mutex_enter_timeout_ms
                0x00000000       0x74 CMakeFiles/example1.dir/D_/pico/pico-sdk/src/common/pico_sync/mutex.c.obj
 .time_critical.recursive_mutex_enter_timeout_us
                0x00000000       0x5c CMakeFiles/example1.dir/D_/pico/pico-sdk/src/common/pico_sync/mutex.c.obj
 .time_critical.recursive_mutex_exit
                0x00000000       0x6c CMakeFiles/example1.dir/D_/pico/pico-sdk/src/common/pico_sync/mutex.c.obj
 .rodata.__func__.0
                0x00000000       0x15 CMakeFiles/example1.dir/D_/pico/pico-sdk/src/common/pico_sync/mutex.c.obj
 .rodata.__func__.2
                0x00000000       0x22 CMakeFiles/example1.dir/D_/pico/pico-sdk/src/common/pico_sync/mutex.c.obj
 .rodata.__func__.5
                0x00000000       0x1a CMakeFiles/example1.dir/D_/pico/pico-sdk/src/common/pico_sync/mutex.c.obj
 .rodata.__func__.6
                0x00000000       0x1f CMakeFiles/example1.dir/D_/pico/pico-sdk/src/common/pico_sync/mutex.c.obj
 .text          0x00000000        0x0 CMakeFiles/example1.dir/D_/pico/pico-sdk/src/common/pico_sync/critical_section.c.obj
 .data          0x00000000        0x0 CMakeFiles/example1.dir/D_/pico/pico-sdk/src/common/pico_sync/critical_section.c.obj
 .bss           0x00000000        0x0 CMakeFiles/example1.dir/D_/pico/pico-sdk/src/common/pico_sync/critical_section.c.obj
 .text.critical_section_deinit
                0x00000000       0x20 CMakeFiles/example1.dir/D_/pico/pico-sdk/src/common/pico_sync/critical_section.c.obj
 .text          0x00000000        0x0 CMakeFiles/example1.dir/D_/pico/pico-sdk/src/rp2_common/hardware_uart/uart.c.obj
 .data          0x00000000        0x0 CMakeFiles/example1.dir/D_/pico/pico-sdk/src/rp2_common/hardware_uart/uart.c.obj
 .bss           0x00000000        0x0 CMakeFiles/example1.dir/D_/pico/pico-sdk/src/rp2_common/hardware_uart/uart.c.obj
 .text.uart_deinit
                0x00000000       0x20 CMakeFiles/example1.dir/D_/pico/pico-sdk/src/rp2_common/hardware_uart/uart.c.obj
 .text.uart_set_baudrate
                0x00000000       0x5c CMakeFiles/example1.dir/D_/pico/pico-sdk/src/rp2_common/hardware_uart/uart.c.obj
 .text.uart_set_translate_crlf
                0x00000000       0x28 CMakeFiles/example1.dir/D_/pico/pico-sdk/src/rp2_common/hardware_uart/uart.c.obj
 .text.uart_init
                0x00000000       0x80 CMakeFiles/example1.dir/D_/pico/pico-sdk/src/rp2_common/hardware_uart/uart.c.obj
 .text.uart_is_readable_within_us
                0x00000000       0x20 CMakeFiles/example1.dir/D_/pico/pico-sdk/src/rp2_common/hardware_uart/uart.c.obj
 .bss.uart_char_to_line_feed
                0x00000000        0x4 CMakeFiles/example1.dir/D_/pico/pico-sdk/src/rp2_common/hardware_uart/uart.c.obj
 .debug_info    0x00000000      0xb65 CMakeFiles/example1.dir/D_/pico/pico-sdk/src/rp2_common/hardware_uart/uart.c.obj
 .debug_abbrev  0x00000000      0x2d2 CMakeFiles/example1.dir/D_/pico/pico-sdk/src/rp2_common/hardware_uart/uart.c.obj
 .debug_loc     0x00000000      0x520 CMakeFiles/example1.dir/D_/pico/pico-sdk/src/rp2_common/hardware_uart/uart.c.obj
 .debug_aranges
                0x00000000       0x40 CMakeFiles/example1.dir/D_/pico/pico-sdk/src/rp2_common/hardware_uart/uart.c.obj
 .debug_ranges  0x00000000       0xf8 CMakeFiles/example1.dir/D_/pico/pico-sdk/src/rp2_common/hardware_uart/uart.c.obj
 .debug_line    0x00000000      0x6b7 CMakeFiles/example1.dir/D_/pico/pico-sdk/src/rp2_common/hardware_uart/uart.c.obj
 .debug_str     0x00000000      0x542 CMakeFiles/example1.dir/D_/pico/pico-sdk/src/rp2_common/hardware_uart/uart.c.obj
 .comment       0x00000000       0x4a CMakeFiles/example1.dir/D_/pico/pico-sdk/src/rp2_common/hardware_uart/uart.c.obj
 .debug_frame   0x00000000       0x78 CMakeFiles/example1.dir/D_/pico/pico-sdk/src/rp2_common/hardware_uart/uart.c.obj
 .ARM.attributes
                0x00000000       0x2c CMakeFiles/example1.dir/D_/pico/pico-sdk/src/rp2_common/hardware_uart/uart.c.obj
 .text          0x00000000        0x0 CMakeFiles/example1.dir/D_/pico/pico-sdk/src/rp2_common/hardware_divider/divider.S.obj
 .data          0x00000000        0x0 CMakeFiles/example1.dir/D_/pico/pico-sdk/src/rp2_common/hardware_divider/divider.S.obj
 .bss           0x00000000        0x0 CMakeFiles/example1.dir/D_/pico/pico-sdk/src/rp2_common/hardware_divider/divider.S.obj
 .text.hw_divider_divmod_s32
                0x00000000       0x18 CMakeFiles/example1.dir/D_/pico/pico-sdk/src/rp2_common/hardware_divider/divider.S.obj
 .text.hw_divider_divmod_u32
                0x00000000       0x18 CMakeFiles/example1.dir/D_/pico/pico-sdk/src/rp2_common/hardware_divider/divider.S.obj
 .text.hw_divider_save_state
                0x00000000       0x1c CMakeFiles/example1.dir/D_/pico/pico-sdk/src/rp2_common/hardware_divider/divider.S.obj
 .text.hw_divider_restore_state
                0x00000000       0x14 CMakeFiles/example1.dir/D_/pico/pico-sdk/src/rp2_common/hardware_divider/divider.S.obj
 .debug_line    0x00000000       0xc1 CMakeFiles/example1.dir/D_/pico/pico-sdk/src/rp2_common/hardware_divider/divider.S.obj
 .debug_info    0x00000000       0x22 CMakeFiles/example1.dir/D_/pico/pico-sdk/src/rp2_common/hardware_divider/divider.S.obj
 .debug_abbrev  0x00000000       0x12 CMakeFiles/example1.dir/D_/pico/pico-sdk/src/rp2_common/hardware_divider/divider.S.obj
 .debug_aranges
                0x00000000       0x38 CMakeFiles/example1.dir/D_/pico/pico-sdk/src/rp2_common/hardware_divider/divider.S.obj
 .debug_str     0x00000000       0x79 CMakeFiles/example1.dir/D_/pico/pico-sdk/src/rp2_common/hardware_divider/divider.S.obj
 .debug_ranges  0x00000000       0x30 CMakeFiles/example1.dir/D_/pico/pico-sdk/src/rp2_common/hardware_divider/divider.S.obj
 .ARM.attributes
                0x00000000       0x22 CMakeFiles/example1.dir/D_/pico/pico-sdk/src/rp2_common/hardware_divider/divider.S.obj
 .text          0x00000000        0x0 CMakeFiles/example1.dir/D_/pico/pico-sdk/src/rp2_common/pico_runtime/runtime.c.obj
 .data          0x00000000        0x0 CMakeFiles/example1.dir/D_/pico/pico-sdk/src/rp2_common/pico_runtime/runtime.c.obj
 .bss           0x00000000        0x0 CMakeFiles/example1.dir/D_/pico/pico-sdk/src/rp2_common/pico_runtime/runtime.c.obj
 .text.runtime_install_stack_guard
                0x00000000       0x40 CMakeFiles/example1.dir/D_/pico/pico-sdk/src/rp2_common/pico_runtime/runtime.c.obj
 .text._sbrk    0x00000000       0x38 CMakeFiles/example1.dir/D_/pico/pico-sdk/src/rp2_common/pico_runtime/runtime.c.obj
 .rodata.hard_assertion_failure.str1.4
                0x00000000        0xc CMakeFiles/example1.dir/D_/pico/pico-sdk/src/rp2_common/pico_runtime/runtime.c.obj
 .text.hard_assertion_failure
                0x00000000        0xc CMakeFiles/example1.dir/D_/pico/pico-sdk/src/rp2_common/pico_runtime/runtime.c.obj
 .bss.heap_end.0
                0x00000000        0x4 CMakeFiles/example1.dir/D_/pico/pico-sdk/src/rp2_common/pico_runtime/runtime.c.obj
 .text          0x00000000        0x0 CMakeFiles/example1.dir/D_/pico/pico-sdk/src/rp2_common/hardware_clocks/clocks.c.obj
 .data          0x00000000        0x0 CMakeFiles/example1.dir/D_/pico/pico-sdk/src/rp2_common/hardware_clocks/clocks.c.obj
 .bss           0x00000000        0x0 CMakeFiles/example1.dir/D_/pico/pico-sdk/src/rp2_common/hardware_clocks/clocks.c.obj
 .text.clock_stop
                0x00000000       0x2c CMakeFiles/example1.dir/D_/pico/pico-sdk/src/rp2_common/hardware_clocks/clocks.c.obj
 .rodata.clocks_handle_resus.str1.4
                0x00000000       0x8b CMakeFiles/example1.dir/D_/pico/pico-sdk/src/rp2_common/hardware_clocks/clocks.c.obj
 .text.clocks_handle_resus
                0x00000000       0x80 CMakeFiles/example1.dir/D_/pico/pico-sdk/src/rp2_common/hardware_clocks/clocks.c.obj
 .rodata.clocks_irq_handler.str1.4
                0x00000000       0x17 CMakeFiles/example1.dir/D_/pico/pico-sdk/src/rp2_common/hardware_clocks/clocks.c.obj
 .text.clocks_irq_handler
                0x00000000       0x2c CMakeFiles/example1.dir/D_/pico/pico-sdk/src/rp2_common/hardware_clocks/clocks.c.obj
 .text.clock_set_reported_hz
                0x00000000        0xc CMakeFiles/example1.dir/D_/pico/pico-sdk/src/rp2_common/hardware_clocks/clocks.c.obj
 .text.frequency_count_khz
                0x00000000       0x40 CMakeFiles/example1.dir/D_/pico/pico-sdk/src/rp2_common/hardware_clocks/clocks.c.obj
 .text.clocks_enable_resus
                0x00000000       0x34 CMakeFiles/example1.dir/D_/pico/pico-sdk/src/rp2_common/hardware_clocks/clocks.c.obj
 .text.clock_gpio_init
                0x00000000       0x4c CMakeFiles/example1.dir/D_/pico/pico-sdk/src/rp2_common/hardware_clocks/clocks.c.obj
 .text.clock_configure_gpin
                0x00000000       0x5c CMakeFiles/example1.dir/D_/pico/pico-sdk/src/rp2_common/hardware_clocks/clocks.c.obj
 .bss._resus_callback
                0x00000000        0x4 CMakeFiles/example1.dir/D_/pico/pico-sdk/src/rp2_common/hardware_clocks/clocks.c.obj
 .rodata.__func__.0
                0x00000000       0x14 CMakeFiles/example1.dir/D_/pico/pico-sdk/src/rp2_common/hardware_clocks/clocks.c.obj
 .rodata.gpin0_src
                0x00000000        0xa CMakeFiles/example1.dir/D_/pico/pico-sdk/src/rp2_common/hardware_clocks/clocks.c.obj
 .text          0x00000000        0x0 CMakeFiles/example1.dir/D_/pico/pico-sdk/src/rp2_common/hardware_pll/pll.c.obj
 .data          0x00000000        0x0 CMakeFiles/example1.dir/D_/pico/pico-sdk/src/rp2_common/hardware_pll/pll.c.obj
 .bss           0x00000000        0x0 CMakeFiles/example1.dir/D_/pico/pico-sdk/src/rp2_common/hardware_pll/pll.c.obj
 .text.pll_deinit
                0x00000000        0x6 CMakeFiles/example1.dir/D_/pico/pico-sdk/src/rp2_common/hardware_pll/pll.c.obj
 .text          0x00000000        0x0 CMakeFiles/example1.dir/D_/pico/pico-sdk/src/rp2_common/hardware_vreg/vreg.c.obj
 .data          0x00000000        0x0 CMakeFiles/example1.dir/D_/pico/pico-sdk/src/rp2_common/hardware_vreg/vreg.c.obj
 .bss           0x00000000        0x0 CMakeFiles/example1.dir/D_/pico/pico-sdk/src/rp2_common/hardware_vreg/vreg.c.obj
 .text.vreg_set_voltage
                0x00000000       0x1c CMakeFiles/example1.dir/D_/pico/pico-sdk/src/rp2_common/hardware_vreg/vreg.c.obj
 .debug_info    0x00000000      0x250 CMakeFiles/example1.dir/D_/pico/pico-sdk/src/rp2_common/hardware_vreg/vreg.c.obj
 .debug_abbrev  0x00000000      0x11d CMakeFiles/example1.dir/D_/pico/pico-sdk/src/rp2_common/hardware_vreg/vreg.c.obj
 .debug_loc     0x00000000       0x9a CMakeFiles/example1.dir/D_/pico/pico-sdk/src/rp2_common/hardware_vreg/vreg.c.obj
 .debug_aranges
                0x00000000       0x20 CMakeFiles/example1.dir/D_/pico/pico-sdk/src/rp2_common/hardware_vreg/vreg.c.obj
 .debug_ranges  0x00000000       0x10 CMakeFiles/example1.dir/D_/pico/pico-sdk/src/rp2_common/hardware_vreg/vreg.c.obj
 .debug_line    0x00000000      0x25d CMakeFiles/example1.dir/D_/pico/pico-sdk/src/rp2_common/hardware_vreg/vreg.c.obj
 .debug_str     0x00000000      0x334 CMakeFiles/example1.dir/D_/pico/pico-sdk/src/rp2_common/hardware_vreg/vreg.c.obj
 .comment       0x00000000       0x4a CMakeFiles/example1.dir/D_/pico/pico-sdk/src/rp2_common/hardware_vreg/vreg.c.obj
 .debug_frame   0x00000000       0x20 CMakeFiles/example1.dir/D_/pico/pico-sdk/src/rp2_common/hardware_vreg/vreg.c.obj
 .ARM.attributes
                0x00000000       0x2c CMakeFiles/example1.dir/D_/pico/pico-sdk/src/rp2_common/hardware_vreg/vreg.c.obj
 .text          0x00000000        0x0 CMakeFiles/example1.dir/D_/pico/pico-sdk/src/rp2_common/hardware_watchdog/watchdog.c.obj
 .data          0x00000000        0x0 CMakeFiles/example1.dir/D_/pico/pico-sdk/src/rp2_common/hardware_watchdog/watchdog.c.obj
 .bss           0x00000000        0x0 CMakeFiles/example1.dir/D_/pico/pico-sdk/src/rp2_common/hardware_watchdog/watchdog.c.obj
 .text.watchdog_get_count
                0x00000000       0x10 CMakeFiles/example1.dir/D_/pico/pico-sdk/src/rp2_common/hardware_watchdog/watchdog.c.obj
 .text.watchdog_enable
                0x00000000       0x18 CMakeFiles/example1.dir/D_/pico/pico-sdk/src/rp2_common/hardware_watchdog/watchdog.c.obj
 .text.watchdog_caused_reboot
                0x00000000       0x10 CMakeFiles/example1.dir/D_/pico/pico-sdk/src/rp2_common/hardware_watchdog/watchdog.c.obj
 .text.watchdog_enable_caused_reboot
                0x00000000       0x28 CMakeFiles/example1.dir/D_/pico/pico-sdk/src/rp2_common/hardware_watchdog/watchdog.c.obj
 .text          0x00000000        0x0 CMakeFiles/example1.dir/D_/pico/pico-sdk/src/rp2_common/hardware_xosc/xosc.c.obj
 .data          0x00000000        0x0 CMakeFiles/example1.dir/D_/pico/pico-sdk/src/rp2_common/hardware_xosc/xosc.c.obj
 .bss           0x00000000        0x0 CMakeFiles/example1.dir/D_/pico/pico-sdk/src/rp2_common/hardware_xosc/xosc.c.obj
 .text.xosc_disable
                0x00000000       0x24 CMakeFiles/example1.dir/D_/pico/pico-sdk/src/rp2_common/hardware_xosc/xosc.c.obj
 .text.xosc_dormant
                0x00000000       0x18 CMakeFiles/example1.dir/D_/pico/pico-sdk/src/rp2_common/hardware_xosc/xosc.c.obj
 .text          0x00000000        0x0 CMakeFiles/example1.dir/D_/pico/pico-sdk/src/rp2_common/pico_printf/printf.c.obj
 .data          0x00000000        0x0 CMakeFiles/example1.dir/D_/pico/pico-sdk/src/rp2_common/pico_printf/printf.c.obj
 .bss           0x00000000        0x0 CMakeFiles/example1.dir/D_/pico/pico-sdk/src/rp2_common/pico_printf/printf.c.obj
 .text._out_buffer
                0x00000000        0x8 CMakeFiles/example1.dir/D_/pico/pico-sdk/src/rp2_common/pico_printf/printf.c.obj
 .text.__wrap_sprintf
                0x00000000       0x28 CMakeFiles/example1.dir/D_/pico/pico-sdk/src/rp2_common/pico_printf/printf.c.obj
 .text.__wrap_snprintf
                0x00000000       0x28 CMakeFiles/example1.dir/D_/pico/pico-sdk/src/rp2_common/pico_printf/printf.c.obj
 .text.__wrap_vsnprintf
                0x00000000       0x1c CMakeFiles/example1.dir/D_/pico/pico-sdk/src/rp2_common/pico_printf/printf.c.obj
 .data          0x00000000        0x0 CMakeFiles/example1.dir/D_/pico/pico-sdk/src/rp2_common/pico_bit_ops/bit_ops_aeabi.S.obj
 .bss           0x00000000        0x0 CMakeFiles/example1.dir/D_/pico/pico-sdk/src/rp2_common/pico_bit_ops/bit_ops_aeabi.S.obj
 .text.clzsi    0x00000000        0xc CMakeFiles/example1.dir/D_/pico/pico-sdk/src/rp2_common/pico_bit_ops/bit_ops_aeabi.S.obj
 .text.ctzsi    0x00000000        0xc CMakeFiles/example1.dir/D_/pico/pico-sdk/src/rp2_common/pico_bit_ops/bit_ops_aeabi.S.obj
 .text.popcountsi
                0x00000000        0xc CMakeFiles/example1.dir/D_/pico/pico-sdk/src/rp2_common/pico_bit_ops/bit_ops_aeabi.S.obj
 .text.clzdi    0x00000000       0x18 CMakeFiles/example1.dir/D_/pico/pico-sdk/src/rp2_common/pico_bit_ops/bit_ops_aeabi.S.obj
 .text.ctzdi    0x00000000       0x18 CMakeFiles/example1.dir/D_/pico/pico-sdk/src/rp2_common/pico_bit_ops/bit_ops_aeabi.S.obj
 .text.popcountdi
                0x00000000       0x18 CMakeFiles/example1.dir/D_/pico/pico-sdk/src/rp2_common/pico_bit_ops/bit_ops_aeabi.S.obj
 .text.reverse32
                0x00000000        0xc CMakeFiles/example1.dir/D_/pico/pico-sdk/src/rp2_common/pico_bit_ops/bit_ops_aeabi.S.obj
 .text.__rev    0x00000000        0xc CMakeFiles/example1.dir/D_/pico/pico-sdk/src/rp2_common/pico_bit_ops/bit_ops_aeabi.S.obj
 .text.__revll  0x00000000       0x18 CMakeFiles/example1.dir/D_/pico/pico-sdk/src/rp2_common/pico_bit_ops/bit_ops_aeabi.S.obj
 .text          0x00000000        0x0 CMakeFiles/example1.dir/D_/pico/pico-sdk/src/rp2_common/pico_bootrom/bootrom.c.obj
 .data          0x00000000        0x0 CMakeFiles/example1.dir/D_/pico/pico-sdk/src/rp2_common/pico_bootrom/bootrom.c.obj
 .bss           0x00000000        0x0 CMakeFiles/example1.dir/D_/pico/pico-sdk/src/rp2_common/pico_bootrom/bootrom.c.obj
 .text          0x00000000        0x0 CMakeFiles/example1.dir/D_/pico/pico-sdk/src/rp2_common/pico_divider/divider.S.obj
 .data          0x00000000        0x0 CMakeFiles/example1.dir/D_/pico/pico-sdk/src/rp2_common/pico_divider/divider.S.obj
 .bss           0x00000000        0x0 CMakeFiles/example1.dir/D_/pico/pico-sdk/src/rp2_common/pico_divider/divider.S.obj
 .text.divmod_s64s64_rem
                0x00000000        0xc CMakeFiles/example1.dir/D_/pico/pico-sdk/src/rp2_common/pico_divider/divider.S.obj
 .text.divmod_u64u64_rem
                0x00000000        0xc CMakeFiles/example1.dir/D_/pico/pico-sdk/src/rp2_common/pico_divider/divider.S.obj
 .text          0x00000000        0x0 CMakeFiles/example1.dir/D_/pico/pico-sdk/src/rp2_common/pico_double/double_aeabi.S.obj
 .data          0x00000000        0x0 CMakeFiles/example1.dir/D_/pico/pico-sdk/src/rp2_common/pico_double/double_aeabi.S.obj
 .bss           0x00000000        0x0 CMakeFiles/example1.dir/D_/pico/pico-sdk/src/rp2_common/pico_double/double_aeabi.S.obj
 .text.push_r8_r11
                0x00000000        0xc CMakeFiles/example1.dir/D_/pico/pico-sdk/src/rp2_common/pico_double/double_aeabi.S.obj
 .text.pop_r8_r11
                0x00000000        0xc CMakeFiles/example1.dir/D_/pico/pico-sdk/src/rp2_common/pico_double/double_aeabi.S.obj
 .text.__wrap___aeabi_dcmpeq
                0x00000000       0x10 CMakeFiles/example1.dir/D_/pico/pico-sdk/src/rp2_common/pico_double/double_aeabi.S.obj
 .text.__wrap___aeabi_ui2d
                0x00000000       0x18 CMakeFiles/example1.dir/D_/pico/pico-sdk/src/rp2_common/pico_double/double_aeabi.S.obj
 .text.double2int
                0x00000000       0x18 CMakeFiles/example1.dir/D_/pico/pico-sdk/src/rp2_common/pico_double/double_aeabi.S.obj
 .text.fix2double
                0x00000000       0x18 CMakeFiles/example1.dir/D_/pico/pico-sdk/src/rp2_common/pico_double/double_aeabi.S.obj
 .text.ufix2double
                0x00000000       0x28 CMakeFiles/example1.dir/D_/pico/pico-sdk/src/rp2_common/pico_double/double_aeabi.S.obj
 .text.fix642double
                0x00000000       0x18 CMakeFiles/example1.dir/D_/pico/pico-sdk/src/rp2_common/pico_double/double_aeabi.S.obj
 .text.__wrap___aeabi_l2d
                0x00000000       0x18 CMakeFiles/example1.dir/D_/pico/pico-sdk/src/rp2_common/pico_double/double_aeabi.S.obj
 .text.__wrap___aeabi_ul2d
                0x00000000       0x18 CMakeFiles/example1.dir/D_/pico/pico-sdk/src/rp2_common/pico_double/double_aeabi.S.obj
 .text.__wrap___aeabi_d2lz
                0x00000000       0x26 CMakeFiles/example1.dir/D_/pico/pico-sdk/src/rp2_common/pico_double/double_aeabi.S.obj
 .text.double2int64
                0x00000000       0x18 CMakeFiles/example1.dir/D_/pico/pico-sdk/src/rp2_common/pico_double/double_aeabi.S.obj
 .text.__wrap___aeabi_d2ulz
                0x00000000       0x18 CMakeFiles/example1.dir/D_/pico/pico-sdk/src/rp2_common/pico_double/double_aeabi.S.obj
 .text.double2fix64
                0x00000000       0x18 CMakeFiles/example1.dir/D_/pico/pico-sdk/src/rp2_common/pico_double/double_aeabi.S.obj
 .text.double2ufix64
                0x00000000       0x18 CMakeFiles/example1.dir/D_/pico/pico-sdk/src/rp2_common/pico_double/double_aeabi.S.obj
 .text.double2fix
                0x00000000       0x18 CMakeFiles/example1.dir/D_/pico/pico-sdk/src/rp2_common/pico_double/double_aeabi.S.obj
 .text.double2ufix
                0x00000000       0x18 CMakeFiles/example1.dir/D_/pico/pico-sdk/src/rp2_common/pico_double/double_aeabi.S.obj
 .text.__wrap___aeabi_d2f
                0x00000000       0x18 CMakeFiles/example1.dir/D_/pico/pico-sdk/src/rp2_common/pico_double/double_aeabi.S.obj
 .text.__wrap_srqt
                0x00000000       0x18 CMakeFiles/example1.dir/D_/pico/pico-sdk/src/rp2_common/pico_double/double_aeabi.S.obj
 .text.__wrap_sincostan_remainder
                0x00000000       0x14 CMakeFiles/example1.dir/D_/pico/pico-sdk/src/rp2_common/pico_double/double_aeabi.S.obj
 .text.__wrap_cos
                0x00000000       0x2c CMakeFiles/example1.dir/D_/pico/pico-sdk/src/rp2_common/pico_double/double_aeabi.S.obj
 .text.__wrap_sin
                0x00000000       0x2c CMakeFiles/example1.dir/D_/pico/pico-sdk/src/rp2_common/pico_double/double_aeabi.S.obj
 .text.__wrap_sincos
                0x00000000       0xa0 CMakeFiles/example1.dir/D_/pico/pico-sdk/src/rp2_common/pico_double/double_aeabi.S.obj
 .text.__wrap_tan
                0x00000000       0x5c CMakeFiles/example1.dir/D_/pico/pico-sdk/src/rp2_common/pico_double/double_aeabi.S.obj
 .text.__wrap_atan2
                0x00000000       0x18 CMakeFiles/example1.dir/D_/pico/pico-sdk/src/rp2_common/pico_double/double_aeabi.S.obj
 .text.__wrap_exp
                0x00000000       0x18 CMakeFiles/example1.dir/D_/pico/pico-sdk/src/rp2_common/pico_double/double_aeabi.S.obj
 .text.__wrap_log
                0x00000000       0x18 CMakeFiles/example1.dir/D_/pico/pico-sdk/src/rp2_common/pico_double/double_aeabi.S.obj
 .text          0x00000000        0x0 CMakeFiles/example1.dir/D_/pico/pico-sdk/src/rp2_common/pico_double/double_init_rom.c.obj
 .data          0x00000000        0x0 CMakeFiles/example1.dir/D_/pico/pico-sdk/src/rp2_common/pico_double/double_init_rom.c.obj
 .bss           0x00000000        0x0 CMakeFiles/example1.dir/D_/pico/pico-sdk/src/rp2_common/pico_double/double_init_rom.c.obj
 .text          0x00000000        0x0 CMakeFiles/example1.dir/D_/pico/pico-sdk/src/rp2_common/pico_double/double_math.c.obj
 .data          0x00000000        0x0 CMakeFiles/example1.dir/D_/pico/pico-sdk/src/rp2_common/pico_double/double_math.c.obj
 .bss           0x00000000        0x0 CMakeFiles/example1.dir/D_/pico/pico-sdk/src/rp2_common/pico_double/double_math.c.obj
 .text.dpow_int2
                0x00000000       0x2c CMakeFiles/example1.dir/D_/pico/pico-sdk/src/rp2_common/pico_double/double_math.c.obj
 .text.drem_0   0x00000000      0x130 CMakeFiles/example1.dir/D_/pico/pico-sdk/src/rp2_common/pico_double/double_math.c.obj
 .text.dpow_1   0x00000000      0x2a8 CMakeFiles/example1.dir/D_/pico/pico-sdk/src/rp2_common/pico_double/double_math.c.obj
 .text.dpowint_0
                0x00000000      0x194 CMakeFiles/example1.dir/D_/pico/pico-sdk/src/rp2_common/pico_double/double_math.c.obj
 .text.dpow_0   0x00000000      0x1a0 CMakeFiles/example1.dir/D_/pico/pico-sdk/src/rp2_common/pico_double/double_math.c.obj
 .text.__wrap_ldexp
                0x00000000       0x50 CMakeFiles/example1.dir/D_/pico/pico-sdk/src/rp2_common/pico_double/double_math.c.obj
 .text.__wrap_copysign
                0x00000000       0x10 CMakeFiles/example1.dir/D_/pico/pico-sdk/src/rp2_common/pico_double/double_math.c.obj
 .text.__wrap_trunc
                0x00000000       0x60 CMakeFiles/example1.dir/D_/pico/pico-sdk/src/rp2_common/pico_double/double_math.c.obj
 .text.__wrap_round
                0x00000000       0x9c CMakeFiles/example1.dir/D_/pico/pico-sdk/src/rp2_common/pico_double/double_math.c.obj
 .text.__wrap_floor
                0x00000000       0x9c CMakeFiles/example1.dir/D_/pico/pico-sdk/src/rp2_common/pico_double/double_math.c.obj
 .text.__wrap_ceil
                0x00000000       0x9c CMakeFiles/example1.dir/D_/pico/pico-sdk/src/rp2_common/pico_double/double_math.c.obj
 .text.__wrap_asin
                0x00000000       0x60 CMakeFiles/example1.dir/D_/pico/pico-sdk/src/rp2_common/pico_double/double_math.c.obj
 .text.__wrap_acos
                0x00000000       0x5c CMakeFiles/example1.dir/D_/pico/pico-sdk/src/rp2_common/pico_double/double_math.c.obj
 .text.__wrap_atan
                0x00000000       0x40 CMakeFiles/example1.dir/D_/pico/pico-sdk/src/rp2_common/pico_double/double_math.c.obj
 .text.__wrap_sinh
                0x00000000       0x7c CMakeFiles/example1.dir/D_/pico/pico-sdk/src/rp2_common/pico_double/double_math.c.obj
 .text.__wrap_cosh
                0x00000000       0x7c CMakeFiles/example1.dir/D_/pico/pico-sdk/src/rp2_common/pico_double/double_math.c.obj
 .text.__wrap_tanh
                0x00000000       0x98 CMakeFiles/example1.dir/D_/pico/pico-sdk/src/rp2_common/pico_double/double_math.c.obj
 .text.__wrap_asinh
                0x00000000       0xb8 CMakeFiles/example1.dir/D_/pico/pico-sdk/src/rp2_common/pico_double/double_math.c.obj
 .text.__wrap_acosh
                0x00000000       0x78 CMakeFiles/example1.dir/D_/pico/pico-sdk/src/rp2_common/pico_double/double_math.c.obj
 .text.__wrap_atanh
                0x00000000       0x84 CMakeFiles/example1.dir/D_/pico/pico-sdk/src/rp2_common/pico_double/double_math.c.obj
 .text.__wrap_exp2
                0x00000000       0xcc CMakeFiles/example1.dir/D_/pico/pico-sdk/src/rp2_common/pico_double/double_math.c.obj
 .text.__wrap_log2
                0x00000000       0x18 CMakeFiles/example1.dir/D_/pico/pico-sdk/src/rp2_common/pico_double/double_math.c.obj
 .text.__wrap_exp10
                0x00000000       0x14 CMakeFiles/example1.dir/D_/pico/pico-sdk/src/rp2_common/pico_double/double_math.c.obj
 .text.__wrap_log10
                0x00000000       0x18 CMakeFiles/example1.dir/D_/pico/pico-sdk/src/rp2_common/pico_double/double_math.c.obj
 .text.__wrap_expm1
                0x00000000       0x14 CMakeFiles/example1.dir/D_/pico/pico-sdk/src/rp2_common/pico_double/double_math.c.obj
 .text.__wrap_log1p
                0x00000000       0x14 CMakeFiles/example1.dir/D_/pico/pico-sdk/src/rp2_common/pico_double/double_math.c.obj
 .text.__wrap_fma
                0x00000000       0x10 CMakeFiles/example1.dir/D_/pico/pico-sdk/src/rp2_common/pico_double/double_math.c.obj
 .text.__wrap_powint
                0x00000000       0xbc CMakeFiles/example1.dir/D_/pico/pico-sdk/src/rp2_common/pico_double/double_math.c.obj
 .text.__wrap_pow
                0x00000000      0x37c CMakeFiles/example1.dir/D_/pico/pico-sdk/src/rp2_common/pico_double/double_math.c.obj
 .text.__wrap_hypot
                0x00000000      0x238 CMakeFiles/example1.dir/D_/pico/pico-sdk/src/rp2_common/pico_double/double_math.c.obj
 .text.__wrap_cbrt
                0x00000000       0xf0 CMakeFiles/example1.dir/D_/pico/pico-sdk/src/rp2_common/pico_double/double_math.c.obj
 .text.__wrap_fmod
                0x00000000       0xa8 CMakeFiles/example1.dir/D_/pico/pico-sdk/src/rp2_common/pico_double/double_math.c.obj
 .text.__wrap_remquo
                0x00000000      0x17c CMakeFiles/example1.dir/D_/pico/pico-sdk/src/rp2_common/pico_double/double_math.c.obj
 .text.__wrap_drem
                0x00000000       0x10 CMakeFiles/example1.dir/D_/pico/pico-sdk/src/rp2_common/pico_double/double_math.c.obj
 .text.__wrap_remainder
                0x00000000       0x10 CMakeFiles/example1.dir/D_/pico/pico-sdk/src/rp2_common/pico_double/double_math.c.obj
 .debug_info    0x00000000     0x5587 CMakeFiles/example1.dir/D_/pico/pico-sdk/src/rp2_common/pico_double/double_math.c.obj
 .debug_abbrev  0x00000000      0x2e3 CMakeFiles/example1.dir/D_/pico/pico-sdk/src/rp2_common/pico_double/double_math.c.obj
 .debug_loc     0x00000000     0x7f1a CMakeFiles/example1.dir/D_/pico/pico-sdk/src/rp2_common/pico_double/double_math.c.obj
 .debug_aranges
                0x00000000      0x130 CMakeFiles/example1.dir/D_/pico/pico-sdk/src/rp2_common/pico_double/double_math.c.obj
 .debug_ranges  0x00000000      0x5e8 CMakeFiles/example1.dir/D_/pico/pico-sdk/src/rp2_common/pico_double/double_math.c.obj
 .debug_line    0x00000000     0x2c33 CMakeFiles/example1.dir/D_/pico/pico-sdk/src/rp2_common/pico_double/double_math.c.obj
 .debug_str     0x00000000      0x516 CMakeFiles/example1.dir/D_/pico/pico-sdk/src/rp2_common/pico_double/double_math.c.obj
 .comment       0x00000000       0x4a CMakeFiles/example1.dir/D_/pico/pico-sdk/src/rp2_common/pico_double/double_math.c.obj
 .debug_frame   0x00000000      0x440 CMakeFiles/example1.dir/D_/pico/pico-sdk/src/rp2_common/pico_double/double_math.c.obj
 .ARM.attributes
                0x00000000       0x2c CMakeFiles/example1.dir/D_/pico/pico-sdk/src/rp2_common/pico_double/double_math.c.obj
 .text          0x00000000        0x0 CMakeFiles/example1.dir/D_/pico/pico-sdk/src/rp2_common/pico_double/double_v1_rom_shim.S.obj
 .data          0x00000000        0x0 CMakeFiles/example1.dir/D_/pico/pico-sdk/src/rp2_common/pico_double/double_v1_rom_shim.S.obj
 .bss           0x00000000        0x0 CMakeFiles/example1.dir/D_/pico/pico-sdk/src/rp2_common/pico_double/double_v1_rom_shim.S.obj
 .text.dsqrt_shim
                0x00000000      0x1a8 CMakeFiles/example1.dir/D_/pico/pico-sdk/src/rp2_common/pico_double/double_v1_rom_shim.S.obj
 .text.dcordic_vec_step
                0x00000000        0xe CMakeFiles/example1.dir/D_/pico/pico-sdk/src/rp2_common/pico_double/double_v1_rom_shim.S.obj
 .text.dcordic_rot_step
                0x00000000       0x76 CMakeFiles/example1.dir/D_/pico/pico-sdk/src/rp2_common/pico_double/double_v1_rom_shim.S.obj
 .text.double2int_shim
                0x00000000        0xe CMakeFiles/example1.dir/D_/pico/pico-sdk/src/rp2_common/pico_double/double_v1_rom_shim.S.obj
 .text.double2int64_shim
                0x00000000       0x1a CMakeFiles/example1.dir/D_/pico/pico-sdk/src/rp2_common/pico_double/double_v1_rom_shim.S.obj
 .text.double2float_shim
                0x00000000       0x5c CMakeFiles/example1.dir/D_/pico/pico-sdk/src/rp2_common/pico_double/double_v1_rom_shim.S.obj
 .text.x2double_shims
                0x00000000       0x90 CMakeFiles/example1.dir/D_/pico/pico-sdk/src/rp2_common/pico_double/double_v1_rom_shim.S.obj
 .text.dreduce  0x00000000       0x82 CMakeFiles/example1.dir/D_/pico/pico-sdk/src/rp2_common/pico_double/double_v1_rom_shim.S.obj
 .text.dtan_shim
                0x00000000       0x20 CMakeFiles/example1.dir/D_/pico/pico-sdk/src/rp2_common/pico_double/double_v1_rom_shim.S.obj
 .text.dcos_shim
                0x00000000       0x10 CMakeFiles/example1.dir/D_/pico/pico-sdk/src/rp2_common/pico_double/double_v1_rom_shim.S.obj
 .text.dsin_shim
                0x00000000       0x14 CMakeFiles/example1.dir/D_/pico/pico-sdk/src/rp2_common/pico_double/double_v1_rom_shim.S.obj
 .text.dsincos_shim
                0x00000000       0x20 CMakeFiles/example1.dir/D_/pico/pico-sdk/src/rp2_common/pico_double/double_v1_rom_shim.S.obj
 .text.dtrig_guts
                0x00000000      0x2ec CMakeFiles/example1.dir/D_/pico/pico-sdk/src/rp2_common/pico_double/double_v1_rom_shim.S.obj
 .text.dexp_guts
                0x00000000      0x268 CMakeFiles/example1.dir/D_/pico/pico-sdk/src/rp2_common/pico_double/double_v1_rom_shim.S.obj
 .text          0x00000000        0x0 CMakeFiles/example1.dir/D_/pico/pico-sdk/src/rp2_common/pico_int64_ops/pico_int64_ops_aeabi.S.obj
 .data          0x00000000        0x0 CMakeFiles/example1.dir/D_/pico/pico-sdk/src/rp2_common/pico_int64_ops/pico_int64_ops_aeabi.S.obj
 .bss           0x00000000        0x0 CMakeFiles/example1.dir/D_/pico/pico-sdk/src/rp2_common/pico_int64_ops/pico_int64_ops_aeabi.S.obj
 .text          0x00000000        0x0 CMakeFiles/example1.dir/D_/pico/pico-sdk/src/rp2_common/pico_float/float_aeabi.S.obj
 .data          0x00000000        0x0 CMakeFiles/example1.dir/D_/pico/pico-sdk/src/rp2_common/pico_float/float_aeabi.S.obj
 .bss           0x00000000        0x0 CMakeFiles/example1.dir/D_/pico/pico-sdk/src/rp2_common/pico_float/float_aeabi.S.obj
 .text.__wrap___aeabi_farithmetic
                0x00000000       0x58 CMakeFiles/example1.dir/D_/pico/pico-sdk/src/rp2_common/pico_float/float_aeabi.S.obj
 .text.__wrap___aeabi_cfcmple
                0x00000000       0x50 CMakeFiles/example1.dir/D_/pico/pico-sdk/src/rp2_common/pico_float/float_aeabi.S.obj
 .text.__wrap___aeabi_fcmpeq
                0x00000000       0x10 CMakeFiles/example1.dir/D_/pico/pico-sdk/src/rp2_common/pico_float/float_aeabi.S.obj
 .text.__wrap___aeabi_fcmplt
                0x00000000        0xc CMakeFiles/example1.dir/D_/pico/pico-sdk/src/rp2_common/pico_float/float_aeabi.S.obj
 .text.__wrap___aeabi_fcmple
                0x00000000       0x10 CMakeFiles/example1.dir/D_/pico/pico-sdk/src/rp2_common/pico_float/float_aeabi.S.obj
 .text.__wrap___aeabi_fcmpge
                0x00000000       0x10 CMakeFiles/example1.dir/D_/pico/pico-sdk/src/rp2_common/pico_float/float_aeabi.S.obj
 .text.__wrap___aeabi_fcmpgt
                0x00000000        0xa CMakeFiles/example1.dir/D_/pico/pico-sdk/src/rp2_common/pico_float/float_aeabi.S.obj
 .text.__wrap___aeabi_fcmpun
                0x00000000       0x18 CMakeFiles/example1.dir/D_/pico/pico-sdk/src/rp2_common/pico_float/float_aeabi.S.obj
 .text.__wrap___aeabi_ui2f
                0x00000000        0xa CMakeFiles/example1.dir/D_/pico/pico-sdk/src/rp2_common/pico_float/float_aeabi.S.obj
 .text.__wrap___aeabi_i2f
                0x00000000       0x44 CMakeFiles/example1.dir/D_/pico/pico-sdk/src/rp2_common/pico_float/float_aeabi.S.obj
 .text.__wrap___aeabi_f2iz
                0x00000000       0x4e CMakeFiles/example1.dir/D_/pico/pico-sdk/src/rp2_common/pico_float/float_aeabi.S.obj
 .text.float2int
                0x00000000       0x14 CMakeFiles/example1.dir/D_/pico/pico-sdk/src/rp2_common/pico_float/float_aeabi.S.obj
 .text.float2fix
                0x00000000       0x14 CMakeFiles/example1.dir/D_/pico/pico-sdk/src/rp2_common/pico_float/float_aeabi.S.obj
 .text.float2ufix
                0x00000000       0x10 CMakeFiles/example1.dir/D_/pico/pico-sdk/src/rp2_common/pico_float/float_aeabi.S.obj
 .text.__wrap___aeabi_f2uiz
                0x00000000       0x10 CMakeFiles/example1.dir/D_/pico/pico-sdk/src/rp2_common/pico_float/float_aeabi.S.obj
 .text.fix2float
                0x00000000       0x10 CMakeFiles/example1.dir/D_/pico/pico-sdk/src/rp2_common/pico_float/float_aeabi.S.obj
 .text.ufix2float
                0x00000000       0x10 CMakeFiles/example1.dir/D_/pico/pico-sdk/src/rp2_common/pico_float/float_aeabi.S.obj
 .text.fix642float
                0x00000000       0x14 CMakeFiles/example1.dir/D_/pico/pico-sdk/src/rp2_common/pico_float/float_aeabi.S.obj
 .text.ufix642float
                0x00000000       0x14 CMakeFiles/example1.dir/D_/pico/pico-sdk/src/rp2_common/pico_float/float_aeabi.S.obj
 .text.__wrap___aeabi_l2f
                0x00000000       0x20 CMakeFiles/example1.dir/D_/pico/pico-sdk/src/rp2_common/pico_float/float_aeabi.S.obj
 .text.__wrap___aeabi_ul2f
                0x00000000       0x20 CMakeFiles/example1.dir/D_/pico/pico-sdk/src/rp2_common/pico_float/float_aeabi.S.obj
 .text.__wrap___aeabi_f2lz
                0x00000000       0x26 CMakeFiles/example1.dir/D_/pico/pico-sdk/src/rp2_common/pico_float/float_aeabi.S.obj
 .text.float2int64
                0x00000000       0x14 CMakeFiles/example1.dir/D_/pico/pico-sdk/src/rp2_common/pico_float/float_aeabi.S.obj
 .text.float2fix64
                0x00000000       0x14 CMakeFiles/example1.dir/D_/pico/pico-sdk/src/rp2_common/pico_float/float_aeabi.S.obj
 .text.__wrap___aeabi_f2ulz
                0x00000000       0x14 CMakeFiles/example1.dir/D_/pico/pico-sdk/src/rp2_common/pico_float/float_aeabi.S.obj
 .text.float2ufix64
                0x00000000       0x14 CMakeFiles/example1.dir/D_/pico/pico-sdk/src/rp2_common/pico_float/float_aeabi.S.obj
 .text.__wrap___aeabi_f2d
                0x00000000       0x14 CMakeFiles/example1.dir/D_/pico/pico-sdk/src/rp2_common/pico_float/float_aeabi.S.obj
 .text.__wrap_srqtf
                0x00000000       0x24 CMakeFiles/example1.dir/D_/pico/pico-sdk/src/rp2_common/pico_float/float_aeabi.S.obj
 .text.__wrap_cosf
                0x00000000       0x28 CMakeFiles/example1.dir/D_/pico/pico-sdk/src/rp2_common/pico_float/float_aeabi.S.obj
 .text.__wrap_sinf
                0x00000000       0x28 CMakeFiles/example1.dir/D_/pico/pico-sdk/src/rp2_common/pico_float/float_aeabi.S.obj
 .text.__wrap_sincosf
                0x00000000       0x30 CMakeFiles/example1.dir/D_/pico/pico-sdk/src/rp2_common/pico_float/float_aeabi.S.obj
 .text.__wrap_tanf
                0x00000000       0x50 CMakeFiles/example1.dir/D_/pico/pico-sdk/src/rp2_common/pico_float/float_aeabi.S.obj
 .text.__wrap_atan2f
                0x00000000       0x14 CMakeFiles/example1.dir/D_/pico/pico-sdk/src/rp2_common/pico_float/float_aeabi.S.obj
 .text.__wrap_expf
                0x00000000       0x10 CMakeFiles/example1.dir/D_/pico/pico-sdk/src/rp2_common/pico_float/float_aeabi.S.obj
 .text.__wrap_logf
                0x00000000       0x10 CMakeFiles/example1.dir/D_/pico/pico-sdk/src/rp2_common/pico_float/float_aeabi.S.obj
 .text          0x00000000        0x0 CMakeFiles/example1.dir/D_/pico/pico-sdk/src/rp2_common/pico_float/float_init_rom.c.obj
 .data          0x00000000        0x0 CMakeFiles/example1.dir/D_/pico/pico-sdk/src/rp2_common/pico_float/float_init_rom.c.obj
 .bss           0x00000000        0x0 CMakeFiles/example1.dir/D_/pico/pico-sdk/src/rp2_common/pico_float/float_init_rom.c.obj
 .bss.sf_clz_func
                0x00000000        0x4 CMakeFiles/example1.dir/D_/pico/pico-sdk/src/rp2_common/pico_float/float_init_rom.c.obj
 .text          0x00000000        0x0 CMakeFiles/example1.dir/D_/pico/pico-sdk/src/rp2_common/pico_float/float_math.c.obj
 .data          0x00000000        0x0 CMakeFiles/example1.dir/D_/pico/pico-sdk/src/rp2_common/pico_float/float_math.c.obj
 .bss           0x00000000        0x0 CMakeFiles/example1.dir/D_/pico/pico-sdk/src/rp2_common/pico_float/float_math.c.obj
 .text.fpow_int2
                0x00000000       0x26 CMakeFiles/example1.dir/D_/pico/pico-sdk/src/rp2_common/pico_float/float_math.c.obj
 .text.frem_0   0x00000000       0x80 CMakeFiles/example1.dir/D_/pico/pico-sdk/src/rp2_common/pico_float/float_math.c.obj
 .text.fpow_0   0x00000000      0x140 CMakeFiles/example1.dir/D_/pico/pico-sdk/src/rp2_common/pico_float/float_math.c.obj
 .text.fpowint_0
                0x00000000      0x12c CMakeFiles/example1.dir/D_/pico/pico-sdk/src/rp2_common/pico_float/float_math.c.obj
 .text.__wrap_ldexpf
                0x00000000       0x34 CMakeFiles/example1.dir/D_/pico/pico-sdk/src/rp2_common/pico_float/float_math.c.obj
 .text.__wrap_copysignf
                0x00000000        0xc CMakeFiles/example1.dir/D_/pico/pico-sdk/src/rp2_common/pico_float/float_math.c.obj
 .text.__wrap_truncf
                0x00000000       0x22 CMakeFiles/example1.dir/D_/pico/pico-sdk/src/rp2_common/pico_float/float_math.c.obj
 .text.__wrap_roundf
                0x00000000       0x3e CMakeFiles/example1.dir/D_/pico/pico-sdk/src/rp2_common/pico_float/float_math.c.obj
 .text.__wrap_floorf
                0x00000000       0x44 CMakeFiles/example1.dir/D_/pico/pico-sdk/src/rp2_common/pico_float/float_math.c.obj
 .text.__wrap_ceilf
                0x00000000       0x44 CMakeFiles/example1.dir/D_/pico/pico-sdk/src/rp2_common/pico_float/float_math.c.obj
 .text.__wrap_asinf
                0x00000000       0x42 CMakeFiles/example1.dir/D_/pico/pico-sdk/src/rp2_common/pico_float/float_math.c.obj
 .text.__wrap_acosf
                0x00000000       0x40 CMakeFiles/example1.dir/D_/pico/pico-sdk/src/rp2_common/pico_float/float_math.c.obj
 .text.__wrap_atanf
                0x00000000       0x2c CMakeFiles/example1.dir/D_/pico/pico-sdk/src/rp2_common/pico_float/float_math.c.obj
 .text.__wrap_sinhf
                0x00000000       0x54 CMakeFiles/example1.dir/D_/pico/pico-sdk/src/rp2_common/pico_float/float_math.c.obj
 .text.__wrap_coshf
                0x00000000       0x54 CMakeFiles/example1.dir/D_/pico/pico-sdk/src/rp2_common/pico_float/float_math.c.obj
 .text.__wrap_tanhf
                0x00000000       0x6c CMakeFiles/example1.dir/D_/pico/pico-sdk/src/rp2_common/pico_float/float_math.c.obj
 .text.__wrap_asinhf
                0x00000000       0xb8 CMakeFiles/example1.dir/D_/pico/pico-sdk/src/rp2_common/pico_float/float_math.c.obj
 .text.__wrap_acoshf
                0x00000000       0x74 CMakeFiles/example1.dir/D_/pico/pico-sdk/src/rp2_common/pico_float/float_math.c.obj
 .text.__wrap_atanhf
                0x00000000       0x5c CMakeFiles/example1.dir/D_/pico/pico-sdk/src/rp2_common/pico_float/float_math.c.obj
 .text.__wrap_exp2f
                0x00000000       0x20 CMakeFiles/example1.dir/D_/pico/pico-sdk/src/rp2_common/pico_float/float_math.c.obj
 .text.__wrap_log2f
                0x00000000       0x14 CMakeFiles/example1.dir/D_/pico/pico-sdk/src/rp2_common/pico_float/float_math.c.obj
 .text.__wrap_exp10f
                0x00000000       0x20 CMakeFiles/example1.dir/D_/pico/pico-sdk/src/rp2_common/pico_float/float_math.c.obj
 .text.__wrap_log10f
                0x00000000       0x14 CMakeFiles/example1.dir/D_/pico/pico-sdk/src/rp2_common/pico_float/float_math.c.obj
 .text.__wrap_expm1f
                0x00000000       0x1c CMakeFiles/example1.dir/D_/pico/pico-sdk/src/rp2_common/pico_float/float_math.c.obj
 .text.__wrap_log1pf
                0x00000000       0x1c CMakeFiles/example1.dir/D_/pico/pico-sdk/src/rp2_common/pico_float/float_math.c.obj
 .text.__wrap_fmaf
                0x00000000       0x3c CMakeFiles/example1.dir/D_/pico/pico-sdk/src/rp2_common/pico_float/float_math.c.obj
 .text.__wrap_powintf
                0x00000000       0xa0 CMakeFiles/example1.dir/D_/pico/pico-sdk/src/rp2_common/pico_float/float_math.c.obj
 .text.__wrap_powf
                0x00000000      0x20c CMakeFiles/example1.dir/D_/pico/pico-sdk/src/rp2_common/pico_float/float_math.c.obj
 .text.__wrap_hypotf
                0x00000000      0x18a CMakeFiles/example1.dir/D_/pico/pico-sdk/src/rp2_common/pico_float/float_math.c.obj
 .text.__wrap_cbrtf
                0x00000000       0xc4 CMakeFiles/example1.dir/D_/pico/pico-sdk/src/rp2_common/pico_float/float_math.c.obj
 .text.__wrap_fmodf
                0x00000000       0x62 CMakeFiles/example1.dir/D_/pico/pico-sdk/src/rp2_common/pico_float/float_math.c.obj
 .text.__wrap_remquof
                0x00000000       0xda CMakeFiles/example1.dir/D_/pico/pico-sdk/src/rp2_common/pico_float/float_math.c.obj
 .text.__wrap_dremf
                0x00000000        0xa CMakeFiles/example1.dir/D_/pico/pico-sdk/src/rp2_common/pico_float/float_math.c.obj
 .text.__wrap_remainderf
                0x00000000        0xa CMakeFiles/example1.dir/D_/pico/pico-sdk/src/rp2_common/pico_float/float_math.c.obj
 .debug_info    0x00000000     0x5033 CMakeFiles/example1.dir/D_/pico/pico-sdk/src/rp2_common/pico_float/float_math.c.obj
 .debug_abbrev  0x00000000      0x2bb CMakeFiles/example1.dir/D_/pico/pico-sdk/src/rp2_common/pico_float/float_math.c.obj
 .debug_loc     0x00000000     0x6167 CMakeFiles/example1.dir/D_/pico/pico-sdk/src/rp2_common/pico_float/float_math.c.obj
 .debug_aranges
                0x00000000      0x128 CMakeFiles/example1.dir/D_/pico/pico-sdk/src/rp2_common/pico_float/float_math.c.obj
 .debug_ranges  0x00000000      0x568 CMakeFiles/example1.dir/D_/pico/pico-sdk/src/rp2_common/pico_float/float_math.c.obj
 .debug_line    0x00000000     0x2789 CMakeFiles/example1.dir/D_/pico/pico-sdk/src/rp2_common/pico_float/float_math.c.obj
 .debug_str     0x00000000      0x529 CMakeFiles/example1.dir/D_/pico/pico-sdk/src/rp2_common/pico_float/float_math.c.obj
 .comment       0x00000000       0x4a CMakeFiles/example1.dir/D_/pico/pico-sdk/src/rp2_common/pico_float/float_math.c.obj
 .debug_frame   0x00000000      0x3a4 CMakeFiles/example1.dir/D_/pico/pico-sdk/src/rp2_common/pico_float/float_math.c.obj
 .ARM.attributes
                0x00000000       0x2c CMakeFiles/example1.dir/D_/pico/pico-sdk/src/rp2_common/pico_float/float_math.c.obj
 .text          0x00000000        0x0 CMakeFiles/example1.dir/D_/pico/pico-sdk/src/rp2_common/pico_float/float_v1_rom_shim.S.obj
 .data          0x00000000        0x0 CMakeFiles/example1.dir/D_/pico/pico-sdk/src/rp2_common/pico_float/float_v1_rom_shim.S.obj
 .bss           0x00000000        0x0 CMakeFiles/example1.dir/D_/pico/pico-sdk/src/rp2_common/pico_float/float_v1_rom_shim.S.obj
 .text.642float_shims
                0x00000000       0x44 CMakeFiles/example1.dir/D_/pico/pico-sdk/src/rp2_common/pico_float/float_v1_rom_shim.S.obj
 .text.fatan2_shim
                0x00000000       0x88 CMakeFiles/example1.dir/D_/pico/pico-sdk/src/rp2_common/pico_float/float_v1_rom_shim.S.obj
 .text.float232_shims
                0x00000000       0x18 CMakeFiles/example1.dir/D_/pico/pico-sdk/src/rp2_common/pico_float/float_v1_rom_shim.S.obj
 .text.float264_shims
                0x00000000       0x4c CMakeFiles/example1.dir/D_/pico/pico-sdk/src/rp2_common/pico_float/float_v1_rom_shim.S.obj
 .text.d2fix_a_float
                0x00000000       0x5c CMakeFiles/example1.dir/D_/pico/pico-sdk/src/rp2_common/pico_float/float_v1_rom_shim.S.obj
 .text.float2double_shim
                0x00000000       0x30 CMakeFiles/example1.dir/D_/pico/pico-sdk/src/rp2_common/pico_float/float_v1_rom_shim.S.obj
 .text          0x00000000        0x0 CMakeFiles/example1.dir/D_/pico/pico-sdk/src/rp2_common/pico_malloc/pico_malloc.c.obj
 .data          0x00000000        0x0 CMakeFiles/example1.dir/D_/pico/pico-sdk/src/rp2_common/pico_malloc/pico_malloc.c.obj
 .bss           0x00000000        0x0 CMakeFiles/example1.dir/D_/pico/pico-sdk/src/rp2_common/pico_malloc/pico_malloc.c.obj
 .rodata.__wrap_malloc.str1.4
                0x00000000        0xe CMakeFiles/example1.dir/D_/pico/pico-sdk/src/rp2_common/pico_malloc/pico_malloc.c.obj
 .text.__wrap_malloc
                0x00000000       0x3c CMakeFiles/example1.dir/D_/pico/pico-sdk/src/rp2_common/pico_malloc/pico_malloc.c.obj
 .text.__wrap_calloc
                0x00000000       0x40 CMakeFiles/example1.dir/D_/pico/pico-sdk/src/rp2_common/pico_malloc/pico_malloc.c.obj
 .text.__wrap_realloc
                0x00000000       0x40 CMakeFiles/example1.dir/D_/pico/pico-sdk/src/rp2_common/pico_malloc/pico_malloc.c.obj
 .text.__wrap_free
                0x00000000       0x20 CMakeFiles/example1.dir/D_/pico/pico-sdk/src/rp2_common/pico_malloc/pico_malloc.c.obj
 .data          0x00000000        0x0 CMakeFiles/example1.dir/D_/pico/pico-sdk/src/rp2_common/pico_mem_ops/mem_ops_aeabi.S.obj
 .bss           0x00000000        0x0 CMakeFiles/example1.dir/D_/pico/pico-sdk/src/rp2_common/pico_mem_ops/mem_ops_aeabi.S.obj
 .text.aeabi_memset_memcpy
                0x00000000       0x24 CMakeFiles/example1.dir/D_/pico/pico-sdk/src/rp2_common/pico_mem_ops/mem_ops_aeabi.S.obj
 .text          0x00000000        0x0 CMakeFiles/example1.dir/D_/pico/pico-sdk/src/rp2_common/pico_standard_link/crt0.S.obj
 .data          0x00000000        0x0 CMakeFiles/example1.dir/D_/pico/pico-sdk/src/rp2_common/pico_standard_link/crt0.S.obj
 .bss           0x00000000        0x0 CMakeFiles/example1.dir/D_/pico/pico-sdk/src/rp2_common/pico_standard_link/crt0.S.obj
 .text          0x00000000        0x0 CMakeFiles/example1.dir/D_/pico/pico-sdk/src/rp2_common/pico_standard_link/new_delete.cpp.obj
 .data          0x00000000        0x0 CMakeFiles/example1.dir/D_/pico/pico-sdk/src/rp2_common/pico_standard_link/new_delete.cpp.obj
 .bss           0x00000000        0x0 CMakeFiles/example1.dir/D_/pico/pico-sdk/src/rp2_common/pico_standard_link/new_delete.cpp.obj
 .text._Znwj    0x00000000        0x8 CMakeFiles/example1.dir/D_/pico/pico-sdk/src/rp2_common/pico_standard_link/new_delete.cpp.obj
 .text._Znaj    0x00000000        0x8 CMakeFiles/example1.dir/D_/pico/pico-sdk/src/rp2_common/pico_standard_link/new_delete.cpp.obj
 .text._ZdlPv   0x00000000        0x8 CMakeFiles/example1.dir/D_/pico/pico-sdk/src/rp2_common/pico_standard_link/new_delete.cpp.obj
 .text._ZdaPv   0x00000000        0x8 CMakeFiles/example1.dir/D_/pico/pico-sdk/src/rp2_common/pico_standard_link/new_delete.cpp.obj
 .text._ZdlPvj  0x00000000        0x8 CMakeFiles/example1.dir/D_/pico/pico-sdk/src/rp2_common/pico_standard_link/new_delete.cpp.obj
 .text._ZdaPvj  0x00000000        0x8 CMakeFiles/example1.dir/D_/pico/pico-sdk/src/rp2_common/pico_standard_link/new_delete.cpp.obj
 .debug_info    0x00000000      0x7a0 CMakeFiles/example1.dir/D_/pico/pico-sdk/src/rp2_common/pico_standard_link/new_delete.cpp.obj
 .debug_abbrev  0x00000000      0x1eb CMakeFiles/example1.dir/D_/pico/pico-sdk/src/rp2_common/pico_standard_link/new_delete.cpp.obj
 .debug_loc     0x00000000      0x128 CMakeFiles/example1.dir/D_/pico/pico-sdk/src/rp2_common/pico_standard_link/new_delete.cpp.obj
 .debug_aranges
                0x00000000       0x48 CMakeFiles/example1.dir/D_/pico/pico-sdk/src/rp2_common/pico_standard_link/new_delete.cpp.obj
 .debug_ranges  0x00000000       0x38 CMakeFiles/example1.dir/D_/pico/pico-sdk/src/rp2_common/pico_standard_link/new_delete.cpp.obj
 .debug_line    0x00000000      0x25a CMakeFiles/example1.dir/D_/pico/pico-sdk/src/rp2_common/pico_standard_link/new_delete.cpp.obj
 .debug_str     0x00000000      0x396 CMakeFiles/example1.dir/D_/pico/pico-sdk/src/rp2_common/pico_standard_link/new_delete.cpp.obj
 .comment       0x00000000       0x4a CMakeFiles/example1.dir/D_/pico/pico-sdk/src/rp2_common/pico_standard_link/new_delete.cpp.obj
 .debug_frame   0x00000000       0xa0 CMakeFiles/example1.dir/D_/pico/pico-sdk/src/rp2_common/pico_standard_link/new_delete.cpp.obj
 .ARM.attributes
                0x00000000       0x2c CMakeFiles/example1.dir/D_/pico/pico-sdk/src/rp2_common/pico_standard_link/new_delete.cpp.obj
 .text          0x00000000        0x0 CMakeFiles/example1.dir/D_/pico/pico-sdk/src/rp2_common/pico_standard_link/binary_info.c.obj
 .data          0x00000000        0x0 CMakeFiles/example1.dir/D_/pico/pico-sdk/src/rp2_common/pico_standard_link/binary_info.c.obj
 .bss           0x00000000        0x0 CMakeFiles/example1.dir/D_/pico/pico-sdk/src/rp2_common/pico_standard_link/binary_info.c.obj
 .text          0x00000000        0x0 CMakeFiles/example1.dir/D_/pico/pico-sdk/src/rp2_common/pico_stdio/stdio.c.obj
 .data          0x00000000        0x0 CMakeFiles/example1.dir/D_/pico/pico-sdk/src/rp2_common/pico_stdio/stdio.c.obj
 .bss           0x00000000        0x0 CMakeFiles/example1.dir/D_/pico/pico-sdk/src/rp2_common/pico_stdio/stdio.c.obj
 .text.stdio_get_until
                0x00000000       0x80 CMakeFiles/example1.dir/D_/pico/pico-sdk/src/rp2_common/pico_stdio/stdio.c.obj
 .text.__wrap_putchar
                0x00000000       0x1c CMakeFiles/example1.dir/D_/pico/pico-sdk/src/rp2_common/pico_stdio/stdio.c.obj
 .text.putchar_raw
                0x00000000       0x1c CMakeFiles/example1.dir/D_/pico/pico-sdk/src/rp2_common/pico_stdio/stdio.c.obj
 .text._read    0x00000000       0x24 CMakeFiles/example1.dir/D_/pico/pico-sdk/src/rp2_common/pico_stdio/stdio.c.obj
 .text._write   0x00000000       0x22 CMakeFiles/example1.dir/D_/pico/pico-sdk/src/rp2_common/pico_stdio/stdio.c.obj
 .text.puts_raw
                0x00000000       0x1e CMakeFiles/example1.dir/D_/pico/pico-sdk/src/rp2_common/pico_stdio/stdio.c.obj
 .rodata.__wrap_getchar.str1.4
                0x00000000       0x3f CMakeFiles/example1.dir/D_/pico/pico-sdk/src/rp2_common/pico_stdio/stdio.c.obj
 .text.__wrap_getchar
                0x00000000       0x40 CMakeFiles/example1.dir/D_/pico/pico-sdk/src/rp2_common/pico_stdio/stdio.c.obj
 .rodata.getchar_timeout_us.str1.4
                0x00000000       0x5b CMakeFiles/example1.dir/D_/pico/pico-sdk/src/rp2_common/pico_stdio/stdio.c.obj
 .text.getchar_timeout_us
                0x00000000       0x80 CMakeFiles/example1.dir/D_/pico/pico-sdk/src/rp2_common/pico_stdio/stdio.c.obj
 .text.stdio_filter_driver
                0x00000000        0xc CMakeFiles/example1.dir/D_/pico/pico-sdk/src/rp2_common/pico_stdio/stdio.c.obj
 .text.stdio_set_translate_crlf
                0x00000000       0x10 CMakeFiles/example1.dir/D_/pico/pico-sdk/src/rp2_common/pico_stdio/stdio.c.obj
 .rodata.__func__.0
                0x00000000       0x15 CMakeFiles/example1.dir/D_/pico/pico-sdk/src/rp2_common/pico_stdio/stdio.c.obj
 .rodata.__func__.1
                0x00000000       0x13 CMakeFiles/example1.dir/D_/pico/pico-sdk/src/rp2_common/pico_stdio/stdio.c.obj
 .rodata.__func__.2
                0x00000000        0xf CMakeFiles/example1.dir/D_/pico/pico-sdk/src/rp2_common/pico_stdio/stdio.c.obj
 .text          0x00000000        0x0 CMakeFiles/example1.dir/D_/pico/pico-sdk/src/rp2_common/pico_stdio_usb/reset_interface.c.obj
 .data          0x00000000        0x0 CMakeFiles/example1.dir/D_/pico/pico-sdk/src/rp2_common/pico_stdio_usb/reset_interface.c.obj
 .bss           0x00000000        0x0 CMakeFiles/example1.dir/D_/pico/pico-sdk/src/rp2_common/pico_stdio_usb/reset_interface.c.obj
 .text          0x00000000        0x0 CMakeFiles/example1.dir/D_/pico/pico-sdk/src/rp2_common/pico_stdio_usb/stdio_usb.c.obj
 .data          0x00000000        0x0 CMakeFiles/example1.dir/D_/pico/pico-sdk/src/rp2_common/pico_stdio_usb/stdio_usb.c.obj
 .bss           0x00000000        0x0 CMakeFiles/example1.dir/D_/pico/pico-sdk/src/rp2_common/pico_stdio_usb/stdio_usb.c.obj
 .text.stdio_usb_connected
                0x00000000        0xa CMakeFiles/example1.dir/D_/pico/pico-sdk/src/rp2_common/pico_stdio_usb/stdio_usb.c.obj
 .text          0x00000000        0x0 CMakeFiles/example1.dir/D_/pico/pico-sdk/src/rp2_common/pico_stdio_usb/stdio_usb_descriptors.c.obj
 .data          0x00000000        0x0 CMakeFiles/example1.dir/D_/pico/pico-sdk/src/rp2_common/pico_stdio_usb/stdio_usb_descriptors.c.obj
 .bss           0x00000000        0x0 CMakeFiles/example1.dir/D_/pico/pico-sdk/src/rp2_common/pico_stdio_usb/stdio_usb_descriptors.c.obj
 .text          0x00000000        0x0 CMakeFiles/example1.dir/D_/pico/pico-sdk/lib/tinyusb/src/portable/raspberrypi/rp2040/dcd_rp2040.c.obj
 .data          0x00000000        0x0 CMakeFiles/example1.dir/D_/pico/pico-sdk/lib/tinyusb/src/portable/raspberrypi/rp2040/dcd_rp2040.c.obj
 .bss           0x00000000        0x0 CMakeFiles/example1.dir/D_/pico/pico-sdk/lib/tinyusb/src/portable/raspberrypi/rp2040/dcd_rp2040.c.obj
 .text.dcd_int_disable
                0x00000000       0x2c CMakeFiles/example1.dir/D_/pico/pico-sdk/lib/tinyusb/src/portable/raspberrypi/rp2040/dcd_rp2040.c.obj
 .text.dcd_remote_wakeup
                0x00000000       0x30 CMakeFiles/example1.dir/D_/pico/pico-sdk/lib/tinyusb/src/portable/raspberrypi/rp2040/dcd_rp2040.c.obj
 .text.dcd_disconnect
                0x00000000       0x10 CMakeFiles/example1.dir/D_/pico/pico-sdk/lib/tinyusb/src/portable/raspberrypi/rp2040/dcd_rp2040.c.obj
 .text.dcd_edpt_close
                0x00000000        0x2 CMakeFiles/example1.dir/D_/pico/pico-sdk/lib/tinyusb/src/portable/raspberrypi/rp2040/dcd_rp2040.c.obj
 .text.dcd_int_handler
                0x00000000        0x8 CMakeFiles/example1.dir/D_/pico/pico-sdk/lib/tinyusb/src/portable/raspberrypi/rp2040/dcd_rp2040.c.obj
 .rodata.__func__.2
                0x00000000       0x12 CMakeFiles/example1.dir/D_/pico/pico-sdk/lib/tinyusb/src/portable/raspberrypi/rp2040/dcd_rp2040.c.obj
 .rodata.__func__.4
                0x00000000       0x10 CMakeFiles/example1.dir/D_/pico/pico-sdk/lib/tinyusb/src/portable/raspberrypi/rp2040/dcd_rp2040.c.obj
 .text          0x00000000        0x0 CMakeFiles/example1.dir/D_/pico/pico-sdk/lib/tinyusb/src/portable/raspberrypi/rp2040/rp2040_usb.c.obj
 .data          0x00000000        0x0 CMakeFiles/example1.dir/D_/pico/pico-sdk/lib/tinyusb/src/portable/raspberrypi/rp2040/rp2040_usb.c.obj
 .bss           0x00000000        0x0 CMakeFiles/example1.dir/D_/pico/pico-sdk/lib/tinyusb/src/portable/raspberrypi/rp2040/rp2040_usb.c.obj
 .text          0x00000000        0x0 CMakeFiles/example1.dir/D_/pico/pico-sdk/lib/tinyusb/src/device/usbd.c.obj
 .data          0x00000000        0x0 CMakeFiles/example1.dir/D_/pico/pico-sdk/lib/tinyusb/src/device/usbd.c.obj
 .bss           0x00000000        0x0 CMakeFiles/example1.dir/D_/pico/pico-sdk/lib/tinyusb/src/device/usbd.c.obj
 .text.tud_speed_get
                0x00000000        0xc CMakeFiles/example1.dir/D_/pico/pico-sdk/lib/tinyusb/src/device/usbd.c.obj
 .text.tud_connected
                0x00000000       0x10 CMakeFiles/example1.dir/D_/pico/pico-sdk/lib/tinyusb/src/device/usbd.c.obj
 .text.tud_remote_wakeup
                0x00000000       0x2c CMakeFiles/example1.dir/D_/pico/pico-sdk/lib/tinyusb/src/device/usbd.c.obj
 .text.tud_disconnect
                0x00000000       0x1c CMakeFiles/example1.dir/D_/pico/pico-sdk/lib/tinyusb/src/device/usbd.c.obj
 .text.tud_connect
                0x00000000       0x1c CMakeFiles/example1.dir/D_/pico/pico-sdk/lib/tinyusb/src/device/usbd.c.obj
 .text.tud_task_event_ready
                0x00000000       0x20 CMakeFiles/example1.dir/D_/pico/pico-sdk/lib/tinyusb/src/device/usbd.c.obj
 .text.usbd_defer_func
                0x00000000       0x2a CMakeFiles/example1.dir/D_/pico/pico-sdk/lib/tinyusb/src/device/usbd.c.obj
 .text.usbd_edpt_xfer_fifo
                0x00000000       0x80 CMakeFiles/example1.dir/D_/pico/pico-sdk/lib/tinyusb/src/device/usbd.c.obj
 .text.usbd_edpt_busy
                0x00000000       0x1c CMakeFiles/example1.dir/D_/pico/pico-sdk/lib/tinyusb/src/device/usbd.c.obj
 .text.usbd_edpt_close
                0x00000000       0x58 CMakeFiles/example1.dir/D_/pico/pico-sdk/lib/tinyusb/src/device/usbd.c.obj
 .rodata.__func__.0
                0x00000000       0x10 CMakeFiles/example1.dir/D_/pico/pico-sdk/lib/tinyusb/src/device/usbd.c.obj
 .rodata.__func__.1
                0x00000000       0x14 CMakeFiles/example1.dir/D_/pico/pico-sdk/lib/tinyusb/src/device/usbd.c.obj
 .text          0x00000000        0x0 CMakeFiles/example1.dir/D_/pico/pico-sdk/lib/tinyusb/src/device/usbd_control.c.obj
 .data          0x00000000        0x0 CMakeFiles/example1.dir/D_/pico/pico-sdk/lib/tinyusb/src/device/usbd_control.c.obj
 .bss           0x00000000        0x0 CMakeFiles/example1.dir/D_/pico/pico-sdk/lib/tinyusb/src/device/usbd_control.c.obj
 .text          0x00000000        0x0 CMakeFiles/example1.dir/D_/pico/pico-sdk/lib/tinyusb/src/class/audio/audio_device.c.obj
 .data          0x00000000        0x0 CMakeFiles/example1.dir/D_/pico/pico-sdk/lib/tinyusb/src/class/audio/audio_device.c.obj
 .bss           0x00000000        0x0 CMakeFiles/example1.dir/D_/pico/pico-sdk/lib/tinyusb/src/class/audio/audio_device.c.obj
 .debug_info    0x00000000       0x6b CMakeFiles/example1.dir/D_/pico/pico-sdk/lib/tinyusb/src/class/audio/audio_device.c.obj
 .debug_abbrev  0x00000000       0x26 CMakeFiles/example1.dir/D_/pico/pico-sdk/lib/tinyusb/src/class/audio/audio_device.c.obj
 .debug_aranges
                0x00000000       0x18 CMakeFiles/example1.dir/D_/pico/pico-sdk/lib/tinyusb/src/class/audio/audio_device.c.obj
 .debug_line    0x00000000       0x1d CMakeFiles/example1.dir/D_/pico/pico-sdk/lib/tinyusb/src/class/audio/audio_device.c.obj
 .debug_str     0x00000000      0x191 CMakeFiles/example1.dir/D_/pico/pico-sdk/lib/tinyusb/src/class/audio/audio_device.c.obj
 .comment       0x00000000       0x4a CMakeFiles/example1.dir/D_/pico/pico-sdk/lib/tinyusb/src/class/audio/audio_device.c.obj
 .ARM.attributes
                0x00000000       0x2c CMakeFiles/example1.dir/D_/pico/pico-sdk/lib/tinyusb/src/class/audio/audio_device.c.obj
 .text          0x00000000        0x0 CMakeFiles/example1.dir/D_/pico/pico-sdk/lib/tinyusb/src/class/cdc/cdc_device.c.obj
 .data          0x00000000        0x0 CMakeFiles/example1.dir/D_/pico/pico-sdk/lib/tinyusb/src/class/cdc/cdc_device.c.obj
 .bss           0x00000000        0x0 CMakeFiles/example1.dir/D_/pico/pico-sdk/lib/tinyusb/src/class/cdc/cdc_device.c.obj
 .text.tud_cdc_n_get_line_state
                0x00000000       0x14 CMakeFiles/example1.dir/D_/pico/pico-sdk/lib/tinyusb/src/class/cdc/cdc_device.c.obj
 .text.tud_cdc_n_get_line_coding
                0x00000000       0x20 CMakeFiles/example1.dir/D_/pico/pico-sdk/lib/tinyusb/src/class/cdc/cdc_device.c.obj
 .text.tud_cdc_n_set_wanted_char
                0x00000000       0x14 CMakeFiles/example1.dir/D_/pico/pico-sdk/lib/tinyusb/src/class/cdc/cdc_device.c.obj
 .text.tud_cdc_n_peek
                0x00000000       0x18 CMakeFiles/example1.dir/D_/pico/pico-sdk/lib/tinyusb/src/class/cdc/cdc_device.c.obj
 .text.tud_cdc_n_read_flush
                0x00000000       0x20 CMakeFiles/example1.dir/D_/pico/pico-sdk/lib/tinyusb/src/class/cdc/cdc_device.c.obj
 .text.tud_cdc_n_write_clear
                0x00000000       0x1c CMakeFiles/example1.dir/D_/pico/pico-sdk/lib/tinyusb/src/class/cdc/cdc_device.c.obj
 .text          0x00000000        0x0 CMakeFiles/example1.dir/D_/pico/pico-sdk/lib/tinyusb/src/class/dfu/dfu_device.c.obj
 .data          0x00000000        0x0 CMakeFiles/example1.dir/D_/pico/pico-sdk/lib/tinyusb/src/class/dfu/dfu_device.c.obj
 .bss           0x00000000        0x0 CMakeFiles/example1.dir/D_/pico/pico-sdk/lib/tinyusb/src/class/dfu/dfu_device.c.obj
 .debug_info    0x00000000       0x6b CMakeFiles/example1.dir/D_/pico/pico-sdk/lib/tinyusb/src/class/dfu/dfu_device.c.obj
 .debug_abbrev  0x00000000       0x26 CMakeFiles/example1.dir/D_/pico/pico-sdk/lib/tinyusb/src/class/dfu/dfu_device.c.obj
 .debug_aranges
                0x00000000       0x18 CMakeFiles/example1.dir/D_/pico/pico-sdk/lib/tinyusb/src/class/dfu/dfu_device.c.obj
 .debug_line    0x00000000       0x1d CMakeFiles/example1.dir/D_/pico/pico-sdk/lib/tinyusb/src/class/dfu/dfu_device.c.obj
 .debug_str     0x00000000      0x18d CMakeFiles/example1.dir/D_/pico/pico-sdk/lib/tinyusb/src/class/dfu/dfu_device.c.obj
 .comment       0x00000000       0x4a CMakeFiles/example1.dir/D_/pico/pico-sdk/lib/tinyusb/src/class/dfu/dfu_device.c.obj
 .ARM.attributes
                0x00000000       0x2c CMakeFiles/example1.dir/D_/pico/pico-sdk/lib/tinyusb/src/class/dfu/dfu_device.c.obj
 .text          0x00000000        0x0 CMakeFiles/example1.dir/D_/pico/pico-sdk/lib/tinyusb/src/class/dfu/dfu_rt_device.c.obj
 .data          0x00000000        0x0 CMakeFiles/example1.dir/D_/pico/pico-sdk/lib/tinyusb/src/class/dfu/dfu_rt_device.c.obj
 .bss           0x00000000        0x0 CMakeFiles/example1.dir/D_/pico/pico-sdk/lib/tinyusb/src/class/dfu/dfu_rt_device.c.obj
 .debug_info    0x00000000       0x6b CMakeFiles/example1.dir/D_/pico/pico-sdk/lib/tinyusb/src/class/dfu/dfu_rt_device.c.obj
 .debug_abbrev  0x00000000       0x26 CMakeFiles/example1.dir/D_/pico/pico-sdk/lib/tinyusb/src/class/dfu/dfu_rt_device.c.obj
 .debug_aranges
                0x00000000       0x18 CMakeFiles/example1.dir/D_/pico/pico-sdk/lib/tinyusb/src/class/dfu/dfu_rt_device.c.obj
 .debug_line    0x00000000       0x1d CMakeFiles/example1.dir/D_/pico/pico-sdk/lib/tinyusb/src/class/dfu/dfu_rt_device.c.obj
 .debug_str     0x00000000      0x190 CMakeFiles/example1.dir/D_/pico/pico-sdk/lib/tinyusb/src/class/dfu/dfu_rt_device.c.obj
 .comment       0x00000000       0x4a CMakeFiles/example1.dir/D_/pico/pico-sdk/lib/tinyusb/src/class/dfu/dfu_rt_device.c.obj
 .ARM.attributes
                0x00000000       0x2c CMakeFiles/example1.dir/D_/pico/pico-sdk/lib/tinyusb/src/class/dfu/dfu_rt_device.c.obj
 .text          0x00000000        0x0 CMakeFiles/example1.dir/D_/pico/pico-sdk/lib/tinyusb/src/class/hid/hid_device.c.obj
 .data          0x00000000        0x0 CMakeFiles/example1.dir/D_/pico/pico-sdk/lib/tinyusb/src/class/hid/hid_device.c.obj
 .bss           0x00000000        0x0 CMakeFiles/example1.dir/D_/pico/pico-sdk/lib/tinyusb/src/class/hid/hid_device.c.obj
 .debug_info    0x00000000       0x6b CMakeFiles/example1.dir/D_/pico/pico-sdk/lib/tinyusb/src/class/hid/hid_device.c.obj
 .debug_abbrev  0x00000000       0x26 CMakeFiles/example1.dir/D_/pico/pico-sdk/lib/tinyusb/src/class/hid/hid_device.c.obj
 .debug_aranges
                0x00000000       0x18 CMakeFiles/example1.dir/D_/pico/pico-sdk/lib/tinyusb/src/class/hid/hid_device.c.obj
 .debug_line    0x00000000       0x1d CMakeFiles/example1.dir/D_/pico/pico-sdk/lib/tinyusb/src/class/hid/hid_device.c.obj
 .debug_str     0x00000000      0x18d CMakeFiles/example1.dir/D_/pico/pico-sdk/lib/tinyusb/src/class/hid/hid_device.c.obj
 .comment       0x00000000       0x4a CMakeFiles/example1.dir/D_/pico/pico-sdk/lib/tinyusb/src/class/hid/hid_device.c.obj
 .ARM.attributes
                0x00000000       0x2c CMakeFiles/example1.dir/D_/pico/pico-sdk/lib/tinyusb/src/class/hid/hid_device.c.obj
 .text          0x00000000        0x0 CMakeFiles/example1.dir/D_/pico/pico-sdk/lib/tinyusb/src/class/midi/midi_device.c.obj
 .data          0x00000000        0x0 CMakeFiles/example1.dir/D_/pico/pico-sdk/lib/tinyusb/src/class/midi/midi_device.c.obj
 .bss           0x00000000        0x0 CMakeFiles/example1.dir/D_/pico/pico-sdk/lib/tinyusb/src/class/midi/midi_device.c.obj
 .debug_info    0x00000000       0x6b CMakeFiles/example1.dir/D_/pico/pico-sdk/lib/tinyusb/src/class/midi/midi_device.c.obj
 .debug_abbrev  0x00000000       0x26 CMakeFiles/example1.dir/D_/pico/pico-sdk/lib/tinyusb/src/class/midi/midi_device.c.obj
 .debug_aranges
                0x00000000       0x18 CMakeFiles/example1.dir/D_/pico/pico-sdk/lib/tinyusb/src/class/midi/midi_device.c.obj
 .debug_line    0x00000000       0x1d CMakeFiles/example1.dir/D_/pico/pico-sdk/lib/tinyusb/src/class/midi/midi_device.c.obj
 .debug_str     0x00000000      0x18f CMakeFiles/example1.dir/D_/pico/pico-sdk/lib/tinyusb/src/class/midi/midi_device.c.obj
 .comment       0x00000000       0x4a CMakeFiles/example1.dir/D_/pico/pico-sdk/lib/tinyusb/src/class/midi/midi_device.c.obj
 .ARM.attributes
                0x00000000       0x2c CMakeFiles/example1.dir/D_/pico/pico-sdk/lib/tinyusb/src/class/midi/midi_device.c.obj
 .text          0x00000000        0x0 CMakeFiles/example1.dir/D_/pico/pico-sdk/lib/tinyusb/src/class/msc/msc_device.c.obj
 .data          0x00000000        0x0 CMakeFiles/example1.dir/D_/pico/pico-sdk/lib/tinyusb/src/class/msc/msc_device.c.obj
 .bss           0x00000000        0x0 CMakeFiles/example1.dir/D_/pico/pico-sdk/lib/tinyusb/src/class/msc/msc_device.c.obj
 .debug_info    0x00000000       0x6b CMakeFiles/example1.dir/D_/pico/pico-sdk/lib/tinyusb/src/class/msc/msc_device.c.obj
 .debug_abbrev  0x00000000       0x26 CMakeFiles/example1.dir/D_/pico/pico-sdk/lib/tinyusb/src/class/msc/msc_device.c.obj
 .debug_aranges
                0x00000000       0x18 CMakeFiles/example1.dir/D_/pico/pico-sdk/lib/tinyusb/src/class/msc/msc_device.c.obj
 .debug_line    0x00000000       0x1d CMakeFiles/example1.dir/D_/pico/pico-sdk/lib/tinyusb/src/class/msc/msc_device.c.obj
 .debug_str     0x00000000      0x18d CMakeFiles/example1.dir/D_/pico/pico-sdk/lib/tinyusb/src/class/msc/msc_device.c.obj
 .comment       0x00000000       0x4a CMakeFiles/example1.dir/D_/pico/pico-sdk/lib/tinyusb/src/class/msc/msc_device.c.obj
 .ARM.attributes
                0x00000000       0x2c CMakeFiles/example1.dir/D_/pico/pico-sdk/lib/tinyusb/src/class/msc/msc_device.c.obj
 .text          0x00000000        0x0 CMakeFiles/example1.dir/D_/pico/pico-sdk/lib/tinyusb/src/class/net/ecm_rndis_device.c.obj
 .data          0x00000000        0x0 CMakeFiles/example1.dir/D_/pico/pico-sdk/lib/tinyusb/src/class/net/ecm_rndis_device.c.obj
 .bss           0x00000000        0x0 CMakeFiles/example1.dir/D_/pico/pico-sdk/lib/tinyusb/src/class/net/ecm_rndis_device.c.obj
 .debug_info    0x00000000       0x6b CMakeFiles/example1.dir/D_/pico/pico-sdk/lib/tinyusb/src/class/net/ecm_rndis_device.c.obj
 .debug_abbrev  0x00000000       0x26 CMakeFiles/example1.dir/D_/pico/pico-sdk/lib/tinyusb/src/class/net/ecm_rndis_device.c.obj
 .debug_aranges
                0x00000000       0x18 CMakeFiles/example1.dir/D_/pico/pico-sdk/lib/tinyusb/src/class/net/ecm_rndis_device.c.obj
 .debug_line    0x00000000       0x1d CMakeFiles/example1.dir/D_/pico/pico-sdk/lib/tinyusb/src/class/net/ecm_rndis_device.c.obj
 .debug_str     0x00000000      0x193 CMakeFiles/example1.dir/D_/pico/pico-sdk/lib/tinyusb/src/class/net/ecm_rndis_device.c.obj
 .comment       0x00000000       0x4a CMakeFiles/example1.dir/D_/pico/pico-sdk/lib/tinyusb/src/class/net/ecm_rndis_device.c.obj
 .ARM.attributes
                0x00000000       0x2c CMakeFiles/example1.dir/D_/pico/pico-sdk/lib/tinyusb/src/class/net/ecm_rndis_device.c.obj
 .text          0x00000000        0x0 CMakeFiles/example1.dir/D_/pico/pico-sdk/lib/tinyusb/src/class/net/ncm_device.c.obj
 .data          0x00000000        0x0 CMakeFiles/example1.dir/D_/pico/pico-sdk/lib/tinyusb/src/class/net/ncm_device.c.obj
 .bss           0x00000000        0x0 CMakeFiles/example1.dir/D_/pico/pico-sdk/lib/tinyusb/src/class/net/ncm_device.c.obj
 .debug_info    0x00000000       0x6b CMakeFiles/example1.dir/D_/pico/pico-sdk/lib/tinyusb/src/class/net/ncm_device.c.obj
 .debug_abbrev  0x00000000       0x26 CMakeFiles/example1.dir/D_/pico/pico-sdk/lib/tinyusb/src/class/net/ncm_device.c.obj
 .debug_aranges
                0x00000000       0x18 CMakeFiles/example1.dir/D_/pico/pico-sdk/lib/tinyusb/src/class/net/ncm_device.c.obj
 .debug_line    0x00000000       0x1d CMakeFiles/example1.dir/D_/pico/pico-sdk/lib/tinyusb/src/class/net/ncm_device.c.obj
 .debug_str     0x00000000      0x18d CMakeFiles/example1.dir/D_/pico/pico-sdk/lib/tinyusb/src/class/net/ncm_device.c.obj
 .comment       0x00000000       0x4a CMakeFiles/example1.dir/D_/pico/pico-sdk/lib/tinyusb/src/class/net/ncm_device.c.obj
 .ARM.attributes
                0x00000000       0x2c CMakeFiles/example1.dir/D_/pico/pico-sdk/lib/tinyusb/src/class/net/ncm_device.c.obj
 .text          0x00000000        0x0 CMakeFiles/example1.dir/D_/pico/pico-sdk/lib/tinyusb/src/class/usbtmc/usbtmc_device.c.obj
 .data          0x00000000        0x0 CMakeFiles/example1.dir/D_/pico/pico-sdk/lib/tinyusb/src/class/usbtmc/usbtmc_device.c.obj
 .bss           0x00000000        0x0 CMakeFiles/example1.dir/D_/pico/pico-sdk/lib/tinyusb/src/class/usbtmc/usbtmc_device.c.obj
 .debug_info    0x00000000       0x6b CMakeFiles/example1.dir/D_/pico/pico-sdk/lib/tinyusb/src/class/usbtmc/usbtmc_device.c.obj
 .debug_abbrev  0x00000000       0x26 CMakeFiles/example1.dir/D_/pico/pico-sdk/lib/tinyusb/src/class/usbtmc/usbtmc_device.c.obj
 .debug_aranges
                0x00000000       0x18 CMakeFiles/example1.dir/D_/pico/pico-sdk/lib/tinyusb/src/class/usbtmc/usbtmc_device.c.obj
 .debug_line    0x00000000       0x1d CMakeFiles/example1.dir/D_/pico/pico-sdk/lib/tinyusb/src/class/usbtmc/usbtmc_device.c.obj
 .debug_str     0x00000000      0x193 CMakeFiles/example1.dir/D_/pico/pico-sdk/lib/tinyusb/src/class/usbtmc/usbtmc_device.c.obj
 .comment       0x00000000       0x4a CMakeFiles/example1.dir/D_/pico/pico-sdk/lib/tinyusb/src/class/usbtmc/usbtmc_device.c.obj
 .ARM.attributes
                0x00000000       0x2c CMakeFiles/example1.dir/D_/pico/pico-sdk/lib/tinyusb/src/class/usbtmc/usbtmc_device.c.obj
 .text          0x00000000        0x0 CMakeFiles/example1.dir/D_/pico/pico-sdk/lib/tinyusb/src/class/vendor/vendor_device.c.obj
 .data          0x00000000        0x0 CMakeFiles/example1.dir/D_/pico/pico-sdk/lib/tinyusb/src/class/vendor/vendor_device.c.obj
 .bss           0x00000000        0x0 CMakeFiles/example1.dir/D_/pico/pico-sdk/lib/tinyusb/src/class/vendor/vendor_device.c.obj
 .debug_info    0x00000000       0x6b CMakeFiles/example1.dir/D_/pico/pico-sdk/lib/tinyusb/src/class/vendor/vendor_device.c.obj
 .debug_abbrev  0x00000000       0x26 CMakeFiles/example1.dir/D_/pico/pico-sdk/lib/tinyusb/src/class/vendor/vendor_device.c.obj
 .debug_aranges
                0x00000000       0x18 CMakeFiles/example1.dir/D_/pico/pico-sdk/lib/tinyusb/src/class/vendor/vendor_device.c.obj
 .debug_line    0x00000000       0x1d CMakeFiles/example1.dir/D_/pico/pico-sdk/lib/tinyusb/src/class/vendor/vendor_device.c.obj
 .debug_str     0x00000000      0x193 CMakeFiles/example1.dir/D_/pico/pico-sdk/lib/tinyusb/src/class/vendor/vendor_device.c.obj
 .comment       0x00000000       0x4a CMakeFiles/example1.dir/D_/pico/pico-sdk/lib/tinyusb/src/class/vendor/vendor_device.c.obj
 .ARM.attributes
                0x00000000       0x2c CMakeFiles/example1.dir/D_/pico/pico-sdk/lib/tinyusb/src/class/vendor/vendor_device.c.obj
 .text          0x00000000        0x0 CMakeFiles/example1.dir/D_/pico/pico-sdk/lib/tinyusb/src/class/video/video_device.c.obj
 .data          0x00000000        0x0 CMakeFiles/example1.dir/D_/pico/pico-sdk/lib/tinyusb/src/class/video/video_device.c.obj
 .bss           0x00000000        0x0 CMakeFiles/example1.dir/D_/pico/pico-sdk/lib/tinyusb/src/class/video/video_device.c.obj
 .debug_info    0x00000000       0x6b CMakeFiles/example1.dir/D_/pico/pico-sdk/lib/tinyusb/src/class/video/video_device.c.obj
 .debug_abbrev  0x00000000       0x26 CMakeFiles/example1.dir/D_/pico/pico-sdk/lib/tinyusb/src/class/video/video_device.c.obj
 .debug_aranges
                0x00000000       0x18 CMakeFiles/example1.dir/D_/pico/pico-sdk/lib/tinyusb/src/class/video/video_device.c.obj
 .debug_line    0x00000000       0x1d CMakeFiles/example1.dir/D_/pico/pico-sdk/lib/tinyusb/src/class/video/video_device.c.obj
 .debug_str     0x00000000      0x191 CMakeFiles/example1.dir/D_/pico/pico-sdk/lib/tinyusb/src/class/video/video_device.c.obj
 .comment       0x00000000       0x4a CMakeFiles/example1.dir/D_/pico/pico-sdk/lib/tinyusb/src/class/video/video_device.c.obj
 .ARM.attributes
                0x00000000       0x2c CMakeFiles/example1.dir/D_/pico/pico-sdk/lib/tinyusb/src/class/video/video_device.c.obj
 .text          0x00000000        0x0 CMakeFiles/example1.dir/D_/pico/pico-sdk/lib/tinyusb/src/tusb.c.obj
 .data          0x00000000        0x0 CMakeFiles/example1.dir/D_/pico/pico-sdk/lib/tinyusb/src/tusb.c.obj
 .bss           0x00000000        0x0 CMakeFiles/example1.dir/D_/pico/pico-sdk/lib/tinyusb/src/tusb.c.obj
 .rodata.dump_str_line.str1.4
                0x00000000        0x7 CMakeFiles/example1.dir/D_/pico/pico-sdk/lib/tinyusb/src/tusb.c.obj
 .text.dump_str_line
                0x00000000       0x40 CMakeFiles/example1.dir/D_/pico/pico-sdk/lib/tinyusb/src/tusb.c.obj
 .text.tu_desc_get_interface_total_len
                0x00000000       0x3e CMakeFiles/example1.dir/D_/pico/pico-sdk/lib/tinyusb/src/tusb.c.obj
 .rodata.tu_print_mem.str1.4
                0x00000000       0x15 CMakeFiles/example1.dir/D_/pico/pico-sdk/lib/tinyusb/src/tusb.c.obj
 .text.tu_print_mem
                0x00000000       0xe0 CMakeFiles/example1.dir/D_/pico/pico-sdk/lib/tinyusb/src/tusb.c.obj
 .rodata.str1.4
                0x00000000      0x132 CMakeFiles/example1.dir/D_/pico/pico-sdk/lib/tinyusb/src/tusb.c.obj
 .rodata.tusb_strerr
                0x00000000       0x2c CMakeFiles/example1.dir/D_/pico/pico-sdk/lib/tinyusb/src/tusb.c.obj
 .text          0x00000000        0x0 CMakeFiles/example1.dir/D_/pico/pico-sdk/lib/tinyusb/src/common/tusb_fifo.c.obj
 .data          0x00000000        0x0 CMakeFiles/example1.dir/D_/pico/pico-sdk/lib/tinyusb/src/common/tusb_fifo.c.obj
 .bss           0x00000000        0x0 CMakeFiles/example1.dir/D_/pico/pico-sdk/lib/tinyusb/src/common/tusb_fifo.c.obj
 .text.tu_fifo_full
                0x00000000       0x24 CMakeFiles/example1.dir/D_/pico/pico-sdk/lib/tinyusb/src/common/tusb_fifo.c.obj
 .text.tu_fifo_overflowed
                0x00000000       0x22 CMakeFiles/example1.dir/D_/pico/pico-sdk/lib/tinyusb/src/common/tusb_fifo.c.obj
 .text.tu_fifo_correct_read_pointer
                0x00000000       0x2c CMakeFiles/example1.dir/D_/pico/pico-sdk/lib/tinyusb/src/common/tusb_fifo.c.obj
 .text.tu_fifo_read_n_const_addr_full_words
                0x00000000        0xa CMakeFiles/example1.dir/D_/pico/pico-sdk/lib/tinyusb/src/common/tusb_fifo.c.obj
 .text.tu_fifo_peek
                0x00000000       0x34 CMakeFiles/example1.dir/D_/pico/pico-sdk/lib/tinyusb/src/common/tusb_fifo.c.obj
 .text.tu_fifo_peek_n
                0x00000000       0x44 CMakeFiles/example1.dir/D_/pico/pico-sdk/lib/tinyusb/src/common/tusb_fifo.c.obj
 .text.tu_fifo_write_n_const_addr_full_words
                0x00000000        0xa CMakeFiles/example1.dir/D_/pico/pico-sdk/lib/tinyusb/src/common/tusb_fifo.c.obj
 .text.tu_fifo_advance_write_pointer
                0x00000000       0x12 CMakeFiles/example1.dir/D_/pico/pico-sdk/lib/tinyusb/src/common/tusb_fifo.c.obj
 .text.tu_fifo_advance_read_pointer
                0x00000000       0x12 CMakeFiles/example1.dir/D_/pico/pico-sdk/lib/tinyusb/src/common/tusb_fifo.c.obj
 .text.tu_fifo_get_read_info
                0x00000000       0x9e CMakeFiles/example1.dir/D_/pico/pico-sdk/lib/tinyusb/src/common/tusb_fifo.c.obj
 .text.tu_fifo_get_write_info
                0x00000000       0x7a CMakeFiles/example1.dir/D_/pico/pico-sdk/lib/tinyusb/src/common/tusb_fifo.c.obj
 .text          0x00000000        0x0 CMakeFiles/example1.dir/D_/pico/pico-sdk/src/rp2_common/pico_fix/rp2040_usb_device_enumeration/rp2040_usb_device_enumeration.c.obj
 .data          0x00000000        0x0 CMakeFiles/example1.dir/D_/pico/pico-sdk/src/rp2_common/pico_fix/rp2040_usb_device_enumeration/rp2040_usb_device_enumeration.c.obj
 .bss           0x00000000        0x0 CMakeFiles/example1.dir/D_/pico/pico-sdk/src/rp2_common/pico_fix/rp2040_usb_device_enumeration/rp2040_usb_device_enumeration.c.obj
 .text.hw_enumeration_fix_finish
                0x00000000       0x40 CMakeFiles/example1.dir/D_/pico/pico-sdk/src/rp2_common/pico_fix/rp2040_usb_device_enumeration/rp2040_usb_device_enumeration.c.obj
 .text.hw_enumeration_fix_force_ls_j_done
                0x00000000        0xc CMakeFiles/example1.dir/D_/pico/pico-sdk/src/rp2_common/pico_fix/rp2040_usb_device_enumeration/rp2040_usb_device_enumeration.c.obj
 .rodata.hw_enumeration_fix_force_ls_j.str1.4
                0x00000000       0xf3 CMakeFiles/example1.dir/D_/pico/pico-sdk/src/rp2_common/pico_fix/rp2040_usb_device_enumeration/rp2040_usb_device_enumeration.c.obj
 .text.hw_enumeration_fix_force_ls_j
                0x00000000      0x130 CMakeFiles/example1.dir/D_/pico/pico-sdk/src/rp2_common/pico_fix/rp2040_usb_device_enumeration/rp2040_usb_device_enumeration.c.obj
 .text.hw_enumeration_fix_wait_se0
                0x00000000       0x8c CMakeFiles/example1.dir/D_/pico/pico-sdk/src/rp2_common/pico_fix/rp2040_usb_device_enumeration/rp2040_usb_device_enumeration.c.obj
 .text.hw_enumeration_fix_wait_se0_callback
                0x00000000       0x24 CMakeFiles/example1.dir/D_/pico/pico-sdk/src/rp2_common/pico_fix/rp2040_usb_device_enumeration/rp2040_usb_device_enumeration.c.obj
 .text.rp2040_usb_device_enumeration_fix
                0x00000000       0x12 CMakeFiles/example1.dir/D_/pico/pico-sdk/src/rp2_common/pico_fix/rp2040_usb_device_enumeration/rp2040_usb_device_enumeration.c.obj
 .bss.gpio_ctrl_prev
                0x00000000        0x4 CMakeFiles/example1.dir/D_/pico/pico-sdk/src/rp2_common/pico_fix/rp2040_usb_device_enumeration/rp2040_usb_device_enumeration.c.obj
 .bss.pad_ctrl_prev
                0x00000000        0x4 CMakeFiles/example1.dir/D_/pico/pico-sdk/src/rp2_common/pico_fix/rp2040_usb_device_enumeration/rp2040_usb_device_enumeration.c.obj
 .rodata.__func__.0
                0x00000000       0x1e CMakeFiles/example1.dir/D_/pico/pico-sdk/src/rp2_common/pico_fix/rp2040_usb_device_enumeration/rp2040_usb_device_enumeration.c.obj
 .rodata.__func__.1
                0x00000000       0x15 CMakeFiles/example1.dir/D_/pico/pico-sdk/src/rp2_common/pico_fix/rp2040_usb_device_enumeration/rp2040_usb_device_enumeration.c.obj
 .debug_info    0x00000000      0xe4c CMakeFiles/example1.dir/D_/pico/pico-sdk/src/rp2_common/pico_fix/rp2040_usb_device_enumeration/rp2040_usb_device_enumeration.c.obj
 .debug_abbrev  0x00000000      0x3ca CMakeFiles/example1.dir/D_/pico/pico-sdk/src/rp2_common/pico_fix/rp2040_usb_device_enumeration/rp2040_usb_device_enumeration.c.obj
 .debug_loc     0x00000000      0x519 CMakeFiles/example1.dir/D_/pico/pico-sdk/src/rp2_common/pico_fix/rp2040_usb_device_enumeration/rp2040_usb_device_enumeration.c.obj
 .debug_aranges
                0x00000000       0x48 CMakeFiles/example1.dir/D_/pico/pico-sdk/src/rp2_common/pico_fix/rp2040_usb_device_enumeration/rp2040_usb_device_enumeration.c.obj
 .debug_ranges  0x00000000      0x158 CMakeFiles/example1.dir/D_/pico/pico-sdk/src/rp2_common/pico_fix/rp2040_usb_device_enumeration/rp2040_usb_device_enumeration.c.obj
 .debug_line    0x00000000      0x638 CMakeFiles/example1.dir/D_/pico/pico-sdk/src/rp2_common/pico_fix/rp2040_usb_device_enumeration/rp2040_usb_device_enumeration.c.obj
 .debug_str     0x00000000      0x767 CMakeFiles/example1.dir/D_/pico/pico-sdk/src/rp2_common/pico_fix/rp2040_usb_device_enumeration/rp2040_usb_device_enumeration.c.obj
 .comment       0x00000000       0x4a CMakeFiles/example1.dir/D_/pico/pico-sdk/src/rp2_common/pico_fix/rp2040_usb_device_enumeration/rp2040_usb_device_enumeration.c.obj
 .debug_frame   0x00000000       0xa8 CMakeFiles/example1.dir/D_/pico/pico-sdk/src/rp2_common/pico_fix/rp2040_usb_device_enumeration/rp2040_usb_device_enumeration.c.obj
 .ARM.attributes
                0x00000000       0x2c CMakeFiles/example1.dir/D_/pico/pico-sdk/src/rp2_common/pico_fix/rp2040_usb_device_enumeration/rp2040_usb_device_enumeration.c.obj
 .text          0x00000000        0x0 CMakeFiles/example1.dir/D_/pico/pico-sdk/src/rp2_common/pico_unique_id/unique_id.c.obj
 .data          0x00000000        0x0 CMakeFiles/example1.dir/D_/pico/pico-sdk/src/rp2_common/pico_unique_id/unique_id.c.obj
 .bss           0x00000000        0x0 CMakeFiles/example1.dir/D_/pico/pico-sdk/src/rp2_common/pico_unique_id/unique_id.c.obj
 .text.pico_get_unique_board_id
                0x00000000       0x10 CMakeFiles/example1.dir/D_/pico/pico-sdk/src/rp2_common/pico_unique_id/unique_id.c.obj
 .text          0x00000000        0x0 CMakeFiles/example1.dir/D_/pico/pico-sdk/src/rp2_common/hardware_flash/flash.c.obj
 .data          0x00000000        0x0 CMakeFiles/example1.dir/D_/pico/pico-sdk/src/rp2_common/hardware_flash/flash.c.obj
 .bss           0x00000000        0x0 CMakeFiles/example1.dir/D_/pico/pico-sdk/src/rp2_common/hardware_flash/flash.c.obj
 .time_critical.flash_range_erase
                0x00000000       0xb8 CMakeFiles/example1.dir/D_/pico/pico-sdk/src/rp2_common/hardware_flash/flash.c.obj
 .time_critical.flash_range_program
                0x00000000       0xb8 CMakeFiles/example1.dir/D_/pico/pico-sdk/src/rp2_common/hardware_flash/flash.c.obj
 .rodata.__func__.1
                0x00000000       0x14 CMakeFiles/example1.dir/D_/pico/pico-sdk/src/rp2_common/hardware_flash/flash.c.obj
 .rodata.__func__.2
                0x00000000       0x12 CMakeFiles/example1.dir/D_/pico/pico-sdk/src/rp2_common/hardware_flash/flash.c.obj
 .text          0x00000000        0x0 CMakeFiles/example1.dir/D_/pico/pico-FreeRTOS-SMP/Source/portable/ThirdParty/GCC/RP2040/port.c.obj
 .data          0x00000000        0x0 CMakeFiles/example1.dir/D_/pico/pico-FreeRTOS-SMP/Source/portable/ThirdParty/GCC/RP2040/port.c.obj
 .bss           0x00000000        0x0 CMakeFiles/example1.dir/D_/pico/pico-FreeRTOS-SMP/Source/portable/ThirdParty/GCC/RP2040/port.c.obj
 .text.vPortEndScheduler
                0x00000000        0x6 CMakeFiles/example1.dir/D_/pico/pico-FreeRTOS-SMP/Source/portable/ThirdParty/GCC/RP2040/port.c.obj
 .text.xPortSyncInternalYieldUntilBefore
                0x00000000       0x12 CMakeFiles/example1.dir/D_/pico/pico-FreeRTOS-SMP/Source/portable/ThirdParty/GCC/RP2040/port.c.obj
 .text          0x00000000        0x0 CMakeFiles/example1.dir/D_/pico/pico-FreeRTOS-SMP/Source/croutine.c.obj
 .data          0x00000000        0x0 CMakeFiles/example1.dir/D_/pico/pico-FreeRTOS-SMP/Source/croutine.c.obj
 .bss           0x00000000        0x0 CMakeFiles/example1.dir/D_/pico/pico-FreeRTOS-SMP/Source/croutine.c.obj
 .debug_info    0x00000000       0x72 CMakeFiles/example1.dir/D_/pico/pico-FreeRTOS-SMP/Source/croutine.c.obj
 .debug_abbrev  0x00000000       0x26 CMakeFiles/example1.dir/D_/pico/pico-FreeRTOS-SMP/Source/croutine.c.obj
 .debug_aranges
                0x00000000       0x18 CMakeFiles/example1.dir/D_/pico/pico-FreeRTOS-SMP/Source/croutine.c.obj
 .debug_line    0x00000000       0x1d CMakeFiles/example1.dir/D_/pico/pico-FreeRTOS-SMP/Source/croutine.c.obj
 .debug_str     0x00000000      0x186 CMakeFiles/example1.dir/D_/pico/pico-FreeRTOS-SMP/Source/croutine.c.obj
 .comment       0x00000000       0x4a CMakeFiles/example1.dir/D_/pico/pico-FreeRTOS-SMP/Source/croutine.c.obj
 .ARM.attributes
                0x00000000       0x2c CMakeFiles/example1.dir/D_/pico/pico-FreeRTOS-SMP/Source/croutine.c.obj
 .text          0x00000000        0x0 CMakeFiles/example1.dir/D_/pico/pico-FreeRTOS-SMP/Source/event_groups.c.obj
 .data          0x00000000        0x0 CMakeFiles/example1.dir/D_/pico/pico-FreeRTOS-SMP/Source/event_groups.c.obj
 .bss           0x00000000        0x0 CMakeFiles/example1.dir/D_/pico/pico-FreeRTOS-SMP/Source/event_groups.c.obj
 .rodata.xEventGroupClearBits.str1.4
                0x00000000       0x26 CMakeFiles/example1.dir/D_/pico/pico-FreeRTOS-SMP/Source/event_groups.c.obj
 .text.xEventGroupClearBits
                0x00000000       0x50 CMakeFiles/example1.dir/D_/pico/pico-FreeRTOS-SMP/Source/event_groups.c.obj
 .text.vEventGroupClearBitsCallback
                0x00000000        0x8 CMakeFiles/example1.dir/D_/pico/pico-FreeRTOS-SMP/Source/event_groups.c.obj
 .text.xEventGroupClearBitsFromISR
                0x00000000       0x14 CMakeFiles/example1.dir/D_/pico/pico-FreeRTOS-SMP/Source/event_groups.c.obj
 .text.xEventGroupGetBitsFromISR
                0x00000000       0x1c CMakeFiles/example1.dir/D_/pico/pico-FreeRTOS-SMP/Source/event_groups.c.obj
 .text.xEventGroupSync
                0x00000000       0xe8 CMakeFiles/example1.dir/D_/pico/pico-FreeRTOS-SMP/Source/event_groups.c.obj
 .rodata.vEventGroupDelete.str1.4
                0x00000000       0x66 CMakeFiles/example1.dir/D_/pico/pico-FreeRTOS-SMP/Source/event_groups.c.obj
 .text.vEventGroupDelete
                0x00000000       0x4c CMakeFiles/example1.dir/D_/pico/pico-FreeRTOS-SMP/Source/event_groups.c.obj
 .text.uxEventGroupGetNumber
                0x00000000        0xc CMakeFiles/example1.dir/D_/pico/pico-FreeRTOS-SMP/Source/event_groups.c.obj
 .text.vEventGroupSetNumber
                0x00000000        0x4 CMakeFiles/example1.dir/D_/pico/pico-FreeRTOS-SMP/Source/event_groups.c.obj
 .rodata.__func__.0
                0x00000000       0x12 CMakeFiles/example1.dir/D_/pico/pico-FreeRTOS-SMP/Source/event_groups.c.obj
 .rodata.__func__.2
                0x00000000       0x15 CMakeFiles/example1.dir/D_/pico/pico-FreeRTOS-SMP/Source/event_groups.c.obj
 .rodata.__func__.4
                0x00000000       0x10 CMakeFiles/example1.dir/D_/pico/pico-FreeRTOS-SMP/Source/event_groups.c.obj
 .text          0x00000000        0x0 CMakeFiles/example1.dir/D_/pico/pico-FreeRTOS-SMP/Source/list.c.obj
 .data          0x00000000        0x0 CMakeFiles/example1.dir/D_/pico/pico-FreeRTOS-SMP/Source/list.c.obj
 .bss           0x00000000        0x0 CMakeFiles/example1.dir/D_/pico/pico-FreeRTOS-SMP/Source/list.c.obj
 .text          0x00000000        0x0 CMakeFiles/example1.dir/D_/pico/pico-FreeRTOS-SMP/Source/queue.c.obj
 .data          0x00000000        0x0 CMakeFiles/example1.dir/D_/pico/pico-FreeRTOS-SMP/Source/queue.c.obj
 .bss           0x00000000        0x0 CMakeFiles/example1.dir/D_/pico/pico-FreeRTOS-SMP/Source/queue.c.obj
 .text.prvGetDisinheritPriorityAfterTimeout
                0x00000000       0x12 CMakeFiles/example1.dir/D_/pico/pico-FreeRTOS-SMP/Source/queue.c.obj
 .rodata.xQueueGetMutexHolder.str1.4
                0x00000000        0xb CMakeFiles/example1.dir/D_/pico/pico-FreeRTOS-SMP/Source/queue.c.obj
 .text.xQueueGetMutexHolder
                0x00000000       0x3c CMakeFiles/example1.dir/D_/pico/pico-FreeRTOS-SMP/Source/queue.c.obj
 .text.xQueueGetMutexHolderFromISR
                0x00000000       0x30 CMakeFiles/example1.dir/D_/pico/pico-FreeRTOS-SMP/Source/queue.c.obj
 .rodata.xQueueCreateCountingSemaphore.str1.4
                0x00000000       0x2d CMakeFiles/example1.dir/D_/pico/pico-FreeRTOS-SMP/Source/queue.c.obj
 .text.xQueueCreateCountingSemaphore
                0x00000000       0x4c CMakeFiles/example1.dir/D_/pico/pico-FreeRTOS-SMP/Source/queue.c.obj
 .text.prvInitialiseMutex
                0x00000000       0x18 CMakeFiles/example1.dir/D_/pico/pico-FreeRTOS-SMP/Source/queue.c.obj
 .text.xQueueCreateMutex
                0x00000000       0x16 CMakeFiles/example1.dir/D_/pico/pico-FreeRTOS-SMP/Source/queue.c.obj
 .rodata.xQueueGiveMutexRecursive.str1.4
                0x00000000        0x8 CMakeFiles/example1.dir/D_/pico/pico-FreeRTOS-SMP/Source/queue.c.obj
 .text.xQueueGiveMutexRecursive
                0x00000000       0x4c CMakeFiles/example1.dir/D_/pico/pico-FreeRTOS-SMP/Source/queue.c.obj
 .rodata.xQueueGiveFromISR.str1.4
                0x00000000       0x7d CMakeFiles/example1.dir/D_/pico/pico-FreeRTOS-SMP/Source/queue.c.obj
 .text.xQueueGiveFromISR
                0x00000000      0x100 CMakeFiles/example1.dir/D_/pico/pico-FreeRTOS-SMP/Source/queue.c.obj
 .rodata.xQueueSemaphoreTake.str1.4
                0x00000000       0x2d CMakeFiles/example1.dir/D_/pico/pico-FreeRTOS-SMP/Source/queue.c.obj
 .text.xQueueSemaphoreTake
                0x00000000      0x1a0 CMakeFiles/example1.dir/D_/pico/pico-FreeRTOS-SMP/Source/queue.c.obj
 .text.xQueueTakeMutexRecursive
                0x00000000       0x50 CMakeFiles/example1.dir/D_/pico/pico-FreeRTOS-SMP/Source/queue.c.obj
 .text.xQueuePeek
                0x00000000      0x150 CMakeFiles/example1.dir/D_/pico/pico-FreeRTOS-SMP/Source/queue.c.obj
 .rodata.xQueueReceiveFromISR.str1.4
                0x00000000       0x72 CMakeFiles/example1.dir/D_/pico/pico-FreeRTOS-SMP/Source/queue.c.obj
 .text.xQueueReceiveFromISR
                0x00000000       0xd8 CMakeFiles/example1.dir/D_/pico/pico-FreeRTOS-SMP/Source/queue.c.obj
 .rodata.xQueuePeekFromISR.str1.4
                0x00000000       0x19 CMakeFiles/example1.dir/D_/pico/pico-FreeRTOS-SMP/Source/queue.c.obj
 .text.xQueuePeekFromISR
                0x00000000       0x8c CMakeFiles/example1.dir/D_/pico/pico-FreeRTOS-SMP/Source/queue.c.obj
 .text.uxQueueMessagesWaiting
                0x00000000       0x30 CMakeFiles/example1.dir/D_/pico/pico-FreeRTOS-SMP/Source/queue.c.obj
 .text.uxQueueSpacesAvailable
                0x00000000       0x34 CMakeFiles/example1.dir/D_/pico/pico-FreeRTOS-SMP/Source/queue.c.obj
 .text.uxQueueMessagesWaitingFromISR
                0x00000000       0x28 CMakeFiles/example1.dir/D_/pico/pico-FreeRTOS-SMP/Source/queue.c.obj
 .text.uxQueueGetQueueNumber
                0x00000000        0x4 CMakeFiles/example1.dir/D_/pico/pico-FreeRTOS-SMP/Source/queue.c.obj
 .text.vQueueSetQueueNumber
                0x00000000        0x4 CMakeFiles/example1.dir/D_/pico/pico-FreeRTOS-SMP/Source/queue.c.obj
 .text.ucQueueGetQueueType
                0x00000000        0x6 CMakeFiles/example1.dir/D_/pico/pico-FreeRTOS-SMP/Source/queue.c.obj
 .text.xQueueIsQueueEmptyFromISR
                0x00000000       0x30 CMakeFiles/example1.dir/D_/pico/pico-FreeRTOS-SMP/Source/queue.c.obj
 .text.xQueueIsQueueFullFromISR
                0x00000000       0x34 CMakeFiles/example1.dir/D_/pico/pico-FreeRTOS-SMP/Source/queue.c.obj
 .text.pcQueueGetName
                0x00000000       0x48 CMakeFiles/example1.dir/D_/pico/pico-FreeRTOS-SMP/Source/queue.c.obj
 .text.vQueueUnregisterQueue
                0x00000000       0x4c CMakeFiles/example1.dir/D_/pico/pico-FreeRTOS-SMP/Source/queue.c.obj
 .text.vQueueDelete
                0x00000000       0x30 CMakeFiles/example1.dir/D_/pico/pico-FreeRTOS-SMP/Source/queue.c.obj
 .text.xQueueCreateSet
                0x00000000        0xc CMakeFiles/example1.dir/D_/pico/pico-FreeRTOS-SMP/Source/queue.c.obj
 .text.xQueueAddToSet
                0x00000000       0x2a CMakeFiles/example1.dir/D_/pico/pico-FreeRTOS-SMP/Source/queue.c.obj
 .text.xQueueRemoveFromSet
                0x00000000       0x28 CMakeFiles/example1.dir/D_/pico/pico-FreeRTOS-SMP/Source/queue.c.obj
 .text.xQueueSelectFromSet
                0x00000000       0x16 CMakeFiles/example1.dir/D_/pico/pico-FreeRTOS-SMP/Source/queue.c.obj
 .text.xQueueSelectFromSetFromISR
                0x00000000       0x16 CMakeFiles/example1.dir/D_/pico/pico-FreeRTOS-SMP/Source/queue.c.obj
 .rodata.__func__.0
                0x00000000       0x16 CMakeFiles/example1.dir/D_/pico/pico-FreeRTOS-SMP/Source/queue.c.obj
 .rodata.__func__.1
                0x00000000        0xf CMakeFiles/example1.dir/D_/pico/pico-FreeRTOS-SMP/Source/queue.c.obj
 .rodata.__func__.10
                0x00000000       0x15 CMakeFiles/example1.dir/D_/pico/pico-FreeRTOS-SMP/Source/queue.c.obj
 .rodata.__func__.11
                0x00000000        0xb CMakeFiles/example1.dir/D_/pico/pico-FreeRTOS-SMP/Source/queue.c.obj
 .rodata.__func__.12
                0x00000000       0x14 CMakeFiles/example1.dir/D_/pico/pico-FreeRTOS-SMP/Source/queue.c.obj
 .rodata.__func__.14
                0x00000000       0x12 CMakeFiles/example1.dir/D_/pico/pico-FreeRTOS-SMP/Source/queue.c.obj
 .rodata.__func__.18
                0x00000000       0x1e CMakeFiles/example1.dir/D_/pico/pico-FreeRTOS-SMP/Source/queue.c.obj
 .rodata.__func__.19
                0x00000000       0x19 CMakeFiles/example1.dir/D_/pico/pico-FreeRTOS-SMP/Source/queue.c.obj
 .rodata.__func__.20
                0x00000000       0x19 CMakeFiles/example1.dir/D_/pico/pico-FreeRTOS-SMP/Source/queue.c.obj
 .rodata.__func__.21
                0x00000000       0x1c CMakeFiles/example1.dir/D_/pico/pico-FreeRTOS-SMP/Source/queue.c.obj
 .rodata.__func__.22
                0x00000000       0x15 CMakeFiles/example1.dir/D_/pico/pico-FreeRTOS-SMP/Source/queue.c.obj
 .rodata.__func__.3
                0x00000000       0x19 CMakeFiles/example1.dir/D_/pico/pico-FreeRTOS-SMP/Source/queue.c.obj
 .rodata.__func__.4
                0x00000000       0x1a CMakeFiles/example1.dir/D_/pico/pico-FreeRTOS-SMP/Source/queue.c.obj
 .rodata.__func__.5
                0x00000000        0xd CMakeFiles/example1.dir/D_/pico/pico-FreeRTOS-SMP/Source/queue.c.obj
 .rodata.__func__.6
                0x00000000       0x1e CMakeFiles/example1.dir/D_/pico/pico-FreeRTOS-SMP/Source/queue.c.obj
 .rodata.__func__.7
                0x00000000       0x17 CMakeFiles/example1.dir/D_/pico/pico-FreeRTOS-SMP/Source/queue.c.obj
 .rodata.__func__.8
                0x00000000       0x17 CMakeFiles/example1.dir/D_/pico/pico-FreeRTOS-SMP/Source/queue.c.obj
 .rodata.__func__.9
                0x00000000       0x12 CMakeFiles/example1.dir/D_/pico/pico-FreeRTOS-SMP/Source/queue.c.obj
 .text          0x00000000        0x0 CMakeFiles/example1.dir/D_/pico/pico-FreeRTOS-SMP/Source/stream_buffer.c.obj
 .data          0x00000000        0x0 CMakeFiles/example1.dir/D_/pico/pico-FreeRTOS-SMP/Source/stream_buffer.c.obj
 .bss           0x00000000        0x0 CMakeFiles/example1.dir/D_/pico/pico-FreeRTOS-SMP/Source/stream_buffer.c.obj
 .text.prvBytesInBuffer
                0x00000000       0x12 CMakeFiles/example1.dir/D_/pico/pico-FreeRTOS-SMP/Source/stream_buffer.c.obj
 .rodata.prvInitialiseNewStreamBuffer.str1.4
                0x00000000       0x79 CMakeFiles/example1.dir/D_/pico/pico-FreeRTOS-SMP/Source/stream_buffer.c.obj
 .text.prvInitialiseNewStreamBuffer
                0x00000000       0x58 CMakeFiles/example1.dir/D_/pico/pico-FreeRTOS-SMP/Source/stream_buffer.c.obj
 .rodata.prvWriteBytesToBuffer.str1.4
                0x00000000       0x85 CMakeFiles/example1.dir/D_/pico/pico-FreeRTOS-SMP/Source/stream_buffer.c.obj
 .text.prvWriteBytesToBuffer
                0x00000000       0x9c CMakeFiles/example1.dir/D_/pico/pico-FreeRTOS-SMP/Source/stream_buffer.c.obj
 .text.prvWriteMessageToBuffer
                0x00000000       0x42 CMakeFiles/example1.dir/D_/pico/pico-FreeRTOS-SMP/Source/stream_buffer.c.obj
 .rodata.prvReadBytesFromBuffer.str1.4
                0x00000000       0x68 CMakeFiles/example1.dir/D_/pico/pico-FreeRTOS-SMP/Source/stream_buffer.c.obj
 .text.prvReadBytesFromBuffer
                0x00000000       0xb0 CMakeFiles/example1.dir/D_/pico/pico-FreeRTOS-SMP/Source/stream_buffer.c.obj
 .text.prvReadMessageFromBuffer
                0x00000000       0x4e CMakeFiles/example1.dir/D_/pico/pico-FreeRTOS-SMP/Source/stream_buffer.c.obj
 .rodata.xStreamBufferGenericCreate.str1.4
                0x00000000       0x67 CMakeFiles/example1.dir/D_/pico/pico-FreeRTOS-SMP/Source/stream_buffer.c.obj
 .text.xStreamBufferGenericCreate
                0x00000000       0x84 CMakeFiles/example1.dir/D_/pico/pico-FreeRTOS-SMP/Source/stream_buffer.c.obj
 .rodata.vStreamBufferDelete.str1.4
                0x00000000        0xf CMakeFiles/example1.dir/D_/pico/pico-FreeRTOS-SMP/Source/stream_buffer.c.obj
 .text.vStreamBufferDelete
                0x00000000       0x38 CMakeFiles/example1.dir/D_/pico/pico-FreeRTOS-SMP/Source/stream_buffer.c.obj
 .text.xStreamBufferReset
                0x00000000       0x5c CMakeFiles/example1.dir/D_/pico/pico-FreeRTOS-SMP/Source/stream_buffer.c.obj
 .text.xStreamBufferSetTriggerLevel
                0x00000000       0x38 CMakeFiles/example1.dir/D_/pico/pico-FreeRTOS-SMP/Source/stream_buffer.c.obj
 .text.xStreamBufferSpacesAvailable
                0x00000000       0x34 CMakeFiles/example1.dir/D_/pico/pico-FreeRTOS-SMP/Source/stream_buffer.c.obj
 .text.xStreamBufferBytesAvailable
                0x00000000       0x28 CMakeFiles/example1.dir/D_/pico/pico-FreeRTOS-SMP/Source/stream_buffer.c.obj
 .rodata.xStreamBufferSend.str1.4
                0x00000000       0x62 CMakeFiles/example1.dir/D_/pico/pico-FreeRTOS-SMP/Source/stream_buffer.c.obj
 .text.xStreamBufferSend
                0x00000000      0x144 CMakeFiles/example1.dir/D_/pico/pico-FreeRTOS-SMP/Source/stream_buffer.c.obj
 .text.xStreamBufferSendFromISR
                0x00000000       0xac CMakeFiles/example1.dir/D_/pico/pico-FreeRTOS-SMP/Source/stream_buffer.c.obj
 .rodata.xStreamBufferReceive.str1.4
                0x00000000       0x41 CMakeFiles/example1.dir/D_/pico/pico-FreeRTOS-SMP/Source/stream_buffer.c.obj
 .text.xStreamBufferReceive
                0x00000000      0x100 CMakeFiles/example1.dir/D_/pico/pico-FreeRTOS-SMP/Source/stream_buffer.c.obj
 .rodata.xStreamBufferNextMessageLengthBytes.str1.4
                0x00000000       0x15 CMakeFiles/example1.dir/D_/pico/pico-FreeRTOS-SMP/Source/stream_buffer.c.obj
 .text.xStreamBufferNextMessageLengthBytes
                0x00000000       0x64 CMakeFiles/example1.dir/D_/pico/pico-FreeRTOS-SMP/Source/stream_buffer.c.obj
 .text.xStreamBufferReceiveFromISR
                0x00000000       0xa4 CMakeFiles/example1.dir/D_/pico/pico-FreeRTOS-SMP/Source/stream_buffer.c.obj
 .text.xStreamBufferIsEmpty
                0x00000000       0x30 CMakeFiles/example1.dir/D_/pico/pico-FreeRTOS-SMP/Source/stream_buffer.c.obj
 .text.xStreamBufferIsFull
                0x00000000       0x3c CMakeFiles/example1.dir/D_/pico/pico-FreeRTOS-SMP/Source/stream_buffer.c.obj
 .text.xStreamBufferSendCompletedFromISR
                0x00000000       0x60 CMakeFiles/example1.dir/D_/pico/pico-FreeRTOS-SMP/Source/stream_buffer.c.obj
 .text.xStreamBufferReceiveCompletedFromISR
                0x00000000       0x60 CMakeFiles/example1.dir/D_/pico/pico-FreeRTOS-SMP/Source/stream_buffer.c.obj
 .text.uxStreamBufferGetStreamBufferNumber
                0x00000000        0x4 CMakeFiles/example1.dir/D_/pico/pico-FreeRTOS-SMP/Source/stream_buffer.c.obj
 .text.vStreamBufferSetStreamBufferNumber
                0x00000000        0x4 CMakeFiles/example1.dir/D_/pico/pico-FreeRTOS-SMP/Source/stream_buffer.c.obj
 .text.ucStreamBufferGetStreamBufferType
                0x00000000        0x8 CMakeFiles/example1.dir/D_/pico/pico-FreeRTOS-SMP/Source/stream_buffer.c.obj
 .rodata.__func__.0
                0x00000000       0x25 CMakeFiles/example1.dir/D_/pico/pico-FreeRTOS-SMP/Source/stream_buffer.c.obj
 .rodata.__func__.1
                0x00000000       0x22 CMakeFiles/example1.dir/D_/pico/pico-FreeRTOS-SMP/Source/stream_buffer.c.obj
 .rodata.__func__.10
                0x00000000       0x12 CMakeFiles/example1.dir/D_/pico/pico-FreeRTOS-SMP/Source/stream_buffer.c.obj
 .rodata.__func__.11
                0x00000000       0x1c CMakeFiles/example1.dir/D_/pico/pico-FreeRTOS-SMP/Source/stream_buffer.c.obj
 .rodata.__func__.12
                0x00000000       0x1d CMakeFiles/example1.dir/D_/pico/pico-FreeRTOS-SMP/Source/stream_buffer.c.obj
 .rodata.__func__.13
                0x00000000       0x1d CMakeFiles/example1.dir/D_/pico/pico-FreeRTOS-SMP/Source/stream_buffer.c.obj
 .rodata.__func__.14
                0x00000000       0x13 CMakeFiles/example1.dir/D_/pico/pico-FreeRTOS-SMP/Source/stream_buffer.c.obj
 .rodata.__func__.15
                0x00000000       0x14 CMakeFiles/example1.dir/D_/pico/pico-FreeRTOS-SMP/Source/stream_buffer.c.obj
 .rodata.__func__.16
                0x00000000       0x1d CMakeFiles/example1.dir/D_/pico/pico-FreeRTOS-SMP/Source/stream_buffer.c.obj
 .rodata.__func__.17
                0x00000000       0x1b CMakeFiles/example1.dir/D_/pico/pico-FreeRTOS-SMP/Source/stream_buffer.c.obj
 .rodata.__func__.2
                0x00000000       0x14 CMakeFiles/example1.dir/D_/pico/pico-FreeRTOS-SMP/Source/stream_buffer.c.obj
 .rodata.__func__.3
                0x00000000       0x15 CMakeFiles/example1.dir/D_/pico/pico-FreeRTOS-SMP/Source/stream_buffer.c.obj
 .rodata.__func__.4
                0x00000000       0x1c CMakeFiles/example1.dir/D_/pico/pico-FreeRTOS-SMP/Source/stream_buffer.c.obj
 .rodata.__func__.5
                0x00000000       0x24 CMakeFiles/example1.dir/D_/pico/pico-FreeRTOS-SMP/Source/stream_buffer.c.obj
 .rodata.__func__.6
                0x00000000       0x17 CMakeFiles/example1.dir/D_/pico/pico-FreeRTOS-SMP/Source/stream_buffer.c.obj
 .rodata.__func__.7
                0x00000000       0x15 CMakeFiles/example1.dir/D_/pico/pico-FreeRTOS-SMP/Source/stream_buffer.c.obj
 .rodata.__func__.8
                0x00000000       0x19 CMakeFiles/example1.dir/D_/pico/pico-FreeRTOS-SMP/Source/stream_buffer.c.obj
 .rodata.__func__.9
                0x00000000       0x16 CMakeFiles/example1.dir/D_/pico/pico-FreeRTOS-SMP/Source/stream_buffer.c.obj
 .debug_info    0x00000000     0x1e58 CMakeFiles/example1.dir/D_/pico/pico-FreeRTOS-SMP/Source/stream_buffer.c.obj
 .debug_abbrev  0x00000000      0x24d CMakeFiles/example1.dir/D_/pico/pico-FreeRTOS-SMP/Source/stream_buffer.c.obj
 .debug_loc     0x00000000     0x2476 CMakeFiles/example1.dir/D_/pico/pico-FreeRTOS-SMP/Source/stream_buffer.c.obj
 .debug_aranges
                0x00000000       0xd8 CMakeFiles/example1.dir/D_/pico/pico-FreeRTOS-SMP/Source/stream_buffer.c.obj
 .debug_ranges  0x00000000       0xe0 CMakeFiles/example1.dir/D_/pico/pico-FreeRTOS-SMP/Source/stream_buffer.c.obj
 .debug_line    0x00000000      0xe6a CMakeFiles/example1.dir/D_/pico/pico-FreeRTOS-SMP/Source/stream_buffer.c.obj
 .debug_str     0x00000000      0x8f2 CMakeFiles/example1.dir/D_/pico/pico-FreeRTOS-SMP/Source/stream_buffer.c.obj
 .comment       0x00000000       0x4a CMakeFiles/example1.dir/D_/pico/pico-FreeRTOS-SMP/Source/stream_buffer.c.obj
 .debug_frame   0x00000000      0x2bc CMakeFiles/example1.dir/D_/pico/pico-FreeRTOS-SMP/Source/stream_buffer.c.obj
 .ARM.attributes
                0x00000000       0x2c CMakeFiles/example1.dir/D_/pico/pico-FreeRTOS-SMP/Source/stream_buffer.c.obj
 .text          0x00000000        0x0 CMakeFiles/example1.dir/D_/pico/pico-FreeRTOS-SMP/Source/tasks.c.obj
 .data          0x00000000        0x0 CMakeFiles/example1.dir/D_/pico/pico-FreeRTOS-SMP/Source/tasks.c.obj
 .bss           0x00000000        0x0 CMakeFiles/example1.dir/D_/pico/pico-FreeRTOS-SMP/Source/tasks.c.obj
 .text.prvSearchForNameWithinSingleList
                0x00000000       0x64 CMakeFiles/example1.dir/D_/pico/pico-FreeRTOS-SMP/Source/tasks.c.obj
 .text.prvTaskCheckFreeStackSpace
                0x00000000       0x12 CMakeFiles/example1.dir/D_/pico/pico-FreeRTOS-SMP/Source/tasks.c.obj
 .text.prvTaskIsTaskSuspended
                0x00000000       0x50 CMakeFiles/example1.dir/D_/pico/pico-FreeRTOS-SMP/Source/tasks.c.obj
 .text.vTaskEndScheduler
                0x00000000       0x18 CMakeFiles/example1.dir/D_/pico/pico-FreeRTOS-SMP/Source/tasks.c.obj
 .text.xTaskGetTickCountFromISR
                0x00000000        0xc CMakeFiles/example1.dir/D_/pico/pico-FreeRTOS-SMP/Source/tasks.c.obj
 .text.uxTaskGetNumberOfTasks
                0x00000000        0xc CMakeFiles/example1.dir/D_/pico/pico-FreeRTOS-SMP/Source/tasks.c.obj
 .text.xTaskGetIdleTaskHandle
                0x00000000        0x8 CMakeFiles/example1.dir/D_/pico/pico-FreeRTOS-SMP/Source/tasks.c.obj
 .text.uxTaskGetTaskNumber
                0x00000000        0xc CMakeFiles/example1.dir/D_/pico/pico-FreeRTOS-SMP/Source/tasks.c.obj
 .text.vTaskSetTaskNumber
                0x00000000        0x8 CMakeFiles/example1.dir/D_/pico/pico-FreeRTOS-SMP/Source/tasks.c.obj
 .rodata.pcTaskGetName.str1.4
                0x00000000        0x6 CMakeFiles/example1.dir/D_/pico/pico-FreeRTOS-SMP/Source/tasks.c.obj
 .text.pcTaskGetName
                0x00000000       0x30 CMakeFiles/example1.dir/D_/pico/pico-FreeRTOS-SMP/Source/tasks.c.obj
 .rodata.vTaskSetThreadLocalStoragePointer.str1.4
                0x00000000       0x15 CMakeFiles/example1.dir/D_/pico/pico-FreeRTOS-SMP/Source/tasks.c.obj
 .text.vTaskSetThreadLocalStoragePointer
                0x00000000       0x3c CMakeFiles/example1.dir/D_/pico/pico-FreeRTOS-SMP/Source/tasks.c.obj
 .text.pvTaskGetThreadLocalStoragePointer
                0x00000000       0x1e CMakeFiles/example1.dir/D_/pico/pico-FreeRTOS-SMP/Source/tasks.c.obj
 .text.uxTaskGetStackHighWaterMark
                0x00000000       0x14 CMakeFiles/example1.dir/D_/pico/pico-FreeRTOS-SMP/Source/tasks.c.obj
 .text.xTaskGetCurrentTaskHandleCPU
                0x00000000       0x14 CMakeFiles/example1.dir/D_/pico/pico-FreeRTOS-SMP/Source/tasks.c.obj
 .text.xTaskPriorityInherit
                0x00000000       0x94 CMakeFiles/example1.dir/D_/pico/pico-FreeRTOS-SMP/Source/tasks.c.obj
 .rodata.vTaskPriorityDisinheritAfterTimeout.str1.4
                0x00000000       0x25 CMakeFiles/example1.dir/D_/pico/pico-FreeRTOS-SMP/Source/tasks.c.obj
 .text.vTaskPriorityDisinheritAfterTimeout
                0x00000000       0xa8 CMakeFiles/example1.dir/D_/pico/pico-FreeRTOS-SMP/Source/tasks.c.obj
 .rodata.vTaskDelete.str1.4
                0x00000000       0x1a CMakeFiles/example1.dir/D_/pico/pico-FreeRTOS-SMP/Source/tasks.c.obj
 .text.vTaskDelete
                0x00000000       0xb0 CMakeFiles/example1.dir/D_/pico/pico-FreeRTOS-SMP/Source/tasks.c.obj
 .text.eTaskGetState
                0x00000000       0xa8 CMakeFiles/example1.dir/D_/pico/pico-FreeRTOS-SMP/Source/tasks.c.obj
 .text.uxTaskPriorityGet
                0x00000000       0x1e CMakeFiles/example1.dir/D_/pico/pico-FreeRTOS-SMP/Source/tasks.c.obj
 .text.uxTaskPriorityGetFromISR
                0x00000000       0x28 CMakeFiles/example1.dir/D_/pico/pico-FreeRTOS-SMP/Source/tasks.c.obj
 .rodata.vTaskPrioritySet.str1.4
                0x00000000       0x17 CMakeFiles/example1.dir/D_/pico/pico-FreeRTOS-SMP/Source/tasks.c.obj
 .text.vTaskPrioritySet
                0x00000000       0xe8 CMakeFiles/example1.dir/D_/pico/pico-FreeRTOS-SMP/Source/tasks.c.obj
 .rodata.vTaskSuspend.str1.4
                0x00000000       0x2d CMakeFiles/example1.dir/D_/pico/pico-FreeRTOS-SMP/Source/tasks.c.obj
 .text.vTaskSuspend
                0x00000000      0x10c CMakeFiles/example1.dir/D_/pico/pico-FreeRTOS-SMP/Source/tasks.c.obj
 .rodata.vTaskResume.str1.4
                0x00000000        0xe CMakeFiles/example1.dir/D_/pico/pico-FreeRTOS-SMP/Source/tasks.c.obj
 .text.vTaskResume
                0x00000000       0x70 CMakeFiles/example1.dir/D_/pico/pico-FreeRTOS-SMP/Source/tasks.c.obj
 .text.xTaskResumeFromISR
                0x00000000       0xa4 CMakeFiles/example1.dir/D_/pico/pico-FreeRTOS-SMP/Source/tasks.c.obj
 .text.xTaskDelayUntil
                0x00000000       0xb4 CMakeFiles/example1.dir/D_/pico/pico-FreeRTOS-SMP/Source/tasks.c.obj
 .rodata.xTaskGetHandle.str1.4
                0x00000000       0x1d CMakeFiles/example1.dir/D_/pico/pico-FreeRTOS-SMP/Source/tasks.c.obj
 .text.xTaskGetHandle
                0x00000000       0xa8 CMakeFiles/example1.dir/D_/pico/pico-FreeRTOS-SMP/Source/tasks.c.obj
 .text.xTaskCatchUpTicks
                0x00000000       0x44 CMakeFiles/example1.dir/D_/pico/pico-FreeRTOS-SMP/Source/tasks.c.obj
 .text.vTaskGetInfo
                0x00000000       0x80 CMakeFiles/example1.dir/D_/pico/pico-FreeRTOS-SMP/Source/tasks.c.obj
 .text.prvListTasksWithinSingleList
                0x00000000       0x6e CMakeFiles/example1.dir/D_/pico/pico-FreeRTOS-SMP/Source/tasks.c.obj
 .text.uxTaskGetSystemState
                0x00000000       0xb0 CMakeFiles/example1.dir/D_/pico/pico-FreeRTOS-SMP/Source/tasks.c.obj
 .text.xTaskAbortDelay
                0x00000000       0x98 CMakeFiles/example1.dir/D_/pico/pico-FreeRTOS-SMP/Source/tasks.c.obj
 .text.vTaskSetTimeOutState
                0x00000000       0x40 CMakeFiles/example1.dir/D_/pico/pico-FreeRTOS-SMP/Source/tasks.c.obj
 .text.pvTaskIncrementMutexHeldCount
                0x00000000       0x1a CMakeFiles/example1.dir/D_/pico/pico-FreeRTOS-SMP/Source/tasks.c.obj
 .rodata.ulTaskGenericNotifyTake.str1.4
                0x00000000       0x12 CMakeFiles/example1.dir/D_/pico/pico-FreeRTOS-SMP/Source/tasks.c.obj
 .text.ulTaskGenericNotifyTake
                0x00000000       0xb0 CMakeFiles/example1.dir/D_/pico/pico-FreeRTOS-SMP/Source/tasks.c.obj
 .text.xTaskGenericNotifyWait
                0x00000000       0xc4 CMakeFiles/example1.dir/D_/pico/pico-FreeRTOS-SMP/Source/tasks.c.obj
 .rodata.xTaskGenericNotify.str1.4
                0x00000000       0x83 CMakeFiles/example1.dir/D_/pico/pico-FreeRTOS-SMP/Source/tasks.c.obj
 .text.xTaskGenericNotify
                0x00000000      0x13c CMakeFiles/example1.dir/D_/pico/pico-FreeRTOS-SMP/Source/tasks.c.obj
 .rodata.xTaskGenericNotify
                0x00000000       0x14 CMakeFiles/example1.dir/D_/pico/pico-FreeRTOS-SMP/Source/tasks.c.obj
 .text.xTaskGenericNotifyFromISR
                0x00000000      0x180 CMakeFiles/example1.dir/D_/pico/pico-FreeRTOS-SMP/Source/tasks.c.obj
 .rodata.xTaskGenericNotifyFromISR
                0x00000000       0x14 CMakeFiles/example1.dir/D_/pico/pico-FreeRTOS-SMP/Source/tasks.c.obj
 .text.vTaskGenericNotifyGiveFromISR
                0x00000000       0xec CMakeFiles/example1.dir/D_/pico/pico-FreeRTOS-SMP/Source/tasks.c.obj
 .rodata.xTaskGenericNotifyStateClear.str1.4
                0x00000000       0x13 CMakeFiles/example1.dir/D_/pico/pico-FreeRTOS-SMP/Source/tasks.c.obj
 .text.xTaskGenericNotifyStateClear
                0x00000000       0x54 CMakeFiles/example1.dir/D_/pico/pico-FreeRTOS-SMP/Source/tasks.c.obj
 .text.ulTaskGenericNotifyValueClear
                0x00000000       0x30 CMakeFiles/example1.dir/D_/pico/pico-FreeRTOS-SMP/Source/tasks.c.obj
 .rodata.__func__.0
                0x00000000       0x1d CMakeFiles/example1.dir/D_/pico/pico-FreeRTOS-SMP/Source/tasks.c.obj
 .rodata.__func__.1
                0x00000000       0x1e CMakeFiles/example1.dir/D_/pico/pico-FreeRTOS-SMP/Source/tasks.c.obj
 .rodata.__func__.11
                0x00000000       0x15 CMakeFiles/example1.dir/D_/pico/pico-FreeRTOS-SMP/Source/tasks.c.obj
 .rodata.__func__.19
                0x00000000       0x10 CMakeFiles/example1.dir/D_/pico/pico-FreeRTOS-SMP/Source/tasks.c.obj
 .rodata.__func__.2
                0x00000000       0x1a CMakeFiles/example1.dir/D_/pico/pico-FreeRTOS-SMP/Source/tasks.c.obj
 .rodata.__func__.20
                0x00000000       0x12 CMakeFiles/example1.dir/D_/pico/pico-FreeRTOS-SMP/Source/tasks.c.obj
 .rodata.__func__.21
                0x00000000        0xf CMakeFiles/example1.dir/D_/pico/pico-FreeRTOS-SMP/Source/tasks.c.obj
 .rodata.__func__.22
                0x00000000        0xe CMakeFiles/example1.dir/D_/pico/pico-FreeRTOS-SMP/Source/tasks.c.obj
 .rodata.__func__.29
                0x00000000       0x13 CMakeFiles/example1.dir/D_/pico/pico-FreeRTOS-SMP/Source/tasks.c.obj
 .rodata.__func__.3
                0x00000000       0x13 CMakeFiles/example1.dir/D_/pico/pico-FreeRTOS-SMP/Source/tasks.c.obj
 .rodata.__func__.30
                0x00000000       0x17 CMakeFiles/example1.dir/D_/pico/pico-FreeRTOS-SMP/Source/tasks.c.obj
 .rodata.__func__.31
                0x00000000        0xc CMakeFiles/example1.dir/D_/pico/pico-FreeRTOS-SMP/Source/tasks.c.obj
 .rodata.__func__.33
                0x00000000        0xd CMakeFiles/example1.dir/D_/pico/pico-FreeRTOS-SMP/Source/tasks.c.obj
 .rodata.__func__.34
                0x00000000       0x11 CMakeFiles/example1.dir/D_/pico/pico-FreeRTOS-SMP/Source/tasks.c.obj
 .rodata.__func__.35
                0x00000000        0xe CMakeFiles/example1.dir/D_/pico/pico-FreeRTOS-SMP/Source/tasks.c.obj
 .rodata.__func__.37
                0x00000000       0x10 CMakeFiles/example1.dir/D_/pico/pico-FreeRTOS-SMP/Source/tasks.c.obj
 .rodata.__func__.38
                0x00000000        0xc CMakeFiles/example1.dir/D_/pico/pico-FreeRTOS-SMP/Source/tasks.c.obj
 .rodata.__func__.4
                0x00000000       0x17 CMakeFiles/example1.dir/D_/pico/pico-FreeRTOS-SMP/Source/tasks.c.obj
 .rodata.__func__.5
                0x00000000       0x18 CMakeFiles/example1.dir/D_/pico/pico-FreeRTOS-SMP/Source/tasks.c.obj
 .rodata.__func__.7
                0x00000000       0x24 CMakeFiles/example1.dir/D_/pico/pico-FreeRTOS-SMP/Source/tasks.c.obj
 .rodata.__func__.9
                0x00000000       0x22 CMakeFiles/example1.dir/D_/pico/pico-FreeRTOS-SMP/Source/tasks.c.obj
 .text          0x00000000        0x0 CMakeFiles/example1.dir/D_/pico/pico-FreeRTOS-SMP/Source/timers.c.obj
 .data          0x00000000        0x0 CMakeFiles/example1.dir/D_/pico/pico-FreeRTOS-SMP/Source/timers.c.obj
 .bss           0x00000000        0x0 CMakeFiles/example1.dir/D_/pico/pico-FreeRTOS-SMP/Source/timers.c.obj
 .text.prvInitialiseNewTimer
                0x00000000       0x58 CMakeFiles/example1.dir/D_/pico/pico-FreeRTOS-SMP/Source/timers.c.obj
 .text.xTimerCreate
                0x00000000       0x34 CMakeFiles/example1.dir/D_/pico/pico-FreeRTOS-SMP/Source/timers.c.obj
 .rodata.xTimerGenericCommandFromISR.str1.4
                0x00000000       0x23 CMakeFiles/example1.dir/D_/pico/pico-FreeRTOS-SMP/Source/timers.c.obj
 .text.xTimerGenericCommandFromISR
                0x00000000       0x60 CMakeFiles/example1.dir/D_/pico/pico-FreeRTOS-SMP/Source/timers.c.obj
 .rodata.xTimerGetTimerDaemonTaskHandle.str1.4
                0x00000000       0x24 CMakeFiles/example1.dir/D_/pico/pico-FreeRTOS-SMP/Source/timers.c.obj
 .text.xTimerGetTimerDaemonTaskHandle
                0x00000000       0x2c CMakeFiles/example1.dir/D_/pico/pico-FreeRTOS-SMP/Source/timers.c.obj
 .text.xTimerGetPeriod
                0x00000000       0x24 CMakeFiles/example1.dir/D_/pico/pico-FreeRTOS-SMP/Source/timers.c.obj
 .text.vTimerSetReloadMode
                0x00000000       0x48 CMakeFiles/example1.dir/D_/pico/pico-FreeRTOS-SMP/Source/timers.c.obj
 .text.uxTimerGetReloadMode
                0x00000000       0x3c CMakeFiles/example1.dir/D_/pico/pico-FreeRTOS-SMP/Source/timers.c.obj
 .text.xTimerGetExpiryTime
                0x00000000       0x28 CMakeFiles/example1.dir/D_/pico/pico-FreeRTOS-SMP/Source/timers.c.obj
 .text.pcTimerGetName
                0x00000000       0x28 CMakeFiles/example1.dir/D_/pico/pico-FreeRTOS-SMP/Source/timers.c.obj
 .text.xTimerIsTimerActive
                0x00000000       0x3c CMakeFiles/example1.dir/D_/pico/pico-FreeRTOS-SMP/Source/timers.c.obj
 .text.pvTimerGetTimerID
                0x00000000       0x30 CMakeFiles/example1.dir/D_/pico/pico-FreeRTOS-SMP/Source/timers.c.obj
 .text.vTimerSetTimerID
                0x00000000       0x34 CMakeFiles/example1.dir/D_/pico/pico-FreeRTOS-SMP/Source/timers.c.obj
 .rodata.xTimerPendFunctionCall.str1.4
                0x00000000        0xc CMakeFiles/example1.dir/D_/pico/pico-FreeRTOS-SMP/Source/timers.c.obj
 .text.xTimerPendFunctionCall
                0x00000000       0x4c CMakeFiles/example1.dir/D_/pico/pico-FreeRTOS-SMP/Source/timers.c.obj
 .text.uxTimerGetTimerNumber
                0x00000000        0x4 CMakeFiles/example1.dir/D_/pico/pico-FreeRTOS-SMP/Source/timers.c.obj
 .text.vTimerSetTimerNumber
                0x00000000        0x4 CMakeFiles/example1.dir/D_/pico/pico-FreeRTOS-SMP/Source/timers.c.obj
 .rodata.__func__.0
                0x00000000       0x17 CMakeFiles/example1.dir/D_/pico/pico-FreeRTOS-SMP/Source/timers.c.obj
 .rodata.__func__.1
                0x00000000       0x11 CMakeFiles/example1.dir/D_/pico/pico-FreeRTOS-SMP/Source/timers.c.obj
 .rodata.__func__.10
                0x00000000       0x1c CMakeFiles/example1.dir/D_/pico/pico-FreeRTOS-SMP/Source/timers.c.obj
 .rodata.__func__.12
                0x00000000       0x16 CMakeFiles/example1.dir/D_/pico/pico-FreeRTOS-SMP/Source/timers.c.obj
 .rodata.__func__.2
                0x00000000       0x12 CMakeFiles/example1.dir/D_/pico/pico-FreeRTOS-SMP/Source/timers.c.obj
 .rodata.__func__.3
                0x00000000       0x14 CMakeFiles/example1.dir/D_/pico/pico-FreeRTOS-SMP/Source/timers.c.obj
 .rodata.__func__.4
                0x00000000        0xf CMakeFiles/example1.dir/D_/pico/pico-FreeRTOS-SMP/Source/timers.c.obj
 .rodata.__func__.5
                0x00000000       0x14 CMakeFiles/example1.dir/D_/pico/pico-FreeRTOS-SMP/Source/timers.c.obj
 .rodata.__func__.6
                0x00000000       0x15 CMakeFiles/example1.dir/D_/pico/pico-FreeRTOS-SMP/Source/timers.c.obj
 .rodata.__func__.7
                0x00000000       0x14 CMakeFiles/example1.dir/D_/pico/pico-FreeRTOS-SMP/Source/timers.c.obj
 .rodata.__func__.8
                0x00000000       0x10 CMakeFiles/example1.dir/D_/pico/pico-FreeRTOS-SMP/Source/timers.c.obj
 .rodata.__func__.9
                0x00000000       0x1f CMakeFiles/example1.dir/D_/pico/pico-FreeRTOS-SMP/Source/timers.c.obj
 .text          0x00000000        0x0 CMakeFiles/example1.dir/D_/pico/pico-sdk/src/rp2_common/hardware_exception/exception.c.obj
 .data          0x00000000        0x0 CMakeFiles/example1.dir/D_/pico/pico-sdk/src/rp2_common/hardware_exception/exception.c.obj
 .bss           0x00000000        0x0 CMakeFiles/example1.dir/D_/pico/pico-sdk/src/rp2_common/hardware_exception/exception.c.obj
 .rodata.exception_restore_handler.str1.4
                0x00000000       0x34 CMakeFiles/example1.dir/D_/pico/pico-sdk/src/rp2_common/hardware_exception/exception.c.obj
 .text.exception_restore_handler
                0x00000000       0x38 CMakeFiles/example1.dir/D_/pico/pico-sdk/src/rp2_common/hardware_exception/exception.c.obj
 .rodata.__func__.0
                0x00000000       0x1a CMakeFiles/example1.dir/D_/pico/pico-sdk/src/rp2_common/hardware_exception/exception.c.obj
 .text          0x00000000        0x0 CMakeFiles/example1.dir/D_/pico/pico-sdk/src/rp2_common/pico_multicore/multicore.c.obj
 .data          0x00000000        0x0 CMakeFiles/example1.dir/D_/pico/pico-sdk/src/rp2_common/pico_multicore/multicore.c.obj
 .bss           0x00000000        0x0 CMakeFiles/example1.dir/D_/pico/pico-sdk/src/rp2_common/pico_multicore/multicore.c.obj
 .text.core1_trampoline
                0x00000000        0x2 CMakeFiles/example1.dir/D_/pico/pico-sdk/src/rp2_common/pico_multicore/multicore.c.obj
 .time_critical.multicore_lockout_handler
                0x00000000       0x78 CMakeFiles/example1.dir/D_/pico/pico-sdk/src/rp2_common/pico_multicore/multicore.c.obj
 .text.core1_wrapper
                0x00000000        0xc CMakeFiles/example1.dir/D_/pico/pico-sdk/src/rp2_common/pico_multicore/multicore.c.obj
 .text.check_lockout_mutex_init
                0x00000000       0x24 CMakeFiles/example1.dir/D_/pico/pico-sdk/src/rp2_common/pico_multicore/multicore.c.obj
 .text.multicore_fifo_push_blocking
                0x00000000       0x14 CMakeFiles/example1.dir/D_/pico/pico-sdk/src/rp2_common/pico_multicore/multicore.c.obj
 .rodata.multicore_fifo_push_timeout_us.str1.4
                0x00000000       0x57 CMakeFiles/example1.dir/D_/pico/pico-sdk/src/rp2_common/pico_multicore/multicore.c.obj
 .text.multicore_fifo_push_timeout_us
                0x00000000       0x9c CMakeFiles/example1.dir/D_/pico/pico-sdk/src/rp2_common/pico_multicore/multicore.c.obj
 .text.multicore_fifo_pop_blocking
                0x00000000       0x16 CMakeFiles/example1.dir/D_/pico/pico-sdk/src/rp2_common/pico_multicore/multicore.c.obj
 .text.multicore_fifo_pop_timeout_us
                0x00000000       0xa0 CMakeFiles/example1.dir/D_/pico/pico-sdk/src/rp2_common/pico_multicore/multicore.c.obj
 .text.multicore_lockout_handshake
                0x00000000       0xc0 CMakeFiles/example1.dir/D_/pico/pico-sdk/src/rp2_common/pico_multicore/multicore.c.obj
 .rodata.multicore_lockout_start_block_until.str1.4
                0x00000000       0x53 CMakeFiles/example1.dir/D_/pico/pico-sdk/src/rp2_common/pico_multicore/multicore.c.obj
 .text.multicore_lockout_start_block_until
                0x00000000       0x60 CMakeFiles/example1.dir/D_/pico/pico-sdk/src/rp2_common/pico_multicore/multicore.c.obj
 .rodata.multicore_lockout_end_block_until.str1.4
                0x00000000       0x3c CMakeFiles/example1.dir/D_/pico/pico-sdk/src/rp2_common/pico_multicore/multicore.c.obj
 .text.multicore_lockout_end_block_until
                0x00000000       0x78 CMakeFiles/example1.dir/D_/pico/pico-sdk/src/rp2_common/pico_multicore/multicore.c.obj
 .text.multicore_reset_core1
                0x00000000       0x28 CMakeFiles/example1.dir/D_/pico/pico-sdk/src/rp2_common/pico_multicore/multicore.c.obj
 .text.multicore_launch_core1_raw
                0x00000000       0x6e CMakeFiles/example1.dir/D_/pico/pico-sdk/src/rp2_common/pico_multicore/multicore.c.obj
 .rodata.multicore_launch_core1_with_stack.str1.4
                0x00000000       0x19 CMakeFiles/example1.dir/D_/pico/pico-sdk/src/rp2_common/pico_multicore/multicore.c.obj
 .text.multicore_launch_core1_with_stack
                0x00000000       0x50 CMakeFiles/example1.dir/D_/pico/pico-sdk/src/rp2_common/pico_multicore/multicore.c.obj
 .text.multicore_launch_core1
                0x00000000       0x24 CMakeFiles/example1.dir/D_/pico/pico-sdk/src/rp2_common/pico_multicore/multicore.c.obj
 .text.multicore_lockout_victim_init
                0x00000000       0x24 CMakeFiles/example1.dir/D_/pico/pico-sdk/src/rp2_common/pico_multicore/multicore.c.obj
 .text.multicore_lockout_start_timeout_us
                0x00000000       0x58 CMakeFiles/example1.dir/D_/pico/pico-sdk/src/rp2_common/pico_multicore/multicore.c.obj
 .text.multicore_lockout_start_blocking
                0x00000000       0x14 CMakeFiles/example1.dir/D_/pico/pico-sdk/src/rp2_common/pico_multicore/multicore.c.obj
 .text.multicore_lockout_end_timeout_us
                0x00000000       0x58 CMakeFiles/example1.dir/D_/pico/pico-sdk/src/rp2_common/pico_multicore/multicore.c.obj
 .text.multicore_lockout_end_blocking
                0x00000000       0x14 CMakeFiles/example1.dir/D_/pico/pico-sdk/src/rp2_common/pico_multicore/multicore.c.obj
 .bss.lockout_in_progress
                0x00000000        0x1 CMakeFiles/example1.dir/D_/pico/pico-sdk/src/rp2_common/pico_multicore/multicore.c.obj
 .bss.lockout_mutex
                0x00000000        0x8 CMakeFiles/example1.dir/D_/pico/pico-sdk/src/rp2_common/pico_multicore/multicore.c.obj
 .rodata.__func__.0
                0x00000000       0x22 CMakeFiles/example1.dir/D_/pico/pico-sdk/src/rp2_common/pico_multicore/multicore.c.obj
 .rodata.__func__.1
                0x00000000       0x24 CMakeFiles/example1.dir/D_/pico/pico-sdk/src/rp2_common/pico_multicore/multicore.c.obj
 .rodata.__func__.2
                0x00000000       0x22 CMakeFiles/example1.dir/D_/pico/pico-sdk/src/rp2_common/pico_multicore/multicore.c.obj
 .rodata.__func__.3
                0x00000000       0x15 CMakeFiles/example1.dir/D_/pico/pico-sdk/src/rp2_common/pico_multicore/multicore.c.obj
 .stack1        0x00000000      0x800 CMakeFiles/example1.dir/D_/pico/pico-sdk/src/rp2_common/pico_multicore/multicore.c.obj
 .debug_info    0x00000000     0x1ca6 CMakeFiles/example1.dir/D_/pico/pico-sdk/src/rp2_common/pico_multicore/multicore.c.obj
 .debug_abbrev  0x00000000      0x457 CMakeFiles/example1.dir/D_/pico/pico-sdk/src/rp2_common/pico_multicore/multicore.c.obj
 .debug_loc     0x00000000      0xf34 CMakeFiles/example1.dir/D_/pico/pico-sdk/src/rp2_common/pico_multicore/multicore.c.obj
 .debug_aranges
                0x00000000       0xb8 CMakeFiles/example1.dir/D_/pico/pico-sdk/src/rp2_common/pico_multicore/multicore.c.obj
 .debug_ranges  0x00000000      0x320 CMakeFiles/example1.dir/D_/pico/pico-sdk/src/rp2_common/pico_multicore/multicore.c.obj
 .debug_line    0x00000000      0xeb4 CMakeFiles/example1.dir/D_/pico/pico-sdk/src/rp2_common/pico_multicore/multicore.c.obj
 .debug_str     0x00000000      0xa9a CMakeFiles/example1.dir/D_/pico/pico-sdk/src/rp2_common/pico_multicore/multicore.c.obj
 .comment       0x00000000       0x4a CMakeFiles/example1.dir/D_/pico/pico-sdk/src/rp2_common/pico_multicore/multicore.c.obj
 .debug_frame   0x00000000      0x208 CMakeFiles/example1.dir/D_/pico/pico-sdk/src/rp2_common/pico_multicore/multicore.c.obj
 .ARM.attributes
                0x00000000       0x2c CMakeFiles/example1.dir/D_/pico/pico-sdk/src/rp2_common/pico_multicore/multicore.c.obj
 .text          0x00000000        0x0 CMakeFiles/example1.dir/D_/pico/pico-FreeRTOS-SMP/Source/portable/MemMang/heap_4.c.obj
 .data          0x00000000        0x0 CMakeFiles/example1.dir/D_/pico/pico-FreeRTOS-SMP/Source/portable/MemMang/heap_4.c.obj
 .bss           0x00000000        0x0 CMakeFiles/example1.dir/D_/pico/pico-FreeRTOS-SMP/Source/portable/MemMang/heap_4.c.obj
 .text.xPortGetFreeHeapSize
                0x00000000        0xc CMakeFiles/example1.dir/D_/pico/pico-FreeRTOS-SMP/Source/portable/MemMang/heap_4.c.obj
 .text.xPortGetMinimumEverFreeHeapSize
                0x00000000        0xc CMakeFiles/example1.dir/D_/pico/pico-FreeRTOS-SMP/Source/portable/MemMang/heap_4.c.obj
 .text.vPortInitialiseBlocks
                0x00000000        0x2 CMakeFiles/example1.dir/D_/pico/pico-FreeRTOS-SMP/Source/portable/MemMang/heap_4.c.obj
 .text.vPortGetHeapStats
                0x00000000       0x84 CMakeFiles/example1.dir/D_/pico/pico-FreeRTOS-SMP/Source/portable/MemMang/heap_4.c.obj
 .text          0x00000000        0x0 C:\Users\ployy\AppData\Local\Temp\ccQVgsae.o
 .data          0x00000000        0x0 C:\Users\ployy\AppData\Local\Temp\ccQVgsae.o
 .bss           0x00000000        0x0 C:\Users\ployy\AppData\Local\Temp\ccQVgsae.o
 .data          0x00000000        0x0 d:/pico/armcc/10 2021.10/bin/../lib/gcc/arm-none-eabi/10.3.1/thumb/v6-m/nofp\libgcc.a(_dvmd_tls.o)
 .bss           0x00000000        0x0 d:/pico/armcc/10 2021.10/bin/../lib/gcc/arm-none-eabi/10.3.1/thumb/v6-m/nofp\libgcc.a(_dvmd_tls.o)
 .text          0x00000000        0x0 d:/pico/armcc/10 2021.10/bin/../lib/gcc/arm-none-eabi/10.3.1/../../../../arm-none-eabi/lib/thumb/v6-m/nofp\libg.a(lib_a-calloc.o)
 .data          0x00000000        0x0 d:/pico/armcc/10 2021.10/bin/../lib/gcc/arm-none-eabi/10.3.1/../../../../arm-none-eabi/lib/thumb/v6-m/nofp\libg.a(lib_a-calloc.o)
 .bss           0x00000000        0x0 d:/pico/armcc/10 2021.10/bin/../lib/gcc/arm-none-eabi/10.3.1/../../../../arm-none-eabi/lib/thumb/v6-m/nofp\libg.a(lib_a-calloc.o)
 .text.calloc   0x00000000       0x18 d:/pico/armcc/10 2021.10/bin/../lib/gcc/arm-none-eabi/10.3.1/../../../../arm-none-eabi/lib/thumb/v6-m/nofp\libg.a(lib_a-calloc.o)
 .debug_frame   0x00000000       0x28 d:/pico/armcc/10 2021.10/bin/../lib/gcc/arm-none-eabi/10.3.1/../../../../arm-none-eabi/lib/thumb/v6-m/nofp\libg.a(lib_a-calloc.o)
 .ARM.attributes
                0x00000000       0x2c d:/pico/armcc/10 2021.10/bin/../lib/gcc/arm-none-eabi/10.3.1/../../../../arm-none-eabi/lib/thumb/v6-m/nofp\libg.a(lib_a-calloc.o)
 .text          0x00000000        0x0 d:/pico/armcc/10 2021.10/bin/../lib/gcc/arm-none-eabi/10.3.1/../../../../arm-none-eabi/lib/thumb/v6-m/nofp\libg.a(lib_a-callocr.o)
 .data          0x00000000        0x0 d:/pico/armcc/10 2021.10/bin/../lib/gcc/arm-none-eabi/10.3.1/../../../../arm-none-eabi/lib/thumb/v6-m/nofp\libg.a(lib_a-callocr.o)
 .bss           0x00000000        0x0 d:/pico/armcc/10 2021.10/bin/../lib/gcc/arm-none-eabi/10.3.1/../../../../arm-none-eabi/lib/thumb/v6-m/nofp\libg.a(lib_a-callocr.o)
 .text._calloc_r
                0x00000000       0x9c d:/pico/armcc/10 2021.10/bin/../lib/gcc/arm-none-eabi/10.3.1/../../../../arm-none-eabi/lib/thumb/v6-m/nofp\libg.a(lib_a-callocr.o)
 .debug_frame   0x00000000       0x2c d:/pico/armcc/10 2021.10/bin/../lib/gcc/arm-none-eabi/10.3.1/../../../../arm-none-eabi/lib/thumb/v6-m/nofp\libg.a(lib_a-callocr.o)
 .ARM.attributes
                0x00000000       0x2c d:/pico/armcc/10 2021.10/bin/../lib/gcc/arm-none-eabi/10.3.1/../../../../arm-none-eabi/lib/thumb/v6-m/nofp\libg.a(lib_a-callocr.o)
 .text          0x00000000        0x0 d:/pico/armcc/10 2021.10/bin/../lib/gcc/arm-none-eabi/10.3.1/../../../../arm-none-eabi/lib/thumb/v6-m/nofp\libg.a(lib_a-ctype_.o)
 .data          0x00000000        0x0 d:/pico/armcc/10 2021.10/bin/../lib/gcc/arm-none-eabi/10.3.1/../../../../arm-none-eabi/lib/thumb/v6-m/nofp\libg.a(lib_a-ctype_.o)
 .bss           0x00000000        0x0 d:/pico/armcc/10 2021.10/bin/../lib/gcc/arm-none-eabi/10.3.1/../../../../arm-none-eabi/lib/thumb/v6-m/nofp\libg.a(lib_a-ctype_.o)
 .rodata._ctype_
                0x00000000      0x101 d:/pico/armcc/10 2021.10/bin/../lib/gcc/arm-none-eabi/10.3.1/../../../../arm-none-eabi/lib/thumb/v6-m/nofp\libg.a(lib_a-ctype_.o)
 .ARM.attributes
                0x00000000       0x2c d:/pico/armcc/10 2021.10/bin/../lib/gcc/arm-none-eabi/10.3.1/../../../../arm-none-eabi/lib/thumb/v6-m/nofp\libg.a(lib_a-ctype_.o)
 .text          0x00000000        0x0 d:/pico/armcc/10 2021.10/bin/../lib/gcc/arm-none-eabi/10.3.1/../../../../arm-none-eabi/lib/thumb/v6-m/nofp\libg.a(lib_a-errno.o)
 .data          0x00000000        0x0 d:/pico/armcc/10 2021.10/bin/../lib/gcc/arm-none-eabi/10.3.1/../../../../arm-none-eabi/lib/thumb/v6-m/nofp\libg.a(lib_a-errno.o)
 .bss           0x00000000        0x0 d:/pico/armcc/10 2021.10/bin/../lib/gcc/arm-none-eabi/10.3.1/../../../../arm-none-eabi/lib/thumb/v6-m/nofp\libg.a(lib_a-errno.o)
 .text.__errno  0x00000000        0xc d:/pico/armcc/10 2021.10/bin/../lib/gcc/arm-none-eabi/10.3.1/../../../../arm-none-eabi/lib/thumb/v6-m/nofp\libg.a(lib_a-errno.o)
 .debug_frame   0x00000000       0x20 d:/pico/armcc/10 2021.10/bin/../lib/gcc/arm-none-eabi/10.3.1/../../../../arm-none-eabi/lib/thumb/v6-m/nofp\libg.a(lib_a-errno.o)
 .ARM.attributes
                0x00000000       0x2c d:/pico/armcc/10 2021.10/bin/../lib/gcc/arm-none-eabi/10.3.1/../../../../arm-none-eabi/lib/thumb/v6-m/nofp\libg.a(lib_a-errno.o)
 .text          0x00000000        0x0 d:/pico/armcc/10 2021.10/bin/../lib/gcc/arm-none-eabi/10.3.1/../../../../arm-none-eabi/lib/thumb/v6-m/nofp\libg.a(lib_a-impure.o)
 .data          0x00000000        0x0 d:/pico/armcc/10 2021.10/bin/../lib/gcc/arm-none-eabi/10.3.1/../../../../arm-none-eabi/lib/thumb/v6-m/nofp\libg.a(lib_a-impure.o)
 .bss           0x00000000        0x0 d:/pico/armcc/10 2021.10/bin/../lib/gcc/arm-none-eabi/10.3.1/../../../../arm-none-eabi/lib/thumb/v6-m/nofp\libg.a(lib_a-impure.o)
 .data._impure_ptr
                0x00000000        0x4 d:/pico/armcc/10 2021.10/bin/../lib/gcc/arm-none-eabi/10.3.1/../../../../arm-none-eabi/lib/thumb/v6-m/nofp\libg.a(lib_a-impure.o)
 .data.impure_data
                0x00000000      0x428 d:/pico/armcc/10 2021.10/bin/../lib/gcc/arm-none-eabi/10.3.1/../../../../arm-none-eabi/lib/thumb/v6-m/nofp\libg.a(lib_a-impure.o)
 .rodata._global_impure_ptr
                0x00000000        0x4 d:/pico/armcc/10 2021.10/bin/../lib/gcc/arm-none-eabi/10.3.1/../../../../arm-none-eabi/lib/thumb/v6-m/nofp\libg.a(lib_a-impure.o)
 .ARM.attributes
                0x00000000       0x2c d:/pico/armcc/10 2021.10/bin/../lib/gcc/arm-none-eabi/10.3.1/../../../../arm-none-eabi/lib/thumb/v6-m/nofp\libg.a(lib_a-impure.o)
 .text          0x00000000        0x0 d:/pico/armcc/10 2021.10/bin/../lib/gcc/arm-none-eabi/10.3.1/../../../../arm-none-eabi/lib/thumb/v6-m/nofp\libg.a(lib_a-init.o)
 .data          0x00000000        0x0 d:/pico/armcc/10 2021.10/bin/../lib/gcc/arm-none-eabi/10.3.1/../../../../arm-none-eabi/lib/thumb/v6-m/nofp\libg.a(lib_a-init.o)
 .bss           0x00000000        0x0 d:/pico/armcc/10 2021.10/bin/../lib/gcc/arm-none-eabi/10.3.1/../../../../arm-none-eabi/lib/thumb/v6-m/nofp\libg.a(lib_a-init.o)
 .text.__libc_init_array
                0x00000000       0x44 d:/pico/armcc/10 2021.10/bin/../lib/gcc/arm-none-eabi/10.3.1/../../../../arm-none-eabi/lib/thumb/v6-m/nofp\libg.a(lib_a-init.o)
 .debug_frame   0x00000000       0x2c d:/pico/armcc/10 2021.10/bin/../lib/gcc/arm-none-eabi/10.3.1/../../../../arm-none-eabi/lib/thumb/v6-m/nofp\libg.a(lib_a-init.o)
 .ARM.attributes
                0x00000000       0x2c d:/pico/armcc/10 2021.10/bin/../lib/gcc/arm-none-eabi/10.3.1/../../../../arm-none-eabi/lib/thumb/v6-m/nofp\libg.a(lib_a-init.o)
 .text          0x00000000        0x0 d:/pico/armcc/10 2021.10/bin/../lib/gcc/arm-none-eabi/10.3.1/../../../../arm-none-eabi/lib/thumb/v6-m/nofp\libg.a(lib_a-malloc.o)
 .data          0x00000000        0x0 d:/pico/armcc/10 2021.10/bin/../lib/gcc/arm-none-eabi/10.3.1/../../../../arm-none-eabi/lib/thumb/v6-m/nofp\libg.a(lib_a-malloc.o)
 .bss           0x00000000        0x0 d:/pico/armcc/10 2021.10/bin/../lib/gcc/arm-none-eabi/10.3.1/../../../../arm-none-eabi/lib/thumb/v6-m/nofp\libg.a(lib_a-malloc.o)
 .text.malloc   0x00000000       0x14 d:/pico/armcc/10 2021.10/bin/../lib/gcc/arm-none-eabi/10.3.1/../../../../arm-none-eabi/lib/thumb/v6-m/nofp\libg.a(lib_a-malloc.o)
 .text.free     0x00000000       0x14 d:/pico/armcc/10 2021.10/bin/../lib/gcc/arm-none-eabi/10.3.1/../../../../arm-none-eabi/lib/thumb/v6-m/nofp\libg.a(lib_a-malloc.o)
 .debug_frame   0x00000000       0x40 d:/pico/armcc/10 2021.10/bin/../lib/gcc/arm-none-eabi/10.3.1/../../../../arm-none-eabi/lib/thumb/v6-m/nofp\libg.a(lib_a-malloc.o)
 .ARM.attributes
                0x00000000       0x2c d:/pico/armcc/10 2021.10/bin/../lib/gcc/arm-none-eabi/10.3.1/../../../../arm-none-eabi/lib/thumb/v6-m/nofp\libg.a(lib_a-malloc.o)
 .text          0x00000000        0x0 d:/pico/armcc/10 2021.10/bin/../lib/gcc/arm-none-eabi/10.3.1/../../../../arm-none-eabi/lib/thumb/v6-m/nofp\libg.a(lib_a-mallocr.o)
 .data          0x00000000        0x0 d:/pico/armcc/10 2021.10/bin/../lib/gcc/arm-none-eabi/10.3.1/../../../../arm-none-eabi/lib/thumb/v6-m/nofp\libg.a(lib_a-mallocr.o)
 .bss           0x00000000        0x0 d:/pico/armcc/10 2021.10/bin/../lib/gcc/arm-none-eabi/10.3.1/../../../../arm-none-eabi/lib/thumb/v6-m/nofp\libg.a(lib_a-mallocr.o)
 .text._malloc_r
                0x00000000      0x584 d:/pico/armcc/10 2021.10/bin/../lib/gcc/arm-none-eabi/10.3.1/../../../../arm-none-eabi/lib/thumb/v6-m/nofp\libg.a(lib_a-mallocr.o)
 .bss.__malloc_current_mallinfo
                0x00000000       0x28 d:/pico/armcc/10 2021.10/bin/../lib/gcc/arm-none-eabi/10.3.1/../../../../arm-none-eabi/lib/thumb/v6-m/nofp\libg.a(lib_a-mallocr.o)
 .bss.__malloc_max_sbrked_mem
                0x00000000        0x4 d:/pico/armcc/10 2021.10/bin/../lib/gcc/arm-none-eabi/10.3.1/../../../../arm-none-eabi/lib/thumb/v6-m/nofp\libg.a(lib_a-mallocr.o)
 .bss.__malloc_max_total_mem
                0x00000000        0x4 d:/pico/armcc/10 2021.10/bin/../lib/gcc/arm-none-eabi/10.3.1/../../../../arm-none-eabi/lib/thumb/v6-m/nofp\libg.a(lib_a-mallocr.o)
 .bss.__malloc_top_pad
                0x00000000        0x4 d:/pico/armcc/10 2021.10/bin/../lib/gcc/arm-none-eabi/10.3.1/../../../../arm-none-eabi/lib/thumb/v6-m/nofp\libg.a(lib_a-mallocr.o)
 .data.__malloc_av_
                0x00000000      0x408 d:/pico/armcc/10 2021.10/bin/../lib/gcc/arm-none-eabi/10.3.1/../../../../arm-none-eabi/lib/thumb/v6-m/nofp\libg.a(lib_a-mallocr.o)
 .data.__malloc_sbrk_base
                0x00000000        0x4 d:/pico/armcc/10 2021.10/bin/../lib/gcc/arm-none-eabi/10.3.1/../../../../arm-none-eabi/lib/thumb/v6-m/nofp\libg.a(lib_a-mallocr.o)
 .data.__malloc_trim_threshold
                0x00000000        0x4 d:/pico/armcc/10 2021.10/bin/../lib/gcc/arm-none-eabi/10.3.1/../../../../arm-none-eabi/lib/thumb/v6-m/nofp\libg.a(lib_a-mallocr.o)
 .debug_frame   0x00000000       0x3c d:/pico/armcc/10 2021.10/bin/../lib/gcc/arm-none-eabi/10.3.1/../../../../arm-none-eabi/lib/thumb/v6-m/nofp\libg.a(lib_a-mallocr.o)
 .ARM.attributes
                0x00000000       0x2c d:/pico/armcc/10 2021.10/bin/../lib/gcc/arm-none-eabi/10.3.1/../../../../arm-none-eabi/lib/thumb/v6-m/nofp\libg.a(lib_a-mallocr.o)
 .text          0x00000000        0x0 d:/pico/armcc/10 2021.10/bin/../lib/gcc/arm-none-eabi/10.3.1/../../../../arm-none-eabi/lib/thumb/v6-m/nofp\libg.a(lib_a-mlock.o)
 .data          0x00000000        0x0 d:/pico/armcc/10 2021.10/bin/../lib/gcc/arm-none-eabi/10.3.1/../../../../arm-none-eabi/lib/thumb/v6-m/nofp\libg.a(lib_a-mlock.o)
 .bss           0x00000000        0x0 d:/pico/armcc/10 2021.10/bin/../lib/gcc/arm-none-eabi/10.3.1/../../../../arm-none-eabi/lib/thumb/v6-m/nofp\libg.a(lib_a-mlock.o)
 .text.__malloc_lock
                0x00000000       0x10 d:/pico/armcc/10 2021.10/bin/../lib/gcc/arm-none-eabi/10.3.1/../../../../arm-none-eabi/lib/thumb/v6-m/nofp\libg.a(lib_a-mlock.o)
 .text.__malloc_unlock
                0x00000000       0x10 d:/pico/armcc/10 2021.10/bin/../lib/gcc/arm-none-eabi/10.3.1/../../../../arm-none-eabi/lib/thumb/v6-m/nofp\libg.a(lib_a-mlock.o)
 .debug_frame   0x00000000       0x40 d:/pico/armcc/10 2021.10/bin/../lib/gcc/arm-none-eabi/10.3.1/../../../../arm-none-eabi/lib/thumb/v6-m/nofp\libg.a(lib_a-mlock.o)
 .ARM.attributes
                0x00000000       0x2c d:/pico/armcc/10 2021.10/bin/../lib/gcc/arm-none-eabi/10.3.1/../../../../arm-none-eabi/lib/thumb/v6-m/nofp\libg.a(lib_a-mlock.o)
 .text          0x00000000        0x0 d:/pico/armcc/10 2021.10/bin/../lib/gcc/arm-none-eabi/10.3.1/../../../../arm-none-eabi/lib/thumb/v6-m/nofp\libg.a(lib_a-realloc.o)
 .data          0x00000000        0x0 d:/pico/armcc/10 2021.10/bin/../lib/gcc/arm-none-eabi/10.3.1/../../../../arm-none-eabi/lib/thumb/v6-m/nofp\libg.a(lib_a-realloc.o)
 .bss           0x00000000        0x0 d:/pico/armcc/10 2021.10/bin/../lib/gcc/arm-none-eabi/10.3.1/../../../../arm-none-eabi/lib/thumb/v6-m/nofp\libg.a(lib_a-realloc.o)
 .text.realloc  0x00000000       0x18 d:/pico/armcc/10 2021.10/bin/../lib/gcc/arm-none-eabi/10.3.1/../../../../arm-none-eabi/lib/thumb/v6-m/nofp\libg.a(lib_a-realloc.o)
 .debug_frame   0x00000000       0x28 d:/pico/armcc/10 2021.10/bin/../lib/gcc/arm-none-eabi/10.3.1/../../../../arm-none-eabi/lib/thumb/v6-m/nofp\libg.a(lib_a-realloc.o)
 .ARM.attributes
                0x00000000       0x2c d:/pico/armcc/10 2021.10/bin/../lib/gcc/arm-none-eabi/10.3.1/../../../../arm-none-eabi/lib/thumb/v6-m/nofp\libg.a(lib_a-realloc.o)
 .text          0x00000000        0x0 d:/pico/armcc/10 2021.10/bin/../lib/gcc/arm-none-eabi/10.3.1/../../../../arm-none-eabi/lib/thumb/v6-m/nofp\libg.a(lib_a-reallocr.o)
 .data          0x00000000        0x0 d:/pico/armcc/10 2021.10/bin/../lib/gcc/arm-none-eabi/10.3.1/../../../../arm-none-eabi/lib/thumb/v6-m/nofp\libg.a(lib_a-reallocr.o)
 .bss           0x00000000        0x0 d:/pico/armcc/10 2021.10/bin/../lib/gcc/arm-none-eabi/10.3.1/../../../../arm-none-eabi/lib/thumb/v6-m/nofp\libg.a(lib_a-reallocr.o)
 .text._realloc_r
                0x00000000      0x354 d:/pico/armcc/10 2021.10/bin/../lib/gcc/arm-none-eabi/10.3.1/../../../../arm-none-eabi/lib/thumb/v6-m/nofp\libg.a(lib_a-reallocr.o)
 .debug_frame   0x00000000       0x3c d:/pico/armcc/10 2021.10/bin/../lib/gcc/arm-none-eabi/10.3.1/../../../../arm-none-eabi/lib/thumb/v6-m/nofp\libg.a(lib_a-reallocr.o)
 .ARM.attributes
                0x00000000       0x2c d:/pico/armcc/10 2021.10/bin/../lib/gcc/arm-none-eabi/10.3.1/../../../../arm-none-eabi/lib/thumb/v6-m/nofp\libg.a(lib_a-reallocr.o)
 .text          0x00000000        0x0 d:/pico/armcc/10 2021.10/bin/../lib/gcc/arm-none-eabi/10.3.1/../../../../arm-none-eabi/lib/thumb/v6-m/nofp\libg.a(lib_a-sbrkr.o)
 .data          0x00000000        0x0 d:/pico/armcc/10 2021.10/bin/../lib/gcc/arm-none-eabi/10.3.1/../../../../arm-none-eabi/lib/thumb/v6-m/nofp\libg.a(lib_a-sbrkr.o)
 .bss           0x00000000        0x0 d:/pico/armcc/10 2021.10/bin/../lib/gcc/arm-none-eabi/10.3.1/../../../../arm-none-eabi/lib/thumb/v6-m/nofp\libg.a(lib_a-sbrkr.o)
 .text._sbrk_r  0x00000000       0x24 d:/pico/armcc/10 2021.10/bin/../lib/gcc/arm-none-eabi/10.3.1/../../../../arm-none-eabi/lib/thumb/v6-m/nofp\libg.a(lib_a-sbrkr.o)
 .debug_frame   0x00000000       0x2c d:/pico/armcc/10 2021.10/bin/../lib/gcc/arm-none-eabi/10.3.1/../../../../arm-none-eabi/lib/thumb/v6-m/nofp\libg.a(lib_a-sbrkr.o)
 .ARM.attributes
                0x00000000       0x2c d:/pico/armcc/10 2021.10/bin/../lib/gcc/arm-none-eabi/10.3.1/../../../../arm-none-eabi/lib/thumb/v6-m/nofp\libg.a(lib_a-sbrkr.o)
 .text          0x00000000        0x0 d:/pico/armcc/10 2021.10/bin/../lib/gcc/arm-none-eabi/10.3.1/../../../../arm-none-eabi/lib/thumb/v6-m/nofp\libg.a(lib_a-strlen-stub.o)
 .data          0x00000000        0x0 d:/pico/armcc/10 2021.10/bin/../lib/gcc/arm-none-eabi/10.3.1/../../../../arm-none-eabi/lib/thumb/v6-m/nofp\libg.a(lib_a-strlen-stub.o)
 .bss           0x00000000        0x0 d:/pico/armcc/10 2021.10/bin/../lib/gcc/arm-none-eabi/10.3.1/../../../../arm-none-eabi/lib/thumb/v6-m/nofp\libg.a(lib_a-strlen-stub.o)
 .text          0x00000000        0x0 d:/pico/armcc/10 2021.10/bin/../lib/gcc/arm-none-eabi/10.3.1/../../../../arm-none-eabi/lib/thumb/v6-m/nofp\libg.a(lib_a-freer.o)
 .data          0x00000000        0x0 d:/pico/armcc/10 2021.10/bin/../lib/gcc/arm-none-eabi/10.3.1/../../../../arm-none-eabi/lib/thumb/v6-m/nofp\libg.a(lib_a-freer.o)
 .bss           0x00000000        0x0 d:/pico/armcc/10 2021.10/bin/../lib/gcc/arm-none-eabi/10.3.1/../../../../arm-none-eabi/lib/thumb/v6-m/nofp\libg.a(lib_a-freer.o)
 .text._malloc_trim_r
                0x00000000       0x9c d:/pico/armcc/10 2021.10/bin/../lib/gcc/arm-none-eabi/10.3.1/../../../../arm-none-eabi/lib/thumb/v6-m/nofp\libg.a(lib_a-freer.o)
 .text._free_r  0x00000000      0x1c4 d:/pico/armcc/10 2021.10/bin/../lib/gcc/arm-none-eabi/10.3.1/../../../../arm-none-eabi/lib/thumb/v6-m/nofp\libg.a(lib_a-freer.o)
 .debug_frame   0x00000000       0x54 d:/pico/armcc/10 2021.10/bin/../lib/gcc/arm-none-eabi/10.3.1/../../../../arm-none-eabi/lib/thumb/v6-m/nofp\libg.a(lib_a-freer.o)
 .ARM.attributes
                0x00000000       0x2c d:/pico/armcc/10 2021.10/bin/../lib/gcc/arm-none-eabi/10.3.1/../../../../arm-none-eabi/lib/thumb/v6-m/nofp\libg.a(lib_a-freer.o)
 .text          0x00000000        0x0 d:/pico/armcc/10 2021.10/bin/../lib/gcc/arm-none-eabi/10.3.1/../../../../arm-none-eabi/lib/thumb/v6-m/nofp\libg.a(lib_a-lock.o)
 .data          0x00000000        0x0 d:/pico/armcc/10 2021.10/bin/../lib/gcc/arm-none-eabi/10.3.1/../../../../arm-none-eabi/lib/thumb/v6-m/nofp\libg.a(lib_a-lock.o)
 .bss           0x00000000        0x0 d:/pico/armcc/10 2021.10/bin/../lib/gcc/arm-none-eabi/10.3.1/../../../../arm-none-eabi/lib/thumb/v6-m/nofp\libg.a(lib_a-lock.o)
 .text.__retarget_lock_init
                0x00000000        0x4 d:/pico/armcc/10 2021.10/bin/../lib/gcc/arm-none-eabi/10.3.1/../../../../arm-none-eabi/lib/thumb/v6-m/nofp\libg.a(lib_a-lock.o)
 .text.__retarget_lock_init_recursive
                0x00000000        0x4 d:/pico/armcc/10 2021.10/bin/../lib/gcc/arm-none-eabi/10.3.1/../../../../arm-none-eabi/lib/thumb/v6-m/nofp\libg.a(lib_a-lock.o)
 .text.__retarget_lock_close
                0x00000000        0x4 d:/pico/armcc/10 2021.10/bin/../lib/gcc/arm-none-eabi/10.3.1/../../../../arm-none-eabi/lib/thumb/v6-m/nofp\libg.a(lib_a-lock.o)
 .text.__retarget_lock_close_recursive
                0x00000000        0x4 d:/pico/armcc/10 2021.10/bin/../lib/gcc/arm-none-eabi/10.3.1/../../../../arm-none-eabi/lib/thumb/v6-m/nofp\libg.a(lib_a-lock.o)
 .text.__retarget_lock_acquire
                0x00000000        0x4 d:/pico/armcc/10 2021.10/bin/../lib/gcc/arm-none-eabi/10.3.1/../../../../arm-none-eabi/lib/thumb/v6-m/nofp\libg.a(lib_a-lock.o)
 .text.__retarget_lock_acquire_recursive
                0x00000000        0x4 d:/pico/armcc/10 2021.10/bin/../lib/gcc/arm-none-eabi/10.3.1/../../../../arm-none-eabi/lib/thumb/v6-m/nofp\libg.a(lib_a-lock.o)
 .text.__retarget_lock_try_acquire
                0x00000000        0x4 d:/pico/armcc/10 2021.10/bin/../lib/gcc/arm-none-eabi/10.3.1/../../../../arm-none-eabi/lib/thumb/v6-m/nofp\libg.a(lib_a-lock.o)
 .text.__retarget_lock_try_acquire_recursive
                0x00000000        0x4 d:/pico/armcc/10 2021.10/bin/../lib/gcc/arm-none-eabi/10.3.1/../../../../arm-none-eabi/lib/thumb/v6-m/nofp\libg.a(lib_a-lock.o)
 .text.__retarget_lock_release
                0x00000000        0x4 d:/pico/armcc/10 2021.10/bin/../lib/gcc/arm-none-eabi/10.3.1/../../../../arm-none-eabi/lib/thumb/v6-m/nofp\libg.a(lib_a-lock.o)
 .text.__retarget_lock_release_recursive
                0x00000000        0x4 d:/pico/armcc/10 2021.10/bin/../lib/gcc/arm-none-eabi/10.3.1/../../../../arm-none-eabi/lib/thumb/v6-m/nofp\libg.a(lib_a-lock.o)
 .bss.__lock___arc4random_mutex
                0x00000000        0x1 d:/pico/armcc/10 2021.10/bin/../lib/gcc/arm-none-eabi/10.3.1/../../../../arm-none-eabi/lib/thumb/v6-m/nofp\libg.a(lib_a-lock.o)
 .bss.__lock___at_quick_exit_mutex
                0x00000000        0x1 d:/pico/armcc/10 2021.10/bin/../lib/gcc/arm-none-eabi/10.3.1/../../../../arm-none-eabi/lib/thumb/v6-m/nofp\libg.a(lib_a-lock.o)
 .bss.__lock___atexit_recursive_mutex
                0x00000000        0x1 d:/pico/armcc/10 2021.10/bin/../lib/gcc/arm-none-eabi/10.3.1/../../../../arm-none-eabi/lib/thumb/v6-m/nofp\libg.a(lib_a-lock.o)
 .bss.__lock___dd_hash_mutex
                0x00000000        0x1 d:/pico/armcc/10 2021.10/bin/../lib/gcc/arm-none-eabi/10.3.1/../../../../arm-none-eabi/lib/thumb/v6-m/nofp\libg.a(lib_a-lock.o)
 .bss.__lock___env_recursive_mutex
                0x00000000        0x1 d:/pico/armcc/10 2021.10/bin/../lib/gcc/arm-none-eabi/10.3.1/../../../../arm-none-eabi/lib/thumb/v6-m/nofp\libg.a(lib_a-lock.o)
 .bss.__lock___malloc_recursive_mutex
                0x00000000        0x1 d:/pico/armcc/10 2021.10/bin/../lib/gcc/arm-none-eabi/10.3.1/../../../../arm-none-eabi/lib/thumb/v6-m/nofp\libg.a(lib_a-lock.o)
 .bss.__lock___sfp_recursive_mutex
                0x00000000        0x1 d:/pico/armcc/10 2021.10/bin/../lib/gcc/arm-none-eabi/10.3.1/../../../../arm-none-eabi/lib/thumb/v6-m/nofp\libg.a(lib_a-lock.o)
 .bss.__lock___sinit_recursive_mutex
                0x00000000        0x1 d:/pico/armcc/10 2021.10/bin/../lib/gcc/arm-none-eabi/10.3.1/../../../../arm-none-eabi/lib/thumb/v6-m/nofp\libg.a(lib_a-lock.o)
 .bss.__lock___tz_mutex
                0x00000000        0x1 d:/pico/armcc/10 2021.10/bin/../lib/gcc/arm-none-eabi/10.3.1/../../../../arm-none-eabi/lib/thumb/v6-m/nofp\libg.a(lib_a-lock.o)
 .debug_frame   0x00000000       0xb0 d:/pico/armcc/10 2021.10/bin/../lib/gcc/arm-none-eabi/10.3.1/../../../../arm-none-eabi/lib/thumb/v6-m/nofp\libg.a(lib_a-lock.o)
 .ARM.attributes
                0x00000000       0x2c d:/pico/armcc/10 2021.10/bin/../lib/gcc/arm-none-eabi/10.3.1/../../../../arm-none-eabi/lib/thumb/v6-m/nofp\libg.a(lib_a-lock.o)
 .text          0x00000000        0x0 d:/pico/armcc/10 2021.10/bin/../lib/gcc/arm-none-eabi/10.3.1/../../../../arm-none-eabi/lib/thumb/v6-m/nofp\libg.a(lib_a-memmove.o)
 .data          0x00000000        0x0 d:/pico/armcc/10 2021.10/bin/../lib/gcc/arm-none-eabi/10.3.1/../../../../arm-none-eabi/lib/thumb/v6-m/nofp\libg.a(lib_a-memmove.o)
 .bss           0x00000000        0x0 d:/pico/armcc/10 2021.10/bin/../lib/gcc/arm-none-eabi/10.3.1/../../../../arm-none-eabi/lib/thumb/v6-m/nofp\libg.a(lib_a-memmove.o)
 .text.memmove  0x00000000       0xac d:/pico/armcc/10 2021.10/bin/../lib/gcc/arm-none-eabi/10.3.1/../../../../arm-none-eabi/lib/thumb/v6-m/nofp\libg.a(lib_a-memmove.o)
 .debug_frame   0x00000000       0x30 d:/pico/armcc/10 2021.10/bin/../lib/gcc/arm-none-eabi/10.3.1/../../../../arm-none-eabi/lib/thumb/v6-m/nofp\libg.a(lib_a-memmove.o)
 .ARM.attributes
                0x00000000       0x2c d:/pico/armcc/10 2021.10/bin/../lib/gcc/arm-none-eabi/10.3.1/../../../../arm-none-eabi/lib/thumb/v6-m/nofp\libg.a(lib_a-memmove.o)
 .text          0x00000000        0x0 d:/pico/armcc/10 2021.10/bin/../lib/gcc/arm-none-eabi/10.3.1/../../../../arm-none-eabi/lib/thumb/v6-m/nofp\libg.a(lib_a-reent.o)
 .data          0x00000000        0x0 d:/pico/armcc/10 2021.10/bin/../lib/gcc/arm-none-eabi/10.3.1/../../../../arm-none-eabi/lib/thumb/v6-m/nofp\libg.a(lib_a-reent.o)
 .bss           0x00000000        0x0 d:/pico/armcc/10 2021.10/bin/../lib/gcc/arm-none-eabi/10.3.1/../../../../arm-none-eabi/lib/thumb/v6-m/nofp\libg.a(lib_a-reent.o)
 .text.cleanup_glue
                0x00000000       0x50 d:/pico/armcc/10 2021.10/bin/../lib/gcc/arm-none-eabi/10.3.1/../../../../arm-none-eabi/lib/thumb/v6-m/nofp\libg.a(lib_a-reent.o)
 .text._reclaim_reent
                0x00000000       0xa0 d:/pico/armcc/10 2021.10/bin/../lib/gcc/arm-none-eabi/10.3.1/../../../../arm-none-eabi/lib/thumb/v6-m/nofp\libg.a(lib_a-reent.o)
 .bss.errno     0x00000000        0x4 d:/pico/armcc/10 2021.10/bin/../lib/gcc/arm-none-eabi/10.3.1/../../../../arm-none-eabi/lib/thumb/v6-m/nofp\libg.a(lib_a-reent.o)
 .debug_frame   0x00000000       0x50 d:/pico/armcc/10 2021.10/bin/../lib/gcc/arm-none-eabi/10.3.1/../../../../arm-none-eabi/lib/thumb/v6-m/nofp\libg.a(lib_a-reent.o)
 .ARM.attributes
                0x00000000       0x2c d:/pico/armcc/10 2021.10/bin/../lib/gcc/arm-none-eabi/10.3.1/../../../../arm-none-eabi/lib/thumb/v6-m/nofp\libg.a(lib_a-reent.o)
 .text          0x00000000        0x0 d:/pico/armcc/10 2021.10/bin/../lib/gcc/arm-none-eabi/10.3.1/thumb/v6-m/nofp/crtend.o
 .data          0x00000000        0x0 d:/pico/armcc/10 2021.10/bin/../lib/gcc/arm-none-eabi/10.3.1/thumb/v6-m/nofp/crtend.o
 .bss           0x00000000        0x0 d:/pico/armcc/10 2021.10/bin/../lib/gcc/arm-none-eabi/10.3.1/thumb/v6-m/nofp/crtend.o
 .rodata        0x00000000       0x24 d:/pico/armcc/10 2021.10/bin/../lib/gcc/arm-none-eabi/10.3.1/thumb/v6-m/nofp/crtend.o
 .eh_frame      0x00000000        0x4 d:/pico/armcc/10 2021.10/bin/../lib/gcc/arm-none-eabi/10.3.1/thumb/v6-m/nofp/crtend.o
 .ARM.attributes
                0x00000000       0x2c d:/pico/armcc/10 2021.10/bin/../lib/gcc/arm-none-eabi/10.3.1/thumb/v6-m/nofp/crtend.o
 .text          0x00000000        0x0 d:/pico/armcc/10 2021.10/bin/../lib/gcc/arm-none-eabi/10.3.1/thumb/v6-m/nofp/crtn.o
 .data          0x00000000        0x0 d:/pico/armcc/10 2021.10/bin/../lib/gcc/arm-none-eabi/10.3.1/thumb/v6-m/nofp/crtn.o
 .bss           0x00000000        0x0 d:/pico/armcc/10 2021.10/bin/../lib/gcc/arm-none-eabi/10.3.1/thumb/v6-m/nofp/crtn.o
 .init          0x00000000        0x8 d:/pico/armcc/10 2021.10/bin/../lib/gcc/arm-none-eabi/10.3.1/thumb/v6-m/nofp/crtn.o
 .fini          0x00000000        0x8 d:/pico/armcc/10 2021.10/bin/../lib/gcc/arm-none-eabi/10.3.1/thumb/v6-m/nofp/crtn.o
 .ARM.attributes
                0x00000000       0x1e d:/pico/armcc/10 2021.10/bin/../lib/gcc/arm-none-eabi/10.3.1/thumb/v6-m/nofp/crtn.o

Memory Configuration

Name             Origin             Length             Attributes
FLASH            0x10000000         0x00200000         xr
RAM              0x20000000         0x00040000         xrw
SCRATCH_X        0x20040000         0x00001000         xrw
SCRATCH_Y        0x20041000         0x00001000         xrw
*default*        0x00000000         0xffffffff

Linker script and memory map

LOAD d:/pico/armcc/10 2021.10/bin/../lib/gcc/arm-none-eabi/10.3.1/thumb/v6-m/nofp/crti.o
LOAD d:/pico/armcc/10 2021.10/bin/../lib/gcc/arm-none-eabi/10.3.1/thumb/v6-m/nofp/crtbegin.o
LOAD d:/pico/armcc/10 2021.10/bin/../lib/gcc/arm-none-eabi/10.3.1/../../../../arm-none-eabi/lib/thumb/v6-m/nofp/crt0.o

.flash_begin    0x10000000        0x0
                0x10000000                __flash_binary_start = .

.boot2          0x10000000      0x100
                0x10000000                __boot2_start__ = .
 *(.boot2)
 .boot2         0x10000000      0x100 C:\Users\ployy\AppData\Local\Temp\ccQVgsae.o
                0x10000100                __boot2_end__ = .
                0x00000001                ASSERT (((__boot2_end__ - __boot2_start__) == 0x100), ERROR: Pico second stage bootloader must be 256 bytes in size)

.text           0x10000100     0xa0a8
                0x10000100                __logical_binary_start = .
 *(.vectors)
 .vectors       0x10000100       0xd4 CMakeFiles/example1.dir/D_/pico/pico-sdk/src/rp2_common/pico_standard_link/crt0.S.obj
                0x10000100                __VECTOR_TABLE
                0x10000100                __vectors
                0x100001c0                isr_invalid
                0x100001c0                __default_isrs_start
                0x100001c2                isr_nmi
                0x100001c4                isr_hardfault
                0x100001c6                isr_svcall
                0x100001c8                isr_pendsv
                0x100001ca                isr_systick
                0x100001cc                isr_irq23
                0x100001cc                isr_irq18
                0x100001cc                isr_irq11
                0x100001cc                isr_irq28
                0x100001cc                isr_irq19
                0x100001cc                isr_irq0
                0x100001cc                isr_irq6
                0x100001cc                isr_irq5
                0x100001cc                isr_irq12
                0x100001cc                isr_irq22
                0x100001cc                isr_irq31
                0x100001cc                isr_irq17
                0x100001cc                isr_irq27
                0x100001cc                isr_irq30
                0x100001cc                isr_irq2
                0x100001cc                isr_irq10
                0x100001cc                isr_irq8
                0x100001cc                isr_irq24
                0x100001cc                isr_irq1
                0x100001cc                isr_irq7
                0x100001cc                isr_irq21
                0x100001cc                isr_irq20
                0x100001cc                isr_irq15
                0x100001cc                isr_irq25
                0x100001cc                isr_irq13
                0x100001cc                __unhandled_user_irq
                0x100001cc                isr_irq4
                0x100001cc                isr_irq16
                0x100001cc                isr_irq29
                0x100001cc                isr_irq26
                0x100001cc                __default_isrs_end
                0x100001cc                isr_irq3
                0x100001cc                isr_irq14
                0x100001cc                isr_irq9
                0x100001d2                unhandled_user_irq_num_in_r0
 *(.binary_info_header)
 .binary_info_header
                0x100001d4       0x14 CMakeFiles/example1.dir/D_/pico/pico-sdk/src/rp2_common/pico_standard_link/crt0.S.obj
                0x100001e8                __binary_info_header_end = .
 *(.reset)
 .reset         0x100001e8       0xa8 CMakeFiles/example1.dir/D_/pico/pico-sdk/src/rp2_common/pico_standard_link/crt0.S.obj
                0x100001e8                _entry_point
                0x10000266                __get_current_exception
 .reset         0x10000290       0x30 CMakeFiles/example1.dir/D_/pico/pico-sdk/src/rp2_common/pico_standard_link/binary_info.c.obj
 *(.init)
 .init          0x100002c0        0x4 d:/pico/armcc/10 2021.10/bin/../lib/gcc/arm-none-eabi/10.3.1/thumb/v6-m/nofp/crti.o
                0x100002c0                _init
 *(EXCLUDE_FILE(*libm.a: *libc.a:*lib_a-mem*.o *libgcc.a:) .text*)
 .text          0x100002c4       0x48 d:/pico/armcc/10 2021.10/bin/../lib/gcc/arm-none-eabi/10.3.1/thumb/v6-m/nofp/crtbegin.o
 .text.prvSetupHardware
                0x1000030c        0x8 CMakeFiles/example1.dir/main.c.obj
 .text.vLaunch  0x10000314        0x8 CMakeFiles/example1.dir/main.c.obj
                0x10000314                vLaunch
 .text.main     0x1000031c        0xe CMakeFiles/example1.dir/main.c.obj
                0x1000031c                main
 *fill*         0x1000032a        0x2 
 .text.vApplicationMallocFailedHook
                0x1000032c       0x1c CMakeFiles/example1.dir/main.c.obj
                0x1000032c                vApplicationMallocFailedHook
 .text.vApplicationStackOverflowHook
                0x10000348       0x1c CMakeFiles/example1.dir/main.c.obj
                0x10000348                vApplicationStackOverflowHook
 .text.vApplicationTickHook
                0x10000364        0x2 CMakeFiles/example1.dir/main.c.obj
                0x10000364                vApplicationTickHook
 *fill*         0x10000366        0x2 
 .text.vTask1   0x10000368       0x1c CMakeFiles/example1.dir/ex1_create_task.c.obj
                0x10000368                vTask1
 .text.vTask2   0x10000384       0x1c CMakeFiles/example1.dir/ex1_create_task.c.obj
                0x10000384                vTask2
 .text.create_task
                0x100003a0       0x44 CMakeFiles/example1.dir/ex1_create_task.c.obj
                0x100003a0                create_task
 .text.hw_claim_lock
                0x100003e4       0x18 CMakeFiles/example1.dir/D_/pico/pico-sdk/src/rp2_common/hardware_claim/claim.c.obj
                0x100003e4                hw_claim_lock
 .text.hw_claim_unlock
                0x100003fc       0x14 CMakeFiles/example1.dir/D_/pico/pico-sdk/src/rp2_common/hardware_claim/claim.c.obj
                0x100003fc                hw_claim_unlock
 .text.hw_claim_or_assert
                0x10000410       0x32 CMakeFiles/example1.dir/D_/pico/pico-sdk/src/rp2_common/hardware_claim/claim.c.obj
                0x10000410                hw_claim_or_assert
 .text.hw_claim_unused_from_range
                0x10000442       0x50 CMakeFiles/example1.dir/D_/pico/pico-sdk/src/rp2_common/hardware_claim/claim.c.obj
                0x10000442                hw_claim_unused_from_range
 *fill*         0x10000492        0x2 
 .text.running_on_fpga
                0x10000494       0x14 CMakeFiles/example1.dir/D_/pico/pico-sdk/src/rp2_common/pico_platform/platform.c.obj
                0x10000494                running_on_fpga
 .text.spin_locks_reset
                0x100004a8       0x20 CMakeFiles/example1.dir/D_/pico/pico-sdk/src/rp2_common/hardware_sync/sync.c.obj
                0x100004a8                spin_locks_reset
 .text.next_striped_spin_lock_num
                0x100004c8       0x1c CMakeFiles/example1.dir/D_/pico/pico-sdk/src/rp2_common/hardware_sync/sync.c.obj
                0x100004c8                next_striped_spin_lock_num
 .text.spin_lock_claim
                0x100004e4       0x18 CMakeFiles/example1.dir/D_/pico/pico-sdk/src/rp2_common/hardware_sync/sync.c.obj
                0x100004e4                spin_lock_claim
 .text.spin_lock_claim_unused
                0x100004fc       0x20 CMakeFiles/example1.dir/D_/pico/pico-sdk/src/rp2_common/hardware_sync/sync.c.obj
                0x100004fc                spin_lock_claim_unused
 .text.set_raw_irq_handler_and_unlock
                0x1000051c       0x28 CMakeFiles/example1.dir/D_/pico/pico-sdk/src/rp2_common/hardware_irq/irq.c.obj
 .text.make_branch
                0x10000544       0x48 CMakeFiles/example1.dir/D_/pico/pico-sdk/src/rp2_common/hardware_irq/irq.c.obj
 .text.insert_branch_and_link
                0x1000058c       0x40 CMakeFiles/example1.dir/D_/pico/pico-sdk/src/rp2_common/hardware_irq/irq.c.obj
 .text.irq_is_enabled
                0x100005cc       0x18 CMakeFiles/example1.dir/D_/pico/pico-sdk/src/rp2_common/hardware_irq/irq.c.obj
                0x100005cc                irq_is_enabled
 .text.irq_set_mask_enabled
                0x100005e4       0x20 CMakeFiles/example1.dir/D_/pico/pico-sdk/src/rp2_common/hardware_irq/irq.c.obj
                0x100005e4                irq_set_mask_enabled
 .text.irq_set_enabled
                0x10000604        0xe CMakeFiles/example1.dir/D_/pico/pico-sdk/src/rp2_common/hardware_irq/irq.c.obj
                0x10000604                irq_set_enabled
 *fill*         0x10000612        0x2 
 .text.irq_set_pending
                0x10000614       0x10 CMakeFiles/example1.dir/D_/pico/pico-sdk/src/rp2_common/hardware_irq/irq.c.obj
                0x10000614                irq_set_pending
 .text.irq_get_vtable_handler
                0x10000624       0x10 CMakeFiles/example1.dir/D_/pico/pico-sdk/src/rp2_common/hardware_irq/irq.c.obj
                0x10000624                irq_get_vtable_handler
 .text.irq_has_shared_handler
                0x10000634       0x24 CMakeFiles/example1.dir/D_/pico/pico-sdk/src/rp2_common/hardware_irq/irq.c.obj
                0x10000634                irq_has_shared_handler
 .text.irq_set_exclusive_handler
                0x10000658       0x54 CMakeFiles/example1.dir/D_/pico/pico-sdk/src/rp2_common/hardware_irq/irq.c.obj
                0x10000658                irq_set_exclusive_handler
 .text.irq_add_shared_handler
                0x100006ac      0x230 CMakeFiles/example1.dir/D_/pico/pico-sdk/src/rp2_common/hardware_irq/irq.c.obj
                0x100006ac                irq_add_shared_handler
 .text.irq_remove_handler
                0x100008dc      0x1a8 CMakeFiles/example1.dir/D_/pico/pico-sdk/src/rp2_common/hardware_irq/irq.c.obj
                0x100008dc                irq_remove_handler
 .text.irq_set_priority
                0x10000a84       0x28 CMakeFiles/example1.dir/D_/pico/pico-sdk/src/rp2_common/hardware_irq/irq.c.obj
                0x10000a84                irq_set_priority
 .text.irq_add_tail_to_free_list
                0x10000aac       0xf0 CMakeFiles/example1.dir/D_/pico/pico-sdk/src/rp2_common/hardware_irq/irq.c.obj
                0x10000aac                irq_add_tail_to_free_list
 .text.irq_init_priorities
                0x10000b9c       0x1c CMakeFiles/example1.dir/D_/pico/pico-sdk/src/rp2_common/hardware_irq/irq.c.obj
                0x10000b9c                irq_init_priorities
 .text.user_irq_claim_unused
                0x10000bb8       0x30 CMakeFiles/example1.dir/D_/pico/pico-sdk/src/rp2_common/hardware_irq/irq.c.obj
                0x10000bb8                user_irq_claim_unused
 .text.lock_init
                0x10000be8       0x10 CMakeFiles/example1.dir/D_/pico/pico-sdk/src/common/pico_sync/lock_core.c.obj
                0x10000be8                lock_init
 .text.alarm_pool_post_alloc_init
                0x10000bf8       0x40 CMakeFiles/example1.dir/D_/pico/pico-sdk/src/common/pico_time/time.c.obj
 .text.sleep_until_callback
                0x10000c38       0x28 CMakeFiles/example1.dir/D_/pico/pico-sdk/src/common/pico_time/time.c.obj
 .text.timer_pool_entry_comparator
                0x10000c60       0x7c CMakeFiles/example1.dir/D_/pico/pico-sdk/src/common/pico_time/time.c.obj
                0x10000c60                timer_pool_entry_comparator
 .text.ph_add_child_node
                0x10000cdc       0xa4 CMakeFiles/example1.dir/D_/pico/pico-sdk/src/common/pico_time/time.c.obj
 .text.ph_merge_nodes
                0x10000d80       0x3e CMakeFiles/example1.dir/D_/pico/pico-sdk/src/common/pico_time/time.c.obj
 *fill*         0x10000dbe        0x2 
 .text.add_alarm_under_lock
                0x10000dc0      0x174 CMakeFiles/example1.dir/D_/pico/pico-sdk/src/common/pico_time/time.c.obj
 .text.alarm_pool_alarm_callback
                0x10000f34      0x328 CMakeFiles/example1.dir/D_/pico/pico-sdk/src/common/pico_time/time.c.obj
 .text.alarm_pool_init_default
                0x1000125c       0x38 CMakeFiles/example1.dir/D_/pico/pico-sdk/src/common/pico_time/time.c.obj
                0x1000125c                alarm_pool_init_default
 .text.alarm_pool_get_default
                0x10001294       0x2c CMakeFiles/example1.dir/D_/pico/pico-sdk/src/common/pico_time/time.c.obj
                0x10001294                alarm_pool_get_default
 .text.alarm_pool_add_alarm_at
                0x100012c0      0x170 CMakeFiles/example1.dir/D_/pico/pico-sdk/src/common/pico_time/time.c.obj
                0x100012c0                alarm_pool_add_alarm_at
 .text.alarm_pool_cancel_alarm
                0x10001430       0xf0 CMakeFiles/example1.dir/D_/pico/pico-sdk/src/common/pico_time/time.c.obj
                0x10001430                alarm_pool_cancel_alarm
 .text.best_effort_wfe_or_timeout
                0x10001520       0x80 CMakeFiles/example1.dir/D_/pico/pico-sdk/src/common/pico_time/time.c.obj
                0x10001520                best_effort_wfe_or_timeout
 .text.hardware_alarm_irq_handler
                0x100015a0       0x8c CMakeFiles/example1.dir/D_/pico/pico-sdk/src/rp2_common/hardware_timer/timer.c.obj
 .text.hardware_alarm_claim
                0x1000162c       0x18 CMakeFiles/example1.dir/D_/pico/pico-sdk/src/rp2_common/hardware_timer/timer.c.obj
                0x1000162c                hardware_alarm_claim
 .text.time_us_64
                0x10001644       0x18 CMakeFiles/example1.dir/D_/pico/pico-sdk/src/rp2_common/hardware_timer/timer.c.obj
                0x10001644                time_us_64
 .text.hardware_alarm_set_callback
                0x1000165c       0x90 CMakeFiles/example1.dir/D_/pico/pico-sdk/src/rp2_common/hardware_timer/timer.c.obj
                0x1000165c                hardware_alarm_set_callback
 .text.hardware_alarm_set_target
                0x100016ec       0xe8 CMakeFiles/example1.dir/D_/pico/pico-sdk/src/rp2_common/hardware_timer/timer.c.obj
                0x100016ec                hardware_alarm_set_target
 .text.hardware_alarm_cancel
                0x100017d4       0x40 CMakeFiles/example1.dir/D_/pico/pico-sdk/src/rp2_common/hardware_timer/timer.c.obj
                0x100017d4                hardware_alarm_cancel
 .text.ph_add_child_node
                0x10001814       0xa4 CMakeFiles/example1.dir/D_/pico/pico-sdk/src/common/pico_util/pheap.c.obj
 .text.ph_merge_nodes
                0x100018b8       0x3e CMakeFiles/example1.dir/D_/pico/pico-sdk/src/common/pico_util/pheap.c.obj
 *fill*         0x100018f6        0x2 
 .text.ph_clear
                0x100018f8       0x70 CMakeFiles/example1.dir/D_/pico/pico-sdk/src/common/pico_util/pheap.c.obj
                0x100018f8                ph_clear
 .text.ph_post_alloc_init
                0x10001968        0xe CMakeFiles/example1.dir/D_/pico/pico-sdk/src/common/pico_util/pheap.c.obj
                0x10001968                ph_post_alloc_init
 *fill*         0x10001976        0x2 
 .text.ph_merge_two_pass
                0x10001978       0xa8 CMakeFiles/example1.dir/D_/pico/pico-sdk/src/common/pico_util/pheap.c.obj
                0x10001978                ph_merge_two_pass
 .text.ph_remove_any_head
                0x10001a20      0x108 CMakeFiles/example1.dir/D_/pico/pico-sdk/src/common/pico_util/pheap.c.obj
 .text.ph_remove_head
                0x10001b28       0x14 CMakeFiles/example1.dir/D_/pico/pico-sdk/src/common/pico_util/pheap.c.obj
                0x10001b28                ph_remove_head
 .text.ph_remove_and_free_node
                0x10001b3c       0xf8 CMakeFiles/example1.dir/D_/pico/pico-sdk/src/common/pico_util/pheap.c.obj
                0x10001b3c                ph_remove_and_free_node
 .text.mutex_init
                0x10001c34       0x1c CMakeFiles/example1.dir/D_/pico/pico-sdk/src/common/pico_sync/mutex.c.obj
                0x10001c34                mutex_init
 .text.recursive_mutex_init
                0x10001c50       0x20 CMakeFiles/example1.dir/D_/pico/pico-sdk/src/common/pico_sync/mutex.c.obj
                0x10001c50                recursive_mutex_init
 .text.critical_section_init_with_lock_num
                0x10001c70       0x14 CMakeFiles/example1.dir/D_/pico/pico-sdk/src/common/pico_sync/critical_section.c.obj
                0x10001c70                critical_section_init_with_lock_num
 .text.critical_section_init
                0x10001c84       0x14 CMakeFiles/example1.dir/D_/pico/pico-sdk/src/common/pico_sync/critical_section.c.obj
                0x10001c84                critical_section_init
 .text._exit    0x10001c98        0x4 CMakeFiles/example1.dir/D_/pico/pico-sdk/src/rp2_common/pico_runtime/runtime.c.obj
                0x10001c98                _exit
 .text.exit     0x10001c9c        0x6 CMakeFiles/example1.dir/D_/pico/pico-sdk/src/rp2_common/pico_runtime/runtime.c.obj
                0x10001c9c                exit
 *fill*         0x10001ca2        0x2 
 .text.__assert_func
                0x10001ca4       0x3c CMakeFiles/example1.dir/D_/pico/pico-sdk/src/rp2_common/pico_runtime/runtime.c.obj
                0x10001ca4                __assert_func
 .text.runtime_init
                0x10001ce0       0xf8 CMakeFiles/example1.dir/D_/pico/pico-sdk/src/rp2_common/pico_runtime/runtime.c.obj
                0x10001ce0                runtime_init
 .text.panic    0x10001dd8       0x30 CMakeFiles/example1.dir/D_/pico/pico-sdk/src/rp2_common/pico_runtime/runtime.c.obj
                0x10001dd8                panic
 .text.panic_unsupported
                0x10001e08        0xc CMakeFiles/example1.dir/D_/pico/pico-sdk/src/rp2_common/pico_runtime/runtime.c.obj
                0x10001e08                panic_unsupported
 .text.clock_configure
                0x10001e14      0x104 CMakeFiles/example1.dir/D_/pico/pico-sdk/src/rp2_common/hardware_clocks/clocks.c.obj
                0x10001e14                clock_configure
 .text.clocks_init
                0x10001f18      0x100 CMakeFiles/example1.dir/D_/pico/pico-sdk/src/rp2_common/hardware_clocks/clocks.c.obj
                0x10001f18                clocks_init
 .text.clock_get_hz
                0x10002018        0xc CMakeFiles/example1.dir/D_/pico/pico-sdk/src/rp2_common/hardware_clocks/clocks.c.obj
                0x10002018                clock_get_hz
 .text.pll_init
                0x10002024      0x140 CMakeFiles/example1.dir/D_/pico/pico-sdk/src/rp2_common/hardware_pll/pll.c.obj
                0x10002024                pll_init
 .text.watchdog_start_tick
                0x10002164       0x10 CMakeFiles/example1.dir/D_/pico/pico-sdk/src/rp2_common/hardware_watchdog/watchdog.c.obj
                0x10002164                watchdog_start_tick
 .text.watchdog_update
                0x10002174       0x14 CMakeFiles/example1.dir/D_/pico/pico-sdk/src/rp2_common/hardware_watchdog/watchdog.c.obj
                0x10002174                watchdog_update
 .text._watchdog_enable
                0x10002188       0x78 CMakeFiles/example1.dir/D_/pico/pico-sdk/src/rp2_common/hardware_watchdog/watchdog.c.obj
                0x10002188                _watchdog_enable
 .text.watchdog_reboot
                0x10002200       0x48 CMakeFiles/example1.dir/D_/pico/pico-sdk/src/rp2_common/hardware_watchdog/watchdog.c.obj
                0x10002200                watchdog_reboot
 .text.xosc_init
                0x10002248       0x28 CMakeFiles/example1.dir/D_/pico/pico-sdk/src/rp2_common/hardware_xosc/xosc.c.obj
                0x10002248                xosc_init
 .text._out_null
                0x10002270        0x2 CMakeFiles/example1.dir/D_/pico/pico-sdk/src/rp2_common/pico_printf/printf.c.obj
 .text._out_fct
                0x10002272        0xe CMakeFiles/example1.dir/D_/pico/pico-sdk/src/rp2_common/pico_printf/printf.c.obj
 .text._atoi    0x10002280       0x24 CMakeFiles/example1.dir/D_/pico/pico-sdk/src/rp2_common/pico_printf/printf.c.obj
 .text._out_rev
                0x100022a4       0xae CMakeFiles/example1.dir/D_/pico/pico-sdk/src/rp2_common/pico_printf/printf.c.obj
 .text._ntoa_format
                0x10002352      0x112 CMakeFiles/example1.dir/D_/pico/pico-sdk/src/rp2_common/pico_printf/printf.c.obj
 .text._ntoa_long
                0x10002464       0xbc CMakeFiles/example1.dir/D_/pico/pico-sdk/src/rp2_common/pico_printf/printf.c.obj
 .text._ntoa_long_long
                0x10002520       0xe2 CMakeFiles/example1.dir/D_/pico/pico-sdk/src/rp2_common/pico_printf/printf.c.obj
 *fill*         0x10002602        0x2 
 .text._etoa    0x10002604      0x414 CMakeFiles/example1.dir/D_/pico/pico-sdk/src/rp2_common/pico_printf/printf.c.obj
 .text._ftoa    0x10002a18      0x354 CMakeFiles/example1.dir/D_/pico/pico-sdk/src/rp2_common/pico_printf/printf.c.obj
 .text._vsnprintf
                0x10002d6c      0x624 CMakeFiles/example1.dir/D_/pico/pico-sdk/src/rp2_common/pico_printf/printf.c.obj
 .text.vfctprintf
                0x10003390       0x20 CMakeFiles/example1.dir/D_/pico/pico-sdk/src/rp2_common/pico_printf/printf.c.obj
                0x10003390                vfctprintf
 .text          0x100033b0       0x10 CMakeFiles/example1.dir/D_/pico/pico-sdk/src/rp2_common/pico_bit_ops/bit_ops_aeabi.S.obj
 .text.rom_func_lookup
                0x100033c0       0x10 CMakeFiles/example1.dir/D_/pico/pico-sdk/src/rp2_common/pico_bootrom/bootrom.c.obj
                0x100033c0                rom_func_lookup
 .text.rom_data_lookup
                0x100033d0       0x10 CMakeFiles/example1.dir/D_/pico/pico-sdk/src/rp2_common/pico_bootrom/bootrom.c.obj
                0x100033d0                rom_data_lookup
 .text.rom_funcs_lookup
                0x100033e0       0x36 CMakeFiles/example1.dir/D_/pico/pico-sdk/src/rp2_common/pico_bootrom/bootrom.c.obj
                0x100033e0                rom_funcs_lookup
 *fill*         0x10003416        0x2 
 .text.__wrap___aeabi_idiv
                0x10003418       0x50 CMakeFiles/example1.dir/D_/pico/pico-sdk/src/rp2_common/pico_divider/divider.S.obj
                0x10003418                __wrap___aeabi_idivmod
                0x10003418                divmod_s32s32
                0x10003418                div_s32s32
                0x10003418                __wrap___aeabi_idiv
                0x10003420                divmod_s32s32_unsafe
                0x1000344c                divmod_s32s32_savestate
 .text.__wrap___aeabi_uidiv
                0x10003468       0x4c CMakeFiles/example1.dir/D_/pico/pico-sdk/src/rp2_common/pico_divider/divider.S.obj
                0x10003468                __wrap___aeabi_uidiv
                0x10003468                __wrap___aeabi_uidivmod
                0x10003468                div_u32u32
                0x10003468                divmod_u32u32
                0x10003470                divmod_u32u32_unsafe
                0x10003498                divmod_u32u32_savestate
 .text.__wrap___aeabi_ldiv
                0x100034b4      0x434 CMakeFiles/example1.dir/D_/pico/pico-sdk/src/rp2_common/pico_divider/divider.S.obj
                0x100034b4                div_s64s64
                0x100034b4                divmod_s64s64
                0x100034b4                __wrap___aeabi_ldivmod
                0x100034ec                divmod_u64u64
                0x100034ec                div_u64u64
                0x100034ec                __wrap___aeabi_uldivmod
                0x100034fc                divmod_u64u64_savestate
                0x10003524                divmod_s64s64_unsafe
                0x100035ac                divmod_u64u64_unsafe
 .text.__wrap___aeabi_darithmetic
                0x100038e8       0x80 CMakeFiles/example1.dir/D_/pico/pico-sdk/src/rp2_common/pico_double/double_aeabi.S.obj
                0x100038e8                __wrap___aeabi_drsub
                0x100038ee                __wrap___aeabi_dsub
                0x10003900                __wrap___aeabi_dadd
                0x10003912                __wrap___aeabi_ddiv
                0x1000394e                __wrap___aeabi_dmul
 .text.__wrap___aeabi_cdcmple
                0x10003968       0x6c CMakeFiles/example1.dir/D_/pico/pico-sdk/src/rp2_common/pico_double/double_aeabi.S.obj
                0x10003968                __wrap___aeabi_cdrcmple
                0x10003978                __wrap___aeabi_cdcmpeq
                0x10003978                __wrap___aeabi_cdcmple
 .text.__wrap___aeabi_dcmplt
                0x100039d4        0xc CMakeFiles/example1.dir/D_/pico/pico-sdk/src/rp2_common/pico_double/double_aeabi.S.obj
                0x100039d4                __wrap___aeabi_dcmplt
 .text.__wrap___aeabi_dcmple
                0x100039e0       0x10 CMakeFiles/example1.dir/D_/pico/pico-sdk/src/rp2_common/pico_double/double_aeabi.S.obj
                0x100039e0                __wrap___aeabi_dcmple
 .text.__wrap___aeabi_dcmpge
                0x100039f0       0x10 CMakeFiles/example1.dir/D_/pico/pico-sdk/src/rp2_common/pico_double/double_aeabi.S.obj
                0x100039f0                __wrap___aeabi_dcmpge
 .text.__wrap___aeabi_dcmpgt
                0x10003a00        0xa CMakeFiles/example1.dir/D_/pico/pico-sdk/src/rp2_common/pico_double/double_aeabi.S.obj
                0x10003a00                __wrap___aeabi_dcmpgt
 .text.__wrap___aeabi_dcmpun
                0x10003a0a       0x1c CMakeFiles/example1.dir/D_/pico/pico-sdk/src/rp2_common/pico_double/double_aeabi.S.obj
                0x10003a0a                __wrap___aeabi_dcmpun
 *fill*         0x10003a26        0x2 
 .text.__wrap___aeabi_i2d
                0x10003a28       0x38 CMakeFiles/example1.dir/D_/pico/pico-sdk/src/rp2_common/pico_double/double_aeabi.S.obj
                0x10003a28                __wrap___aeabi_ui2d
                0x10003a30                __wrap___aeabi_i2d
 .text.__wrap___aeabi_d2iz
                0x10003a60       0x48 CMakeFiles/example1.dir/D_/pico/pico-sdk/src/rp2_common/pico_double/double_aeabi.S.obj
                0x10003a60                double2int_z
                0x10003a60                __wrap___aeabi_d2iz
 .text.__wrap___aeabi_d2uiz
                0x10003aa8       0x18 CMakeFiles/example1.dir/D_/pico/pico-sdk/src/rp2_common/pico_double/double_aeabi.S.obj
                0x10003aa8                __wrap___aeabi_d2uiz
                0x10003aa8                double2uint
 .text.__aeabi_double_init
                0x10003ac0       0xc8 CMakeFiles/example1.dir/D_/pico/pico-sdk/src/rp2_common/pico_double/double_init_rom.c.obj
                0x10003ac0                __aeabi_double_init
 .text.double_table_shim_on_use_helper
                0x10003b88       0x34 CMakeFiles/example1.dir/D_/pico/pico-sdk/src/rp2_common/pico_double/double_v1_rom_shim.S.obj
                0x10003b88                double_table_shim_on_use_helper
 .text.__wrap___aeabi_dsub
                0x10003bbc       0x10 CMakeFiles/example1.dir/D_/pico/pico-sdk/src/rp2_common/pico_double/double_v1_rom_shim.S.obj
                0x10003bbc                drsub_shim
                0x10003bc2                dsub_shim
 .text.dadd_shim
                0x10003bcc      0x15c CMakeFiles/example1.dir/D_/pico/pico-sdk/src/rp2_common/pico_double/double_v1_rom_shim.S.obj
                0x10003bcc                dadd_shim
 .text.dmul_shim
                0x10003d28      0x15c CMakeFiles/example1.dir/D_/pico/pico-sdk/src/rp2_common/pico_double/double_v1_rom_shim.S.obj
                0x10003d28                dmul_shim
 .text.ddiv_shim
                0x10003e84      0x1b0 CMakeFiles/example1.dir/D_/pico/pico-sdk/src/rp2_common/pico_double/double_v1_rom_shim.S.obj
                0x10003e84                ddiv_shim
 .text.double2uint_shim
                0x10004034        0xe CMakeFiles/example1.dir/D_/pico/pico-sdk/src/rp2_common/pico_double/double_v1_rom_shim.S.obj
                0x10004034                double2uint_shim
                0x10004036                double2ufix_shim
 *fill*         0x10004042        0x2 
 .text.double2uint64_shim
                0x10004044       0x70 CMakeFiles/example1.dir/D_/pico/pico-sdk/src/rp2_common/pico_double/double_v1_rom_shim.S.obj
                0x10004044                double2uint64_shim
                0x10004046                double2ufix64_shim
                0x10004066                d2fix_a
 .text.dunpacks
                0x100040b4       0x3c CMakeFiles/example1.dir/D_/pico/pico-sdk/src/rp2_common/pico_double/double_v1_rom_shim.S.obj
                0x100040b4                dunpacks
 .text.__aeabi_lmul
                0x100040f0       0x32 CMakeFiles/example1.dir/D_/pico/pico-sdk/src/rp2_common/pico_int64_ops/pico_int64_ops_aeabi.S.obj
                0x100040f0                __wrap___aeabi_lmul
 *fill*         0x10004122        0x2 
 .text.__aeabi_float_init
                0x10004124       0xfc CMakeFiles/example1.dir/D_/pico/pico-sdk/src/rp2_common/pico_float/float_init_rom.c.obj
                0x10004124                __aeabi_float_init
 .text.float_table_shim_on_use_helper
                0x10004220       0x34 CMakeFiles/example1.dir/D_/pico/pico-sdk/src/rp2_common/pico_float/float_v1_rom_shim.S.obj
                0x10004220                float_table_shim_on_use_helper
 .text          0x10004254       0x10 CMakeFiles/example1.dir/D_/pico/pico-sdk/src/rp2_common/pico_mem_ops/mem_ops_aeabi.S.obj
                0x10004254                __aeabi_mem_init
 .text.memset   0x10004264        0xc CMakeFiles/example1.dir/D_/pico/pico-sdk/src/rp2_common/pico_mem_ops/mem_ops_aeabi.S.obj
                0x10004264                __wrap_memset
 .text.memcpy   0x10004270        0xc CMakeFiles/example1.dir/D_/pico/pico-sdk/src/rp2_common/pico_mem_ops/mem_ops_aeabi.S.obj
                0x10004270                __wrap_memcpy
                0x10004270                __wrap___aeabi_memcpy
 .text.stdio_out_chars_no_crlf
                0x1000427c        0xe CMakeFiles/example1.dir/D_/pico/pico-sdk/src/rp2_common/pico_stdio/stdio.c.obj
 *fill*         0x1000428a        0x2 
 .text.stdio_out_chars_crlf
                0x1000428c       0x80 CMakeFiles/example1.dir/D_/pico/pico-sdk/src/rp2_common/pico_stdio/stdio.c.obj
 .text.stdio_stack_buffer_flush
                0x1000430c       0x44 CMakeFiles/example1.dir/D_/pico/pico-sdk/src/rp2_common/pico_stdio/stdio.c.obj
 .text.stdio_buffered_printer
                0x10004350       0x20 CMakeFiles/example1.dir/D_/pico/pico-sdk/src/rp2_common/pico_stdio/stdio.c.obj
 .text.stdout_serialize_begin
                0x10004370       0x2c CMakeFiles/example1.dir/D_/pico/pico-sdk/src/rp2_common/pico_stdio/stdio.c.obj
                0x10004370                stdout_serialize_begin
 .text.stdout_serialize_end
                0x1000439c       0x10 CMakeFiles/example1.dir/D_/pico/pico-sdk/src/rp2_common/pico_stdio/stdio.c.obj
                0x1000439c                stdout_serialize_end
 .text.stdio_put_string
                0x100043ac       0x98 CMakeFiles/example1.dir/D_/pico/pico-sdk/src/rp2_common/pico_stdio/stdio.c.obj
 .text.stdio_set_driver_enabled
                0x10004444       0x2c CMakeFiles/example1.dir/D_/pico/pico-sdk/src/rp2_common/pico_stdio/stdio.c.obj
                0x10004444                stdio_set_driver_enabled
 .text.stdio_flush
                0x10004470       0x20 CMakeFiles/example1.dir/D_/pico/pico-sdk/src/rp2_common/pico_stdio/stdio.c.obj
                0x10004470                stdio_flush
 .text.__wrap_puts
                0x10004490       0x1e CMakeFiles/example1.dir/D_/pico/pico-sdk/src/rp2_common/pico_stdio/stdio.c.obj
                0x10004490                __wrap_puts
 *fill*         0x100044ae        0x2 
 .text.__wrap_vprintf
                0x100044b0       0x44 CMakeFiles/example1.dir/D_/pico/pico-sdk/src/rp2_common/pico_stdio/stdio.c.obj
                0x100044b0                __wrap_vprintf
 .text.__wrap_printf
                0x100044f4       0x18 CMakeFiles/example1.dir/D_/pico/pico-sdk/src/rp2_common/pico_stdio/stdio.c.obj
                0x100044f4                __wrap_printf
 .text.stdio_init_all
                0x1000450c        0x8 CMakeFiles/example1.dir/D_/pico/pico-sdk/src/rp2_common/pico_stdio/stdio.c.obj
                0x1000450c                stdio_init_all
 .text.resetd_init
                0x10004514        0x2 CMakeFiles/example1.dir/D_/pico/pico-sdk/src/rp2_common/pico_stdio_usb/reset_interface.c.obj
 *fill*         0x10004516        0x2 
 .text.resetd_reset
                0x10004518        0xc CMakeFiles/example1.dir/D_/pico/pico-sdk/src/rp2_common/pico_stdio_usb/reset_interface.c.obj
 .text.resetd_open
                0x10004524       0x34 CMakeFiles/example1.dir/D_/pico/pico-sdk/src/rp2_common/pico_stdio_usb/reset_interface.c.obj
 .text.resetd_xfer_cb
                0x10004558        0x4 CMakeFiles/example1.dir/D_/pico/pico-sdk/src/rp2_common/pico_stdio_usb/reset_interface.c.obj
 .text.reset_usb_boot
                0x1000455c       0x18 CMakeFiles/example1.dir/D_/pico/pico-sdk/src/rp2_common/pico_stdio_usb/reset_interface.c.obj
 .text.resetd_control_xfer_cb
                0x10004574       0x5c CMakeFiles/example1.dir/D_/pico/pico-sdk/src/rp2_common/pico_stdio_usb/reset_interface.c.obj
 .text.usbd_app_driver_get_cb
                0x100045d0        0xc CMakeFiles/example1.dir/D_/pico/pico-sdk/src/rp2_common/pico_stdio_usb/reset_interface.c.obj
                0x100045d0                usbd_app_driver_get_cb
 .text.tud_cdc_line_coding_cb
                0x100045dc       0x28 CMakeFiles/example1.dir/D_/pico/pico-sdk/src/rp2_common/pico_stdio_usb/reset_interface.c.obj
                0x100045dc                tud_cdc_line_coding_cb
 .text.stdio_usb_in_chars
                0x10004604       0x70 CMakeFiles/example1.dir/D_/pico/pico-sdk/src/rp2_common/pico_stdio_usb/stdio_usb.c.obj
                0x10004604                stdio_usb_in_chars
 .text.low_priority_worker_irq
                0x10004674       0x20 CMakeFiles/example1.dir/D_/pico/pico-sdk/src/rp2_common/pico_stdio_usb/stdio_usb.c.obj
 .text.stdio_usb_out_chars
                0x10004694       0xd4 CMakeFiles/example1.dir/D_/pico/pico-sdk/src/rp2_common/pico_stdio_usb/stdio_usb.c.obj
 .text.timer_task
                0x10004768       0x40 CMakeFiles/example1.dir/D_/pico/pico-sdk/src/rp2_common/pico_stdio_usb/stdio_usb.c.obj
 .text.usb_irq  0x100047a8       0x10 CMakeFiles/example1.dir/D_/pico/pico-sdk/src/rp2_common/pico_stdio_usb/stdio_usb.c.obj
 .text.stdio_usb_init
                0x100047b8       0xec CMakeFiles/example1.dir/D_/pico/pico-sdk/src/rp2_common/pico_stdio_usb/stdio_usb.c.obj
                0x100047b8                stdio_usb_init
 .text.tud_descriptor_device_cb
                0x100048a4        0x8 CMakeFiles/example1.dir/D_/pico/pico-sdk/src/rp2_common/pico_stdio_usb/stdio_usb_descriptors.c.obj
                0x100048a4                tud_descriptor_device_cb
 .text.tud_descriptor_configuration_cb
                0x100048ac        0x8 CMakeFiles/example1.dir/D_/pico/pico-sdk/src/rp2_common/pico_stdio_usb/stdio_usb_descriptors.c.obj
                0x100048ac                tud_descriptor_configuration_cb
 .text.tud_descriptor_string_cb
                0x100048b4       0x6c CMakeFiles/example1.dir/D_/pico/pico-sdk/src/rp2_common/pico_stdio_usb/stdio_usb_descriptors.c.obj
                0x100048b4                tud_descriptor_string_cb
 .text.hw_endpoint_get_by_addr
                0x10004920       0x18 CMakeFiles/example1.dir/D_/pico/pico-sdk/lib/tinyusb/src/portable/raspberrypi/rp2040/dcd_rp2040.c.obj
 .text.reset_ep0_pid
                0x10004938       0x28 CMakeFiles/example1.dir/D_/pico/pico-sdk/lib/tinyusb/src/portable/raspberrypi/rp2040/dcd_rp2040.c.obj
 .text._hw_endpoint_alloc
                0x10004960       0x70 CMakeFiles/example1.dir/D_/pico/pico-sdk/lib/tinyusb/src/portable/raspberrypi/rp2040/dcd_rp2040.c.obj
 .text.hw_endpoint_init
                0x100049d0       0x88 CMakeFiles/example1.dir/D_/pico/pico-sdk/lib/tinyusb/src/portable/raspberrypi/rp2040/dcd_rp2040.c.obj
 .text.reset_non_control_endpoints
                0x10004a58       0x40 CMakeFiles/example1.dir/D_/pico/pico-sdk/lib/tinyusb/src/portable/raspberrypi/rp2040/dcd_rp2040.c.obj
 .text.hw_handle_buff_status
                0x10004a98       0x8c CMakeFiles/example1.dir/D_/pico/pico-sdk/lib/tinyusb/src/portable/raspberrypi/rp2040/dcd_rp2040.c.obj
 .text.dcd_rp2040_irq
                0x10004b24       0xc0 CMakeFiles/example1.dir/D_/pico/pico-sdk/lib/tinyusb/src/portable/raspberrypi/rp2040/dcd_rp2040.c.obj
 .text.hw_endpoint_xfer
                0x10004be4       0x14 CMakeFiles/example1.dir/D_/pico/pico-sdk/lib/tinyusb/src/portable/raspberrypi/rp2040/dcd_rp2040.c.obj
 .text.dcd_int_enable
                0x10004bf8       0x2c CMakeFiles/example1.dir/D_/pico/pico-sdk/lib/tinyusb/src/portable/raspberrypi/rp2040/dcd_rp2040.c.obj
                0x10004bf8                dcd_int_enable
 .text.dcd_set_address
                0x10004c24       0x2c CMakeFiles/example1.dir/D_/pico/pico-sdk/lib/tinyusb/src/portable/raspberrypi/rp2040/dcd_rp2040.c.obj
                0x10004c24                dcd_set_address
 .text.dcd_connect
                0x10004c50       0x10 CMakeFiles/example1.dir/D_/pico/pico-sdk/lib/tinyusb/src/portable/raspberrypi/rp2040/dcd_rp2040.c.obj
                0x10004c50                dcd_connect
 .text.dcd_init
                0x10004c60       0x7c CMakeFiles/example1.dir/D_/pico/pico-sdk/lib/tinyusb/src/portable/raspberrypi/rp2040/dcd_rp2040.c.obj
                0x10004c60                dcd_init
 .text.dcd_edpt0_status_complete
                0x10004cdc       0x1c CMakeFiles/example1.dir/D_/pico/pico-sdk/lib/tinyusb/src/portable/raspberrypi/rp2040/dcd_rp2040.c.obj
                0x10004cdc                dcd_edpt0_status_complete
 .text.dcd_edpt_open
                0x10004cf8       0x40 CMakeFiles/example1.dir/D_/pico/pico-sdk/lib/tinyusb/src/portable/raspberrypi/rp2040/dcd_rp2040.c.obj
                0x10004cf8                dcd_edpt_open
 .text.dcd_edpt_close_all
                0x10004d38        0x8 CMakeFiles/example1.dir/D_/pico/pico-sdk/lib/tinyusb/src/portable/raspberrypi/rp2040/dcd_rp2040.c.obj
                0x10004d38                dcd_edpt_close_all
 .text.dcd_edpt_xfer
                0x10004d40       0x30 CMakeFiles/example1.dir/D_/pico/pico-sdk/lib/tinyusb/src/portable/raspberrypi/rp2040/dcd_rp2040.c.obj
                0x10004d40                dcd_edpt_xfer
 .text.dcd_edpt_stall
                0x10004d70       0x2c CMakeFiles/example1.dir/D_/pico/pico-sdk/lib/tinyusb/src/portable/raspberrypi/rp2040/dcd_rp2040.c.obj
                0x10004d70                dcd_edpt_stall
 .text.dcd_edpt_clear_stall
                0x10004d9c       0x20 CMakeFiles/example1.dir/D_/pico/pico-sdk/lib/tinyusb/src/portable/raspberrypi/rp2040/dcd_rp2040.c.obj
                0x10004d9c                dcd_edpt_clear_stall
 .text.prepare_ep_buffer
                0x10004dbc       0x70 CMakeFiles/example1.dir/D_/pico/pico-sdk/lib/tinyusb/src/portable/raspberrypi/rp2040/rp2040_usb.c.obj
 .text.sync_ep_buffer
                0x10004e2c       0x7c CMakeFiles/example1.dir/D_/pico/pico-sdk/lib/tinyusb/src/portable/raspberrypi/rp2040/rp2040_usb.c.obj
 .text._hw_endpoint_xfer_sync
                0x10004ea8       0x28 CMakeFiles/example1.dir/D_/pico/pico-sdk/lib/tinyusb/src/portable/raspberrypi/rp2040/rp2040_usb.c.obj
 .text.rp2040_usb_init
                0x10004ed0       0x4c CMakeFiles/example1.dir/D_/pico/pico-sdk/lib/tinyusb/src/portable/raspberrypi/rp2040/rp2040_usb.c.obj
                0x10004ed0                rp2040_usb_init
 .text.hw_endpoint_reset_transfer
                0x10004f1c        0xc CMakeFiles/example1.dir/D_/pico/pico-sdk/lib/tinyusb/src/portable/raspberrypi/rp2040/rp2040_usb.c.obj
                0x10004f1c                hw_endpoint_reset_transfer
 .text._hw_endpoint_buffer_control_update32
                0x10004f28       0x58 CMakeFiles/example1.dir/D_/pico/pico-sdk/lib/tinyusb/src/portable/raspberrypi/rp2040/rp2040_usb.c.obj
                0x10004f28                _hw_endpoint_buffer_control_update32
 .text._hw_endpoint_start_next_buffer
                0x10004f80       0x74 CMakeFiles/example1.dir/D_/pico/pico-sdk/lib/tinyusb/src/portable/raspberrypi/rp2040/rp2040_usb.c.obj
 .text.hw_endpoint_xfer_start
                0x10004ff4       0x48 CMakeFiles/example1.dir/D_/pico/pico-sdk/lib/tinyusb/src/portable/raspberrypi/rp2040/rp2040_usb.c.obj
                0x10004ff4                hw_endpoint_xfer_start
 .text.hw_endpoint_xfer_continue
                0x1000503c       0x38 CMakeFiles/example1.dir/D_/pico/pico-sdk/lib/tinyusb/src/portable/raspberrypi/rp2040/rp2040_usb.c.obj
                0x1000503c                hw_endpoint_xfer_continue
 .text.configuration_reset
                0x10005074       0x84 CMakeFiles/example1.dir/D_/pico/pico-sdk/lib/tinyusb/src/device/usbd.c.obj
 .text.usbd_reset
                0x100050f8        0xc CMakeFiles/example1.dir/D_/pico/pico-sdk/lib/tinyusb/src/device/usbd.c.obj
 .text.invoke_class_control
                0x10005104       0x1a CMakeFiles/example1.dir/D_/pico/pico-sdk/lib/tinyusb/src/device/usbd.c.obj
 *fill*         0x1000511e        0x2 
 .text.process_set_config
                0x10005120      0x1b0 CMakeFiles/example1.dir/D_/pico/pico-sdk/lib/tinyusb/src/device/usbd.c.obj
 .text.process_get_descriptor
                0x100052d0       0xec CMakeFiles/example1.dir/D_/pico/pico-sdk/lib/tinyusb/src/device/usbd.c.obj
 .text.tud_mounted
                0x100053bc       0x10 CMakeFiles/example1.dir/D_/pico/pico-sdk/lib/tinyusb/src/device/usbd.c.obj
                0x100053bc                tud_mounted
 .text.tud_suspended
                0x100053cc       0x10 CMakeFiles/example1.dir/D_/pico/pico-sdk/lib/tinyusb/src/device/usbd.c.obj
                0x100053cc                tud_suspended
 .text.tud_inited
                0x100053dc        0xc CMakeFiles/example1.dir/D_/pico/pico-sdk/lib/tinyusb/src/device/usbd.c.obj
                0x100053dc                tud_inited
 .text.tud_init
                0x100053e8       0xcc CMakeFiles/example1.dir/D_/pico/pico-sdk/lib/tinyusb/src/device/usbd.c.obj
                0x100053e8                tud_init
 .text.dcd_event_handler
                0x100054b4      0x1e0 CMakeFiles/example1.dir/D_/pico/pico-sdk/lib/tinyusb/src/device/usbd.c.obj
                0x100054b4                dcd_event_handler
 .text.dcd_event_bus_signal
                0x10005694       0x26 CMakeFiles/example1.dir/D_/pico/pico-sdk/lib/tinyusb/src/device/usbd.c.obj
                0x10005694                dcd_event_bus_signal
 .text.dcd_event_bus_reset
                0x100056ba       0x2a CMakeFiles/example1.dir/D_/pico/pico-sdk/lib/tinyusb/src/device/usbd.c.obj
                0x100056ba                dcd_event_bus_reset
 .text.dcd_event_setup_received
                0x100056e4       0x34 CMakeFiles/example1.dir/D_/pico/pico-sdk/lib/tinyusb/src/device/usbd.c.obj
                0x100056e4                dcd_event_setup_received
 .text.dcd_event_xfer_complete
                0x10005718       0x44 CMakeFiles/example1.dir/D_/pico/pico-sdk/lib/tinyusb/src/device/usbd.c.obj
                0x10005718                dcd_event_xfer_complete
 .text.usbd_edpt_open
                0x1000575c       0x58 CMakeFiles/example1.dir/D_/pico/pico-sdk/lib/tinyusb/src/device/usbd.c.obj
                0x1000575c                usbd_edpt_open
 .text.usbd_open_edpt_pair
                0x100057b4       0x8c CMakeFiles/example1.dir/D_/pico/pico-sdk/lib/tinyusb/src/device/usbd.c.obj
                0x100057b4                usbd_open_edpt_pair
 .text.usbd_edpt_claim
                0x10005840       0x8c CMakeFiles/example1.dir/D_/pico/pico-sdk/lib/tinyusb/src/device/usbd.c.obj
                0x10005840                usbd_edpt_claim
 .text.usbd_edpt_release
                0x100058cc       0x68 CMakeFiles/example1.dir/D_/pico/pico-sdk/lib/tinyusb/src/device/usbd.c.obj
                0x100058cc                usbd_edpt_release
 .text.usbd_edpt_xfer
                0x10005934       0x80 CMakeFiles/example1.dir/D_/pico/pico-sdk/lib/tinyusb/src/device/usbd.c.obj
                0x10005934                usbd_edpt_xfer
 .text.usbd_edpt_stall
                0x100059b4       0x40 CMakeFiles/example1.dir/D_/pico/pico-sdk/lib/tinyusb/src/device/usbd.c.obj
                0x100059b4                usbd_edpt_stall
 .text.usbd_edpt_clear_stall
                0x100059f4       0x40 CMakeFiles/example1.dir/D_/pico/pico-sdk/lib/tinyusb/src/device/usbd.c.obj
                0x100059f4                usbd_edpt_clear_stall
 .text.usbd_edpt_stalled
                0x10005a34       0x1c CMakeFiles/example1.dir/D_/pico/pico-sdk/lib/tinyusb/src/device/usbd.c.obj
                0x10005a34                usbd_edpt_stalled
 .text.process_control_request
                0x10005a50      0x3b8 CMakeFiles/example1.dir/D_/pico/pico-sdk/lib/tinyusb/src/device/usbd.c.obj
 .text.tud_task
                0x10005e08      0x218 CMakeFiles/example1.dir/D_/pico/pico-sdk/lib/tinyusb/src/device/usbd.c.obj
                0x10005e08                tud_task
 .text._data_stage_xact
                0x10006020       0x58 CMakeFiles/example1.dir/D_/pico/pico-sdk/lib/tinyusb/src/device/usbd_control.c.obj
 .text.tud_control_status
                0x10006078       0x38 CMakeFiles/example1.dir/D_/pico/pico-sdk/lib/tinyusb/src/device/usbd_control.c.obj
                0x10006078                tud_control_status
 .text.tud_control_xfer
                0x100060b0       0xa8 CMakeFiles/example1.dir/D_/pico/pico-sdk/lib/tinyusb/src/device/usbd_control.c.obj
                0x100060b0                tud_control_xfer
 .text.usbd_control_reset
                0x10006158       0x14 CMakeFiles/example1.dir/D_/pico/pico-sdk/lib/tinyusb/src/device/usbd_control.c.obj
                0x10006158                usbd_control_reset
 .text.usbd_control_set_complete_callback
                0x1000616c        0xc CMakeFiles/example1.dir/D_/pico/pico-sdk/lib/tinyusb/src/device/usbd_control.c.obj
                0x1000616c                usbd_control_set_complete_callback
 .text.usbd_control_set_request
                0x10006178       0x1c CMakeFiles/example1.dir/D_/pico/pico-sdk/lib/tinyusb/src/device/usbd_control.c.obj
                0x10006178                usbd_control_set_request
 .text.usbd_control_xfer_cb
                0x10006194       0xfc CMakeFiles/example1.dir/D_/pico/pico-sdk/lib/tinyusb/src/device/usbd_control.c.obj
                0x10006194                usbd_control_xfer_cb
 .text._prep_out_transaction
                0x10006290       0x46 CMakeFiles/example1.dir/D_/pico/pico-sdk/lib/tinyusb/src/class/cdc/cdc_device.c.obj
 *fill*         0x100062d6        0x2 
 .text.tud_cdc_n_connected
                0x100062d8       0x44 CMakeFiles/example1.dir/D_/pico/pico-sdk/lib/tinyusb/src/class/cdc/cdc_device.c.obj
                0x100062d8                tud_cdc_n_connected
 .text.tud_cdc_n_available
                0x1000631c       0x18 CMakeFiles/example1.dir/D_/pico/pico-sdk/lib/tinyusb/src/class/cdc/cdc_device.c.obj
                0x1000631c                tud_cdc_n_available
 .text.tud_cdc_n_read
                0x10006334       0x28 CMakeFiles/example1.dir/D_/pico/pico-sdk/lib/tinyusb/src/class/cdc/cdc_device.c.obj
                0x10006334                tud_cdc_n_read
 .text.tud_cdc_n_write_flush
                0x1000635c       0xcc CMakeFiles/example1.dir/D_/pico/pico-sdk/lib/tinyusb/src/class/cdc/cdc_device.c.obj
                0x1000635c                tud_cdc_n_write_flush
 .text.tud_cdc_n_write
                0x10006428       0x38 CMakeFiles/example1.dir/D_/pico/pico-sdk/lib/tinyusb/src/class/cdc/cdc_device.c.obj
                0x10006428                tud_cdc_n_write
 .text.tud_cdc_n_write_available
                0x10006460       0x1c CMakeFiles/example1.dir/D_/pico/pico-sdk/lib/tinyusb/src/class/cdc/cdc_device.c.obj
                0x10006460                tud_cdc_n_write_available
 .text.cdcd_init
                0x1000647c       0xbc CMakeFiles/example1.dir/D_/pico/pico-sdk/lib/tinyusb/src/class/cdc/cdc_device.c.obj
                0x1000647c                cdcd_init
 .text.cdcd_reset
                0x10006538       0x44 CMakeFiles/example1.dir/D_/pico/pico-sdk/lib/tinyusb/src/class/cdc/cdc_device.c.obj
                0x10006538                cdcd_reset
 .text.cdcd_open
                0x1000657c       0xf8 CMakeFiles/example1.dir/D_/pico/pico-sdk/lib/tinyusb/src/class/cdc/cdc_device.c.obj
                0x1000657c                cdcd_open
 .text.cdcd_control_xfer_cb
                0x10006674      0x134 CMakeFiles/example1.dir/D_/pico/pico-sdk/lib/tinyusb/src/class/cdc/cdc_device.c.obj
                0x10006674                cdcd_control_xfer_cb
 .text.cdcd_xfer_cb
                0x100067a8      0x144 CMakeFiles/example1.dir/D_/pico/pico-sdk/lib/tinyusb/src/class/cdc/cdc_device.c.obj
                0x100067a8                cdcd_xfer_cb
 .text.tusb_init
                0x100068ec       0x24 CMakeFiles/example1.dir/D_/pico/pico-sdk/lib/tinyusb/src/tusb.c.obj
                0x100068ec                tusb_init
 .text.tusb_inited
                0x10006910        0xe CMakeFiles/example1.dir/D_/pico/pico-sdk/lib/tinyusb/src/tusb.c.obj
                0x10006910                tusb_inited
 *fill*         0x1000691e        0x2 
 .text.tu_edpt_validate
                0x10006920       0xa8 CMakeFiles/example1.dir/D_/pico/pico-sdk/lib/tinyusb/src/tusb.c.obj
                0x10006920                tu_edpt_validate
 .text.tu_edpt_bind_driver
                0x100069c8       0x2a CMakeFiles/example1.dir/D_/pico/pico-sdk/lib/tinyusb/src/tusb.c.obj
                0x100069c8                tu_edpt_bind_driver
 .text.advance_pointer
                0x100069f2       0x18 CMakeFiles/example1.dir/D_/pico/pico-sdk/lib/tinyusb/src/common/tusb_fifo.c.obj
 .text.backward_pointer
                0x10006a0a       0x1e CMakeFiles/example1.dir/D_/pico/pico-sdk/lib/tinyusb/src/common/tusb_fifo.c.obj
 .text.get_relative_pointer
                0x10006a28       0x10 CMakeFiles/example1.dir/D_/pico/pico-sdk/lib/tinyusb/src/common/tusb_fifo.c.obj
 .text._tu_fifo_peek
                0x10006a38       0x50 CMakeFiles/example1.dir/D_/pico/pico-sdk/lib/tinyusb/src/common/tusb_fifo.c.obj
 .text._ff_pull_const_addr
                0x10006a88       0x4c CMakeFiles/example1.dir/D_/pico/pico-sdk/lib/tinyusb/src/common/tusb_fifo.c.obj
 .text._ff_pull_n
                0x10006ad4      0x10c CMakeFiles/example1.dir/D_/pico/pico-sdk/lib/tinyusb/src/common/tusb_fifo.c.obj
 .text._tu_fifo_peek_n
                0x10006be0       0x5e CMakeFiles/example1.dir/D_/pico/pico-sdk/lib/tinyusb/src/common/tusb_fifo.c.obj
 .text._tu_fifo_read_n
                0x10006c3e       0x4e CMakeFiles/example1.dir/D_/pico/pico-sdk/lib/tinyusb/src/common/tusb_fifo.c.obj
 .text._ff_push_const_addr
                0x10006c8c       0x40 CMakeFiles/example1.dir/D_/pico/pico-sdk/lib/tinyusb/src/common/tusb_fifo.c.obj
 .text._ff_push_n
                0x10006ccc      0x108 CMakeFiles/example1.dir/D_/pico/pico-sdk/lib/tinyusb/src/common/tusb_fifo.c.obj
 .text._tu_fifo_write_n
                0x10006dd4       0x9e CMakeFiles/example1.dir/D_/pico/pico-sdk/lib/tinyusb/src/common/tusb_fifo.c.obj
 .text.tu_fifo_config
                0x10006e72       0x72 CMakeFiles/example1.dir/D_/pico/pico-sdk/lib/tinyusb/src/common/tusb_fifo.c.obj
                0x10006e72                tu_fifo_config
 .text.tu_fifo_count
                0x10006ee4       0x26 CMakeFiles/example1.dir/D_/pico/pico-sdk/lib/tinyusb/src/common/tusb_fifo.c.obj
                0x10006ee4                tu_fifo_count
 .text.tu_fifo_empty
                0x10006f0a       0x10 CMakeFiles/example1.dir/D_/pico/pico-sdk/lib/tinyusb/src/common/tusb_fifo.c.obj
                0x10006f0a                tu_fifo_empty
 .text.tu_fifo_remaining
                0x10006f1a       0x20 CMakeFiles/example1.dir/D_/pico/pico-sdk/lib/tinyusb/src/common/tusb_fifo.c.obj
                0x10006f1a                tu_fifo_remaining
 .text.tu_fifo_read
                0x10006f3a       0x42 CMakeFiles/example1.dir/D_/pico/pico-sdk/lib/tinyusb/src/common/tusb_fifo.c.obj
                0x10006f3a                tu_fifo_read
 .text.tu_fifo_read_n
                0x10006f7c        0xa CMakeFiles/example1.dir/D_/pico/pico-sdk/lib/tinyusb/src/common/tusb_fifo.c.obj
                0x10006f7c                tu_fifo_read_n
 .text.tu_fifo_write
                0x10006f86       0x6c CMakeFiles/example1.dir/D_/pico/pico-sdk/lib/tinyusb/src/common/tusb_fifo.c.obj
                0x10006f86                tu_fifo_write
 .text.tu_fifo_write_n
                0x10006ff2        0xa CMakeFiles/example1.dir/D_/pico/pico-sdk/lib/tinyusb/src/common/tusb_fifo.c.obj
                0x10006ff2                tu_fifo_write_n
 .text.tu_fifo_clear
                0x10006ffc       0x4c CMakeFiles/example1.dir/D_/pico/pico-sdk/lib/tinyusb/src/common/tusb_fifo.c.obj
                0x10006ffc                tu_fifo_clear
 .text.tu_fifo_set_overwritable
                0x10007048       0x3c CMakeFiles/example1.dir/D_/pico/pico-sdk/lib/tinyusb/src/common/tusb_fifo.c.obj
                0x10007048                tu_fifo_set_overwritable
 .text._retrieve_unique_id_on_boot
                0x10007084       0x10 CMakeFiles/example1.dir/D_/pico/pico-sdk/src/rp2_common/pico_unique_id/unique_id.c.obj
 .text.pico_get_unique_board_id_string
                0x10007094       0x60 CMakeFiles/example1.dir/D_/pico/pico-sdk/src/rp2_common/pico_unique_id/unique_id.c.obj
                0x10007094                pico_get_unique_board_id_string
 .text.flash_get_unique_id
                0x100070f4       0x46 CMakeFiles/example1.dir/D_/pico/pico-sdk/src/rp2_common/hardware_flash/flash.c.obj
                0x100070f4                flash_get_unique_id
 .text.vPortSVCHandler
                0x1000713a        0x2 CMakeFiles/example1.dir/D_/pico/pico-FreeRTOS-SMP/Source/portable/ThirdParty/GCC/RP2040/port.c.obj
                0x1000713a                vPortSVCHandler
 .text.vPortStartFirstTask
                0x1000713c       0x28 CMakeFiles/example1.dir/D_/pico/pico-FreeRTOS-SMP/Source/portable/ThirdParty/GCC/RP2040/port.c.obj
 *fill*         0x10007164        0xc 
 .text.xPortPendSVHandler
                0x10007170       0x68 CMakeFiles/example1.dir/D_/pico/pico-FreeRTOS-SMP/Source/portable/ThirdParty/GCC/RP2040/port.c.obj
                0x10007170                xPortPendSVHandler
 .text.prvTaskExitError
                0x100071d8        0x6 CMakeFiles/example1.dir/D_/pico/pico-FreeRTOS-SMP/Source/portable/ThirdParty/GCC/RP2040/port.c.obj
 *fill*         0x100071de        0x2 
 .text.prvFIFOInterruptHandler
                0x100071e0       0x78 CMakeFiles/example1.dir/D_/pico/pico-FreeRTOS-SMP/Source/portable/ThirdParty/GCC/RP2040/port.c.obj
 .text.xPortSysTickHandler
                0x10007258       0x2c CMakeFiles/example1.dir/D_/pico/pico-FreeRTOS-SMP/Source/portable/ThirdParty/GCC/RP2040/port.c.obj
                0x10007258                xPortSysTickHandler
 .text.prvGetTicksToWaitBefore
                0x10007284       0x58 CMakeFiles/example1.dir/D_/pico/pico-FreeRTOS-SMP/Source/portable/ThirdParty/GCC/RP2040/port.c.obj
 .text.pxPortInitialiseStack
                0x100072dc       0x20 CMakeFiles/example1.dir/D_/pico/pico-FreeRTOS-SMP/Source/portable/ThirdParty/GCC/RP2040/port.c.obj
                0x100072dc                pxPortInitialiseStack
 .text.vPortYield
                0x100072fc       0x40 CMakeFiles/example1.dir/D_/pico/pico-FreeRTOS-SMP/Source/portable/ThirdParty/GCC/RP2040/port.c.obj
                0x100072fc                vPortYield
 .text.vPortEnableInterrupts
                0x1000733c       0x28 CMakeFiles/example1.dir/D_/pico/pico-FreeRTOS-SMP/Source/portable/ThirdParty/GCC/RP2040/port.c.obj
                0x1000733c                vPortEnableInterrupts
 .text.vYieldCore
                0x10007364       0x24 CMakeFiles/example1.dir/D_/pico/pico-FreeRTOS-SMP/Source/portable/ThirdParty/GCC/RP2040/port.c.obj
                0x10007364                vYieldCore
 .text.vPortSetupTimerInterrupt
                0x10007388       0x34 CMakeFiles/example1.dir/D_/pico/pico-FreeRTOS-SMP/Source/portable/ThirdParty/GCC/RP2040/port.c.obj
                0x10007388                vPortSetupTimerInterrupt
 .text.xPortStartSchedulerOnCore
                0x100073bc       0xac CMakeFiles/example1.dir/D_/pico/pico-FreeRTOS-SMP/Source/portable/ThirdParty/GCC/RP2040/port.c.obj
 .text.xPortStartScheduler
                0x10007468       0x44 CMakeFiles/example1.dir/D_/pico/pico-FreeRTOS-SMP/Source/portable/ThirdParty/GCC/RP2040/port.c.obj
                0x10007468                xPortStartScheduler
 .text.ulPortLockGetCurrentOwnerId
                0x100074ac       0x30 CMakeFiles/example1.dir/D_/pico/pico-FreeRTOS-SMP/Source/portable/ThirdParty/GCC/RP2040/port.c.obj
                0x100074ac                ulPortLockGetCurrentOwnerId
 .text.vPortLockInternalSpinUnlockWithWait
                0x100074dc       0xd8 CMakeFiles/example1.dir/D_/pico/pico-FreeRTOS-SMP/Source/portable/ThirdParty/GCC/RP2040/port.c.obj
                0x100074dc                vPortLockInternalSpinUnlockWithWait
 .text.vPortLockInternalSpinUnlockWithNotify
                0x100075b4       0xd0 CMakeFiles/example1.dir/D_/pico/pico-FreeRTOS-SMP/Source/portable/ThirdParty/GCC/RP2040/port.c.obj
                0x100075b4                vPortLockInternalSpinUnlockWithNotify
 .text.xPortLockInternalSpinUnlockWithBestEffortWaitOrTimeout
                0x10007684      0x130 CMakeFiles/example1.dir/D_/pico/pico-FreeRTOS-SMP/Source/portable/ThirdParty/GCC/RP2040/port.c.obj
                0x10007684                xPortLockInternalSpinUnlockWithBestEffortWaitOrTimeout
 .text.prvRuntimeInitializer
                0x100077b4       0x28 CMakeFiles/example1.dir/D_/pico/pico-FreeRTOS-SMP/Source/portable/ThirdParty/GCC/RP2040/port.c.obj
 .text.prvTestWaitCondition
                0x100077dc       0x1e CMakeFiles/example1.dir/D_/pico/pico-FreeRTOS-SMP/Source/event_groups.c.obj
 .text.xEventGroupCreate
                0x100077fa       0x18 CMakeFiles/example1.dir/D_/pico/pico-FreeRTOS-SMP/Source/event_groups.c.obj
                0x100077fa                xEventGroupCreate
 *fill*         0x10007812        0x2 
 .text.xEventGroupWaitBits
                0x10007814      0x124 CMakeFiles/example1.dir/D_/pico/pico-FreeRTOS-SMP/Source/event_groups.c.obj
                0x10007814                xEventGroupWaitBits
 .text.xEventGroupSetBits
                0x10007938       0x98 CMakeFiles/example1.dir/D_/pico/pico-FreeRTOS-SMP/Source/event_groups.c.obj
                0x10007938                xEventGroupSetBits
 .text.vEventGroupSetBitsCallback
                0x100079d0        0x8 CMakeFiles/example1.dir/D_/pico/pico-FreeRTOS-SMP/Source/event_groups.c.obj
                0x100079d0                vEventGroupSetBitsCallback
 .text.xEventGroupSetBitsFromISR
                0x100079d8       0x14 CMakeFiles/example1.dir/D_/pico/pico-FreeRTOS-SMP/Source/event_groups.c.obj
                0x100079d8                xEventGroupSetBitsFromISR
 .text.vListInitialise
                0x100079ec       0x16 CMakeFiles/example1.dir/D_/pico/pico-FreeRTOS-SMP/Source/list.c.obj
                0x100079ec                vListInitialise
 .text.vListInitialiseItem
                0x10007a02        0x6 CMakeFiles/example1.dir/D_/pico/pico-FreeRTOS-SMP/Source/list.c.obj
                0x10007a02                vListInitialiseItem
 .text.vListInsertEnd
                0x10007a08       0x16 CMakeFiles/example1.dir/D_/pico/pico-FreeRTOS-SMP/Source/list.c.obj
                0x10007a08                vListInsertEnd
 .text.vListInsert
                0x10007a1e       0x2e CMakeFiles/example1.dir/D_/pico/pico-FreeRTOS-SMP/Source/list.c.obj
                0x10007a1e                vListInsert
 .text.uxListRemove
                0x10007a4c       0x26 CMakeFiles/example1.dir/D_/pico/pico-FreeRTOS-SMP/Source/list.c.obj
                0x10007a4c                uxListRemove
 .text.prvIsQueueFull
                0x10007a72       0x1e CMakeFiles/example1.dir/D_/pico/pico-FreeRTOS-SMP/Source/queue.c.obj
 .text.prvIsQueueEmpty
                0x10007a90       0x1c CMakeFiles/example1.dir/D_/pico/pico-FreeRTOS-SMP/Source/queue.c.obj
 .text.prvCopyDataToQueue
                0x10007aac       0x82 CMakeFiles/example1.dir/D_/pico/pico-FreeRTOS-SMP/Source/queue.c.obj
 *fill*         0x10007b2e        0x2 
 .text.prvNotifyQueueSetContainer
                0x10007b30       0xa0 CMakeFiles/example1.dir/D_/pico/pico-FreeRTOS-SMP/Source/queue.c.obj
 .text.prvCopyDataFromQueue
                0x10007bd0       0x24 CMakeFiles/example1.dir/D_/pico/pico-FreeRTOS-SMP/Source/queue.c.obj
 .text.prvUnlockQueue
                0x10007bf4       0x88 CMakeFiles/example1.dir/D_/pico/pico-FreeRTOS-SMP/Source/queue.c.obj
 .text.xQueueGenericReset
                0x10007c7c       0x84 CMakeFiles/example1.dir/D_/pico/pico-FreeRTOS-SMP/Source/queue.c.obj
                0x10007c7c                xQueueGenericReset
 .text.prvInitialiseNewQueue
                0x10007d00       0x26 CMakeFiles/example1.dir/D_/pico/pico-FreeRTOS-SMP/Source/queue.c.obj
 *fill*         0x10007d26        0x2 
 .text.xQueueGenericCreate
                0x10007d28       0x88 CMakeFiles/example1.dir/D_/pico/pico-FreeRTOS-SMP/Source/queue.c.obj
                0x10007d28                xQueueGenericCreate
 .text.xQueueGenericSend
                0x10007db0      0x190 CMakeFiles/example1.dir/D_/pico/pico-FreeRTOS-SMP/Source/queue.c.obj
                0x10007db0                xQueueGenericSend
 .text.xQueueGenericSendFromISR
                0x10007f40      0x134 CMakeFiles/example1.dir/D_/pico/pico-FreeRTOS-SMP/Source/queue.c.obj
                0x10007f40                xQueueGenericSendFromISR
 .text.xQueueReceive
                0x10008074      0x150 CMakeFiles/example1.dir/D_/pico/pico-FreeRTOS-SMP/Source/queue.c.obj
                0x10008074                xQueueReceive
 .text.vQueueAddToRegistry
                0x100081c4       0x5c CMakeFiles/example1.dir/D_/pico/pico-FreeRTOS-SMP/Source/queue.c.obj
                0x100081c4                vQueueAddToRegistry
 .text.vQueueWaitForMessageRestricted
                0x10008220       0x50 CMakeFiles/example1.dir/D_/pico/pico-FreeRTOS-SMP/Source/queue.c.obj
                0x10008220                vQueueWaitForMessageRestricted
 .text.prvGetCurrentYieldPending
                0x10008270       0x14 CMakeFiles/example1.dir/D_/pico/pico-FreeRTOS-SMP/Source/tasks.c.obj
 .text.prvResetNextTaskUnblockTime
                0x10008284       0x2c CMakeFiles/example1.dir/D_/pico/pico-FreeRTOS-SMP/Source/tasks.c.obj
 .text.prvDeleteTCB
                0x100082b0       0x12 CMakeFiles/example1.dir/D_/pico/pico-FreeRTOS-SMP/Source/tasks.c.obj
 *fill*         0x100082c2        0x2 
 .text.prvInitialiseNewTask
                0x100082c4       0xe4 CMakeFiles/example1.dir/D_/pico/pico-FreeRTOS-SMP/Source/tasks.c.obj
 .text.prvSelectHighestPriorityTask
                0x100083a8      0x150 CMakeFiles/example1.dir/D_/pico/pico-FreeRTOS-SMP/Source/tasks.c.obj
 .text.prvInitialiseTaskLists
                0x100084f8       0x68 CMakeFiles/example1.dir/D_/pico/pico-FreeRTOS-SMP/Source/tasks.c.obj
 .text.prvYieldCore
                0x10008560       0x54 CMakeFiles/example1.dir/D_/pico/pico-FreeRTOS-SMP/Source/tasks.c.obj
 .text.xTaskGetTickCount
                0x100085b4        0xc CMakeFiles/example1.dir/D_/pico/pico-FreeRTOS-SMP/Source/tasks.c.obj
                0x100085b4                xTaskGetTickCount
 .text.vTaskInternalSetTimeOutState
                0x100085c0       0x18 CMakeFiles/example1.dir/D_/pico/pico-FreeRTOS-SMP/Source/tasks.c.obj
                0x100085c0                vTaskInternalSetTimeOutState
 .text.vTaskMissedYield
                0x100085d8        0xc CMakeFiles/example1.dir/D_/pico/pico-FreeRTOS-SMP/Source/tasks.c.obj
                0x100085d8                vTaskMissedYield
 .text.xTaskGetCurrentTaskHandle
                0x100085e4       0x14 CMakeFiles/example1.dir/D_/pico/pico-FreeRTOS-SMP/Source/tasks.c.obj
                0x100085e4                xTaskGetCurrentTaskHandle
 .text.prvYieldForTask
                0x100085f8       0x7c CMakeFiles/example1.dir/D_/pico/pico-FreeRTOS-SMP/Source/tasks.c.obj
 .text.xTaskRemoveFromEventList
                0x10008674       0x90 CMakeFiles/example1.dir/D_/pico/pico-FreeRTOS-SMP/Source/tasks.c.obj
                0x10008674                xTaskRemoveFromEventList
 .text.prvAddCurrentTaskToDelayedList
                0x10008704       0x84 CMakeFiles/example1.dir/D_/pico/pico-FreeRTOS-SMP/Source/tasks.c.obj
 .text.prvCheckForRunStateChange
                0x10008788      0x304 CMakeFiles/example1.dir/D_/pico/pico-FreeRTOS-SMP/Source/tasks.c.obj
 .text.vTaskSuspendAll
                0x10008a8c      0x17c CMakeFiles/example1.dir/D_/pico/pico-FreeRTOS-SMP/Source/tasks.c.obj
                0x10008a8c                vTaskSuspendAll
 .text.vTaskSwitchContext
                0x10008c08      0x230 CMakeFiles/example1.dir/D_/pico/pico-FreeRTOS-SMP/Source/tasks.c.obj
                0x10008c08                vTaskSwitchContext
 .text.vTaskPlaceOnEventList
                0x10008e38       0x40 CMakeFiles/example1.dir/D_/pico/pico-FreeRTOS-SMP/Source/tasks.c.obj
                0x10008e38                vTaskPlaceOnEventList
 .text.vTaskPlaceOnUnorderedEventList
                0x10008e78       0x6c CMakeFiles/example1.dir/D_/pico/pico-FreeRTOS-SMP/Source/tasks.c.obj
                0x10008e78                vTaskPlaceOnUnorderedEventList
 .text.vTaskPlaceOnEventListRestricted
                0x10008ee4       0x48 CMakeFiles/example1.dir/D_/pico/pico-FreeRTOS-SMP/Source/tasks.c.obj
                0x10008ee4                vTaskPlaceOnEventListRestricted
 .text.xTaskPriorityDisinherit
                0x10008f2c       0x9c CMakeFiles/example1.dir/D_/pico/pico-FreeRTOS-SMP/Source/tasks.c.obj
                0x10008f2c                xTaskPriorityDisinherit
 .text.vTaskYieldWithinAPI
                0x10008fc8       0x20 CMakeFiles/example1.dir/D_/pico/pico-FreeRTOS-SMP/Source/tasks.c.obj
                0x10008fc8                vTaskYieldWithinAPI
 .text.vTaskEnterCritical
                0x10008fe8      0x13c CMakeFiles/example1.dir/D_/pico/pico-FreeRTOS-SMP/Source/tasks.c.obj
                0x10008fe8                vTaskEnterCritical
 .text.vTaskExitCritical
                0x10009124      0x128 CMakeFiles/example1.dir/D_/pico/pico-FreeRTOS-SMP/Source/tasks.c.obj
                0x10009124                vTaskExitCritical
 .text.prvCheckTasksWaitingTermination
                0x1000924c       0x58 CMakeFiles/example1.dir/D_/pico/pico-FreeRTOS-SMP/Source/tasks.c.obj
 .text.prvIdleTask
                0x100092a4       0x1c CMakeFiles/example1.dir/D_/pico/pico-FreeRTOS-SMP/Source/tasks.c.obj
 .text.prvAddNewTaskToReadyList
                0x100092c0       0x9c CMakeFiles/example1.dir/D_/pico/pico-FreeRTOS-SMP/Source/tasks.c.obj
 .text.xTaskCreate
                0x1000935c       0x60 CMakeFiles/example1.dir/D_/pico/pico-FreeRTOS-SMP/Source/tasks.c.obj
                0x1000935c                xTaskCreate
 .text.prvCreateIdleTasks
                0x100093bc       0x70 CMakeFiles/example1.dir/D_/pico/pico-FreeRTOS-SMP/Source/tasks.c.obj
 .text.vTaskStartScheduler
                0x1000942c       0x64 CMakeFiles/example1.dir/D_/pico/pico-FreeRTOS-SMP/Source/tasks.c.obj
                0x1000942c                vTaskStartScheduler
 .text.xTaskIncrementTick
                0x10009490      0x190 CMakeFiles/example1.dir/D_/pico/pico-FreeRTOS-SMP/Source/tasks.c.obj
                0x10009490                xTaskIncrementTick
 .text.xTaskResumeAll
                0x10009620      0x160 CMakeFiles/example1.dir/D_/pico/pico-FreeRTOS-SMP/Source/tasks.c.obj
                0x10009620                xTaskResumeAll
 .text.vTaskDelay
                0x10009780       0x48 CMakeFiles/example1.dir/D_/pico/pico-FreeRTOS-SMP/Source/tasks.c.obj
                0x10009780                vTaskDelay
 .text.vTaskRemoveFromUnorderedEventList
                0x100097c8       0x90 CMakeFiles/example1.dir/D_/pico/pico-FreeRTOS-SMP/Source/tasks.c.obj
                0x100097c8                vTaskRemoveFromUnorderedEventList
 .text.xTaskCheckForTimeOut
                0x10009858       0xbc CMakeFiles/example1.dir/D_/pico/pico-FreeRTOS-SMP/Source/tasks.c.obj
                0x10009858                xTaskCheckForTimeOut
 .text.xTaskGetSchedulerState
                0x10009914       0x30 CMakeFiles/example1.dir/D_/pico/pico-FreeRTOS-SMP/Source/tasks.c.obj
                0x10009914                xTaskGetSchedulerState
 .text.uxTaskResetEventItemValue
                0x10009944       0x1c CMakeFiles/example1.dir/D_/pico/pico-FreeRTOS-SMP/Source/tasks.c.obj
                0x10009944                uxTaskResetEventItemValue
 .text.prvGetNextExpireTime
                0x10009960       0x24 CMakeFiles/example1.dir/D_/pico/pico-FreeRTOS-SMP/Source/timers.c.obj
 .text.prvInsertTimerInActiveList
                0x10009984       0x48 CMakeFiles/example1.dir/D_/pico/pico-FreeRTOS-SMP/Source/timers.c.obj
 .text.prvCheckForValidListAndQueue
                0x100099cc       0x60 CMakeFiles/example1.dir/D_/pico/pico-FreeRTOS-SMP/Source/timers.c.obj
 .text.xTimerCreateTimerTask
                0x10009a2c       0x58 CMakeFiles/example1.dir/D_/pico/pico-FreeRTOS-SMP/Source/timers.c.obj
                0x10009a2c                xTimerCreateTimerTask
 .text.xTimerGenericCommandFromTask
                0x10009a84       0x78 CMakeFiles/example1.dir/D_/pico/pico-FreeRTOS-SMP/Source/timers.c.obj
                0x10009a84                xTimerGenericCommandFromTask
 .text.prvSwitchTimerLists
                0x10009afc       0x88 CMakeFiles/example1.dir/D_/pico/pico-FreeRTOS-SMP/Source/timers.c.obj
 .text.prvSampleTimeNow
                0x10009b84       0x2c CMakeFiles/example1.dir/D_/pico/pico-FreeRTOS-SMP/Source/timers.c.obj
 .text.prvProcessExpiredTimer
                0x10009bb0       0x74 CMakeFiles/example1.dir/D_/pico/pico-FreeRTOS-SMP/Source/timers.c.obj
 .text.prvProcessTimerOrBlockTask
                0x10009c24       0x70 CMakeFiles/example1.dir/D_/pico/pico-FreeRTOS-SMP/Source/timers.c.obj
 .text.prvProcessReceivedCommands
                0x10009c94      0x114 CMakeFiles/example1.dir/D_/pico/pico-FreeRTOS-SMP/Source/timers.c.obj
 .text.prvTimerTask
                0x10009da8       0x16 CMakeFiles/example1.dir/D_/pico/pico-FreeRTOS-SMP/Source/timers.c.obj
 *fill*         0x10009dbe        0x2 
 .text.xTimerPendFunctionCallFromISR
                0x10009dc0       0x28 CMakeFiles/example1.dir/D_/pico/pico-FreeRTOS-SMP/Source/timers.c.obj
                0x10009dc0                xTimerPendFunctionCallFromISR
 .text.exception_is_compile_time_default
                0x10009de8       0x20 CMakeFiles/example1.dir/D_/pico/pico-sdk/src/rp2_common/hardware_exception/exception.c.obj
 .text.set_raw_exception_handler_and_restore_interrupts
                0x10009e08       0x18 CMakeFiles/example1.dir/D_/pico/pico-sdk/src/rp2_common/hardware_exception/exception.c.obj
 .text.exception_get_vtable_handler
                0x10009e20       0x10 CMakeFiles/example1.dir/D_/pico/pico-sdk/src/rp2_common/hardware_exception/exception.c.obj
                0x10009e20                exception_get_vtable_handler
 .text.exception_set_exclusive_handler
                0x10009e30       0x44 CMakeFiles/example1.dir/D_/pico/pico-sdk/src/rp2_common/hardware_exception/exception.c.obj
                0x10009e30                exception_set_exclusive_handler
 .text.prvHeapInit
                0x10009e74       0x64 CMakeFiles/example1.dir/D_/pico/pico-FreeRTOS-SMP/Source/portable/MemMang/heap_4.c.obj
 .text.prvInsertBlockIntoFreeList
                0x10009ed8       0x54 CMakeFiles/example1.dir/D_/pico/pico-FreeRTOS-SMP/Source/portable/MemMang/heap_4.c.obj
 .text.pvPortMalloc
                0x10009f2c      0x128 CMakeFiles/example1.dir/D_/pico/pico-FreeRTOS-SMP/Source/portable/MemMang/heap_4.c.obj
                0x10009f2c                pvPortMalloc
 .text.vPortFree
                0x1000a054       0x84 CMakeFiles/example1.dir/D_/pico/pico-FreeRTOS-SMP/Source/portable/MemMang/heap_4.c.obj
                0x1000a054                vPortFree
 .text.strlen   0x1000a0d8       0x5c d:/pico/armcc/10 2021.10/bin/../lib/gcc/arm-none-eabi/10.3.1/../../../../arm-none-eabi/lib/thumb/v6-m/nofp\libg.a(lib_a-strlen-stub.o)
                0x1000a0d8                strlen
 *(.fini)
 .fini          0x1000a134        0x4 d:/pico/armcc/10 2021.10/bin/../lib/gcc/arm-none-eabi/10.3.1/thumb/v6-m/nofp/crti.o
                0x1000a134                _fini
 .fini.__stub   0x1000a138       0x70 linker stubs
 *crtbegin.o(.ctors)
 *crtbegin?.o(.ctors)
 *(EXCLUDE_FILE(*crtend.o *crtend?.o) .ctors)
 *(SORT_BY_NAME(.ctors.*))
 *(.ctors)
 *crtbegin.o(.dtors)
 *crtbegin?.o(.dtors)
 *(EXCLUDE_FILE(*crtend.o *crtend?.o) .dtors)
 *(SORT_BY_NAME(.dtors.*))
 *(.dtors)
 *(.eh_frame*)
 .eh_frame      0x1000a1a8        0x0 d:/pico/armcc/10 2021.10/bin/../lib/gcc/arm-none-eabi/10.3.1/thumb/v6-m/nofp/crtbegin.o
                0x1000a1a8                . = ALIGN (0x4)

.glue_7         0x1000a1a8        0x0
 .glue_7        0x1000a1a8        0x0 linker stubs

.glue_7t        0x1000a1a8        0x0
 .glue_7t       0x1000a1a8        0x0 linker stubs

.vfp11_veneer   0x1000a1a8        0x0
 .vfp11_veneer  0x1000a1a8        0x0 linker stubs

.v4_bx          0x1000a1a8        0x0
 .v4_bx         0x1000a1a8        0x0 linker stubs

.iplt           0x1000a1a8        0x0
 .iplt          0x1000a1a8        0x0 d:/pico/armcc/10 2021.10/bin/../lib/gcc/arm-none-eabi/10.3.1/thumb/v6-m/nofp/crtbegin.o

.rodata         0x1000a1a8     0x26e4
 *(EXCLUDE_FILE(*libm.a: *libc.a:*lib_a-mem*.o *libgcc.a:) .rodata*)
 .rodata.vApplicationMallocFailedHook.str1.4
                0x1000a1a8       0x5a CMakeFiles/example1.dir/main.c.obj
 *fill*         0x1000a202        0x2 
 .rodata.__func__.0
                0x1000a204       0x1e CMakeFiles/example1.dir/main.c.obj
 *fill*         0x1000a222        0x2 
 .rodata.__func__.1
                0x1000a224       0x1d CMakeFiles/example1.dir/main.c.obj
 *fill*         0x1000a241        0x3 
 .rodata.vTask1.str1.4
                0x1000a244       0x15 CMakeFiles/example1.dir/ex1_create_task.c.obj
 *fill*         0x1000a259        0x3 
 .rodata.vTask2.str1.4
                0x1000a25c       0x15 CMakeFiles/example1.dir/ex1_create_task.c.obj
 *fill*         0x1000a271        0x3 
 .rodata.create_task.str1.4
                0x1000a274        0xf CMakeFiles/example1.dir/ex1_create_task.c.obj
 *fill*         0x1000a283        0x1 
 .rodata.spin_lock_claim.str1.4
                0x1000a284       0x1f CMakeFiles/example1.dir/D_/pico/pico-sdk/src/rp2_common/hardware_sync/sync.c.obj
 *fill*         0x1000a2a3        0x1 
 .rodata.spin_lock_claim_unused.str1.4
                0x1000a2a4       0x1b CMakeFiles/example1.dir/D_/pico/pico-sdk/src/rp2_common/hardware_sync/sync.c.obj
 *fill*         0x1000a2bf        0x1 
 .rodata.make_branch.str1.4
                0x1000a2c0       0x63 CMakeFiles/example1.dir/D_/pico/pico-sdk/src/rp2_common/hardware_irq/irq.c.obj
 *fill*         0x1000a323        0x1 
 .rodata.insert_branch_and_link.str1.4
                0x1000a324       0x10 CMakeFiles/example1.dir/D_/pico/pico-sdk/src/rp2_common/hardware_irq/irq.c.obj
 .rodata.irq_set_exclusive_handler.str1.4
                0x1000a334       0x36 CMakeFiles/example1.dir/D_/pico/pico-sdk/src/rp2_common/hardware_irq/irq.c.obj
 *fill*         0x1000a36a        0x2 
 .rodata.irq_add_shared_handler.str1.4
                0x1000a36c       0xd9 CMakeFiles/example1.dir/D_/pico/pico-sdk/src/rp2_common/hardware_irq/irq.c.obj
 *fill*         0x1000a445        0x3 
 .rodata.irq_remove_handler.str1.4
                0x1000a448       0x2a CMakeFiles/example1.dir/D_/pico/pico-sdk/src/rp2_common/hardware_irq/irq.c.obj
 *fill*         0x1000a472        0x2 
 .rodata.irq_add_tail_to_free_list.str1.4
                0x1000a474       0x3a CMakeFiles/example1.dir/D_/pico/pico-sdk/src/rp2_common/hardware_irq/irq.c.obj
 *fill*         0x1000a4ae        0x2 
 .rodata.user_irq_claim_unused.str1.4
                0x1000a4b0       0x1b CMakeFiles/example1.dir/D_/pico/pico-sdk/src/rp2_common/hardware_irq/irq.c.obj
 *fill*         0x1000a4cb        0x1 
 .rodata.__func__.0
                0x1000a4cc       0x1a CMakeFiles/example1.dir/D_/pico/pico-sdk/src/rp2_common/hardware_irq/irq.c.obj
 *fill*         0x1000a4e6        0x2 
 .rodata.__func__.1
                0x1000a4e8       0x17 CMakeFiles/example1.dir/D_/pico/pico-sdk/src/rp2_common/hardware_irq/irq.c.obj
 *fill*         0x1000a4ff        0x1 
 .rodata.__func__.2
                0x1000a500       0x13 CMakeFiles/example1.dir/D_/pico/pico-sdk/src/rp2_common/hardware_irq/irq.c.obj
 *fill*         0x1000a513        0x1 
 .rodata.__func__.3
                0x1000a514        0xc CMakeFiles/example1.dir/D_/pico/pico-sdk/src/rp2_common/hardware_irq/irq.c.obj
 .rodata.__func__.4
                0x1000a520        0xf CMakeFiles/example1.dir/D_/pico/pico-sdk/src/rp2_common/hardware_irq/irq.c.obj
 *fill*         0x1000a52f        0x1 
 .rodata.__func__.5
                0x1000a530       0x17 CMakeFiles/example1.dir/D_/pico/pico-sdk/src/rp2_common/hardware_irq/irq.c.obj
 *fill*         0x1000a547        0x1 
 .rodata.__func__.6
                0x1000a548       0x1a CMakeFiles/example1.dir/D_/pico/pico-sdk/src/rp2_common/hardware_irq/irq.c.obj
 *fill*         0x1000a562        0x2 
 .rodata.repeating_timer_callback.str1.4
                0x1000a564       0x41 CMakeFiles/example1.dir/D_/pico/pico-sdk/src/common/pico_time/time.c.obj
 *fill*         0x1000a5a5        0x3 
 .rodata.alarm_pool_dump_key.str1.4
                0x1000a5a8       0x33 CMakeFiles/example1.dir/D_/pico/pico-sdk/src/common/pico_time/time.c.obj
 *fill*         0x1000a5db        0x1 
 .rodata.ph_add_child_node.str1.4
                0x1000a5dc       0x8a CMakeFiles/example1.dir/D_/pico/pico-sdk/src/common/pico_time/time.c.obj
 *fill*         0x1000a666        0x2 
 .rodata.add_alarm_under_lock.str1.4
                0x1000a668       0x28 CMakeFiles/example1.dir/D_/pico/pico-sdk/src/common/pico_time/time.c.obj
                                 0x2b (size before relaxing)
 .rodata.alarm_pool_alarm_callback.str1.4
                0x1000a690       0xda CMakeFiles/example1.dir/D_/pico/pico-sdk/src/common/pico_time/time.c.obj
 *fill*         0x1000a76a        0x2 
 .rodata.alarm_pool_get_default.str1.4
                0x1000a76c       0x21 CMakeFiles/example1.dir/D_/pico/pico-sdk/src/common/pico_time/time.c.obj
 *fill*         0x1000a78d        0x3 
 .rodata.alarm_pool_cancel_alarm.str1.4
                0x1000a790       0x27 CMakeFiles/example1.dir/D_/pico/pico-sdk/src/common/pico_time/time.c.obj
 *fill*         0x1000a7b7        0x1 
 .rodata.__func__.1
                0x1000a7b8       0x18 CMakeFiles/example1.dir/D_/pico/pico-sdk/src/common/pico_time/time.c.obj
 .rodata.__func__.10
                0x1000a7d0       0x15 CMakeFiles/example1.dir/D_/pico/pico-sdk/src/common/pico_time/time.c.obj
 *fill*         0x1000a7e5        0x3 
 .rodata.__func__.11
                0x1000a7e8       0x1a CMakeFiles/example1.dir/D_/pico/pico-sdk/src/common/pico_time/time.c.obj
 *fill*         0x1000a802        0x2 
 .rodata.__func__.12
                0x1000a804        0xa CMakeFiles/example1.dir/D_/pico/pico-sdk/src/common/pico_time/time.c.obj
 *fill*         0x1000a80e        0x2 
 .rodata.__func__.3
                0x1000a810       0x17 CMakeFiles/example1.dir/D_/pico/pico-sdk/src/common/pico_time/time.c.obj
 *fill*         0x1000a827        0x1 
 .rodata.__func__.4
                0x1000a828       0x12 CMakeFiles/example1.dir/D_/pico/pico-sdk/src/common/pico_time/time.c.obj
 *fill*         0x1000a83a        0x2 
 .rodata.__func__.5
                0x1000a83c        0xd CMakeFiles/example1.dir/D_/pico/pico-sdk/src/common/pico_time/time.c.obj
 *fill*         0x1000a849        0x3 
 .rodata.__func__.6
                0x1000a84c       0x12 CMakeFiles/example1.dir/D_/pico/pico-sdk/src/common/pico_time/time.c.obj
 *fill*         0x1000a85e        0x2 
 .rodata.__func__.7
                0x1000a860        0xf CMakeFiles/example1.dir/D_/pico/pico-sdk/src/common/pico_time/time.c.obj
 *fill*         0x1000a86f        0x1 
 .rodata.__func__.8
                0x1000a870        0xc CMakeFiles/example1.dir/D_/pico/pico-sdk/src/common/pico_time/time.c.obj
 .rodata.__func__.9
                0x1000a87c       0x15 CMakeFiles/example1.dir/D_/pico/pico-sdk/src/common/pico_time/time.c.obj
 *fill*         0x1000a891        0x3 
 .rodata.hardware_alarm_claim.str1.4
                0x1000a894       0x22 CMakeFiles/example1.dir/D_/pico/pico-sdk/src/rp2_common/hardware_timer/timer.c.obj
 *fill*         0x1000a8b6        0x2 
 .rodata.hardware_alarm_set_target.str1.4
                0x1000a8b8       0x5b CMakeFiles/example1.dir/D_/pico/pico-sdk/src/rp2_common/hardware_timer/timer.c.obj
 *fill*         0x1000a913        0x1 
 .rodata.__func__.0
                0x1000a914       0x1a CMakeFiles/example1.dir/D_/pico/pico-sdk/src/rp2_common/hardware_timer/timer.c.obj
 .rodata.ph_add_child_node.str1.4
                0x1000a92e       0x8a CMakeFiles/example1.dir/D_/pico/pico-sdk/src/common/pico_util/pheap.c.obj
 *fill*         0x1000a92e        0x2 
 .rodata.ph_remove_any_head.str1.4
                0x1000a930       0x84 CMakeFiles/example1.dir/D_/pico/pico-sdk/src/common/pico_util/pheap.c.obj
 .rodata.ph_remove_and_free_node.str1.4
                0x1000a9b4       0x1e CMakeFiles/example1.dir/D_/pico/pico-sdk/src/common/pico_util/pheap.c.obj
                                 0x26 (size before relaxing)
 *fill*         0x1000a9d2        0x2 
 .rodata.__func__.0
                0x1000a9d4       0x18 CMakeFiles/example1.dir/D_/pico/pico-sdk/src/common/pico_util/pheap.c.obj
 .rodata.__func__.1
                0x1000a9ec       0x13 CMakeFiles/example1.dir/D_/pico/pico-sdk/src/common/pico_util/pheap.c.obj
 *fill*         0x1000a9ff        0x1 
 .rodata.__func__.2
                0x1000aa00       0x12 CMakeFiles/example1.dir/D_/pico/pico-sdk/src/common/pico_util/pheap.c.obj
 *fill*         0x1000aa12        0x2 
 .rodata.__func__.3
                0x1000aa14        0xc CMakeFiles/example1.dir/D_/pico/pico-sdk/src/common/pico_util/pheap.c.obj
 .rodata.str1.4
                0x1000aa20       0x81 CMakeFiles/example1.dir/D_/pico/pico-sdk/src/common/pico_sync/mutex.c.obj
                                 0xd9 (size before relaxing)
 *fill*         0x1000aaa1        0x3 
 .rodata.__func__.1
                0x1000aaa4        0xb CMakeFiles/example1.dir/D_/pico/pico-sdk/src/common/pico_sync/mutex.c.obj
 *fill*         0x1000aaaf        0x1 
 .rodata.__func__.3
                0x1000aab0       0x18 CMakeFiles/example1.dir/D_/pico/pico-sdk/src/common/pico_sync/mutex.c.obj
 .rodata.__func__.4
                0x1000aac8       0x15 CMakeFiles/example1.dir/D_/pico/pico-sdk/src/common/pico_sync/mutex.c.obj
 *fill*         0x1000aadd        0x3 
 .rodata.__assert_func.str1.4
                0x1000aae0       0x3f CMakeFiles/example1.dir/D_/pico/pico-sdk/src/rp2_common/pico_runtime/runtime.c.obj
                                 0x43 (size before relaxing)
 *fill*         0x1000ab1f        0x1 
 .rodata.runtime_init.str1.4
                0x1000ab20       0x57 CMakeFiles/example1.dir/D_/pico/pico-sdk/src/rp2_common/pico_runtime/runtime.c.obj
 *fill*         0x1000ab77        0x1 
 .rodata.panic.str1.4
                0x1000ab78       0x12 CMakeFiles/example1.dir/D_/pico/pico-sdk/src/rp2_common/pico_runtime/runtime.c.obj
 *fill*         0x1000ab8a        0x2 
 .rodata.panic_unsupported.str1.4
                0x1000ab8c        0xe CMakeFiles/example1.dir/D_/pico/pico-sdk/src/rp2_common/pico_runtime/runtime.c.obj
 *fill*         0x1000ab9a        0x2 
 .rodata.__func__.1
                0x1000ab9c        0xd CMakeFiles/example1.dir/D_/pico/pico-sdk/src/rp2_common/pico_runtime/runtime.c.obj
 *fill*         0x1000aba9        0x3 
 .rodata.clock_configure.str1.4
                0x1000abac       0x4d CMakeFiles/example1.dir/D_/pico/pico-sdk/src/rp2_common/hardware_clocks/clocks.c.obj
 *fill*         0x1000abf9        0x3 
 .rodata.__func__.1
                0x1000abfc       0x10 CMakeFiles/example1.dir/D_/pico/pico-sdk/src/rp2_common/hardware_clocks/clocks.c.obj
 .rodata.pll_init.str1.4
                0x1000ac0c      0x12f CMakeFiles/example1.dir/D_/pico/pico-sdk/src/rp2_common/hardware_pll/pll.c.obj
 *fill*         0x1000ad3b        0x1 
 .rodata.__func__.0
                0x1000ad3c        0x9 CMakeFiles/example1.dir/D_/pico/pico-sdk/src/rp2_common/hardware_pll/pll.c.obj
 *fill*         0x1000ad45        0x3 
 .rodata._ftoa.str1.4
                0x1000ad48       0x15 CMakeFiles/example1.dir/D_/pico/pico-sdk/src/rp2_common/pico_printf/printf.c.obj
 *fill*         0x1000ad5d        0x3 
 .rodata._vsnprintf
                0x1000ad60      0x1e0 CMakeFiles/example1.dir/D_/pico/pico-sdk/src/rp2_common/pico_printf/printf.c.obj
 .rodata.pow10.0
                0x1000af40       0x50 CMakeFiles/example1.dir/D_/pico/pico-sdk/src/rp2_common/pico_printf/printf.c.obj
 .rodata.__aeabi_double_init.str1.4
                0x1000af90       0x9e CMakeFiles/example1.dir/D_/pico/pico-sdk/src/rp2_common/pico_double/double_init_rom.c.obj
 *fill*         0x1000b02e        0x2 
 .rodata.__func__.0
                0x1000b030       0x14 CMakeFiles/example1.dir/D_/pico/pico-sdk/src/rp2_common/pico_double/double_init_rom.c.obj
 .rodata.__aeabi_float_init.str1.4
                0x1000b044       0x70 CMakeFiles/example1.dir/D_/pico/pico-sdk/src/rp2_common/pico_float/float_init_rom.c.obj
                                 0x74 (size before relaxing)
 .rodata.__func__.0
                0x1000b0b4       0x13 CMakeFiles/example1.dir/D_/pico/pico-sdk/src/rp2_common/pico_float/float_init_rom.c.obj
 *fill*         0x1000b0c7        0x1 
 .rodata.str1.4
                0x1000b0c8       0x40 CMakeFiles/example1.dir/D_/pico/pico-sdk/src/rp2_common/pico_standard_link/binary_info.c.obj
 .rodata.__bi_44
                0x1000b108        0xc CMakeFiles/example1.dir/D_/pico/pico-sdk/src/rp2_common/pico_standard_link/binary_info.c.obj
 .rodata.__bi_75
                0x1000b114        0xc CMakeFiles/example1.dir/D_/pico/pico-sdk/src/rp2_common/pico_standard_link/binary_info.c.obj
 .rodata.__bi_81
                0x1000b120        0xc CMakeFiles/example1.dir/D_/pico/pico-sdk/src/rp2_common/pico_standard_link/binary_info.c.obj
 .rodata.crlf_str.3
                0x1000b12c        0x2 CMakeFiles/example1.dir/D_/pico/pico-sdk/src/rp2_common/pico_stdio/stdio.c.obj
 *fill*         0x1000b12e        0x2 
 .rodata._resetd_driver
                0x1000b130       0x18 CMakeFiles/example1.dir/D_/pico/pico-sdk/src/rp2_common/pico_stdio_usb/reset_interface.c.obj
 .rodata.timer_task.str1.4
                0x1000b148       0x63 CMakeFiles/example1.dir/D_/pico/pico-sdk/src/rp2_common/pico_stdio_usb/stdio_usb.c.obj
 .rodata.stdio_usb_init.str1.4
                0x1000b1ab       0x57 CMakeFiles/example1.dir/D_/pico/pico-sdk/src/rp2_common/pico_stdio_usb/stdio_usb.c.obj
 *fill*         0x1000b1ab        0x1 
 .rodata.str1.4
                0x1000b1ac       0x13 CMakeFiles/example1.dir/D_/pico/pico-sdk/src/rp2_common/pico_stdio_usb/stdio_usb.c.obj
 *fill*         0x1000b1bf        0x1 
 .rodata.__bi_118.2
                0x1000b1c0        0xc CMakeFiles/example1.dir/D_/pico/pico-sdk/src/rp2_common/pico_stdio_usb/stdio_usb.c.obj
 .rodata.__func__.0
                0x1000b1cc       0x15 CMakeFiles/example1.dir/D_/pico/pico-sdk/src/rp2_common/pico_stdio_usb/stdio_usb.c.obj
 *fill*         0x1000b1e1        0x3 
 .rodata.__func__.1
                0x1000b1e4        0xb CMakeFiles/example1.dir/D_/pico/pico-sdk/src/rp2_common/pico_stdio_usb/stdio_usb.c.obj
 *fill*         0x1000b1ef        0x1 
 .rodata.str1.4
                0x1000b1f0       0x2a CMakeFiles/example1.dir/D_/pico/pico-sdk/src/rp2_common/pico_stdio_usb/stdio_usb_descriptors.c.obj
 *fill*         0x1000b21a        0x2 
 .rodata.usbd_desc_cfg
                0x1000b21c       0x54 CMakeFiles/example1.dir/D_/pico/pico-sdk/src/rp2_common/pico_stdio_usb/stdio_usb_descriptors.c.obj
 .rodata.usbd_desc_device
                0x1000b270       0x12 CMakeFiles/example1.dir/D_/pico/pico-sdk/src/rp2_common/pico_stdio_usb/stdio_usb_descriptors.c.obj
 *fill*         0x1000b282        0x2 
 .rodata.usbd_desc_str
                0x1000b284       0x18 CMakeFiles/example1.dir/D_/pico/pico-sdk/src/rp2_common/pico_stdio_usb/stdio_usb_descriptors.c.obj
 .rodata._hw_endpoint_alloc.str1.4
                0x1000b29c       0xad CMakeFiles/example1.dir/D_/pico/pico-sdk/lib/tinyusb/src/portable/raspberrypi/rp2040/dcd_rp2040.c.obj
 *fill*         0x1000b349        0x3 
 .rodata.dcd_rp2040_irq.str1.4
                0x1000b34c       0x14 CMakeFiles/example1.dir/D_/pico/pico-sdk/lib/tinyusb/src/portable/raspberrypi/rp2040/dcd_rp2040.c.obj
 .rodata.dcd_int_enable.str1.4
                0x1000b360        0xc CMakeFiles/example1.dir/D_/pico/pico-sdk/lib/tinyusb/src/portable/raspberrypi/rp2040/dcd_rp2040.c.obj
 .rodata.__func__.0
                0x1000b36c        0xe CMakeFiles/example1.dir/D_/pico/pico-sdk/lib/tinyusb/src/portable/raspberrypi/rp2040/dcd_rp2040.c.obj
 *fill*         0x1000b37a        0x2 
 .rodata.__func__.1
                0x1000b37c        0xe CMakeFiles/example1.dir/D_/pico/pico-sdk/lib/tinyusb/src/portable/raspberrypi/rp2040/dcd_rp2040.c.obj
 *fill*         0x1000b38a        0x2 
 .rodata.__func__.3
                0x1000b38c       0x10 CMakeFiles/example1.dir/D_/pico/pico-sdk/lib/tinyusb/src/portable/raspberrypi/rp2040/dcd_rp2040.c.obj
 .rodata.__func__.5
                0x1000b39c        0xf CMakeFiles/example1.dir/D_/pico/pico-sdk/lib/tinyusb/src/portable/raspberrypi/rp2040/dcd_rp2040.c.obj
 *fill*         0x1000b3ab        0x1 
 .rodata.__func__.6
                0x1000b3ac       0x13 CMakeFiles/example1.dir/D_/pico/pico-sdk/lib/tinyusb/src/portable/raspberrypi/rp2040/dcd_rp2040.c.obj
 *fill*         0x1000b3bf        0x1 
 .rodata.__func__.7
                0x1000b3c0        0x9 CMakeFiles/example1.dir/D_/pico/pico-sdk/lib/tinyusb/src/portable/raspberrypi/rp2040/dcd_rp2040.c.obj
 *fill*         0x1000b3c9        0x3 
 .rodata.sync_ep_buffer.str1.4
                0x1000b3cc       0x89 CMakeFiles/example1.dir/D_/pico/pico-sdk/lib/tinyusb/src/portable/raspberrypi/rp2040/rp2040_usb.c.obj
 *fill*         0x1000b455        0x3 
 .rodata._hw_endpoint_buffer_control_update32.str1.4
                0x1000b458       0x1f CMakeFiles/example1.dir/D_/pico/pico-sdk/lib/tinyusb/src/portable/raspberrypi/rp2040/rp2040_usb.c.obj
 *fill*         0x1000b477        0x1 
 .rodata.hw_endpoint_xfer_start.str1.4
                0x1000b478       0x38 CMakeFiles/example1.dir/D_/pico/pico-sdk/lib/tinyusb/src/portable/raspberrypi/rp2040/rp2040_usb.c.obj
 .rodata.hw_endpoint_xfer_continue.str1.4
                0x1000b4b0       0x29 CMakeFiles/example1.dir/D_/pico/pico-sdk/lib/tinyusb/src/portable/raspberrypi/rp2040/rp2040_usb.c.obj
 *fill*         0x1000b4d9        0x3 
 .rodata.str1.4
                0x1000b4dc        0x7 CMakeFiles/example1.dir/D_/pico/pico-sdk/lib/tinyusb/src/portable/raspberrypi/rp2040/rp2040_usb.c.obj
 *fill*         0x1000b4e3        0x1 
 .rodata.__func__.0
                0x1000b4e4        0xf CMakeFiles/example1.dir/D_/pico/pico-sdk/lib/tinyusb/src/portable/raspberrypi/rp2040/rp2040_usb.c.obj
 *fill*         0x1000b4f3        0x1 
 .rodata.process_set_config.str1.4
                0x1000b4f4       0x17 CMakeFiles/example1.dir/D_/pico/pico-sdk/lib/tinyusb/src/device/usbd.c.obj
 *fill*         0x1000b50b        0x1 
 .rodata.process_get_descriptor
                0x1000b50c       0x40 CMakeFiles/example1.dir/D_/pico/pico-sdk/lib/tinyusb/src/device/usbd.c.obj
 .rodata.process_control_request
                0x1000b54c       0x28 CMakeFiles/example1.dir/D_/pico/pico-sdk/lib/tinyusb/src/device/usbd.c.obj
 .rodata.tud_task
                0x1000b574       0x24 CMakeFiles/example1.dir/D_/pico/pico-sdk/lib/tinyusb/src/device/usbd.c.obj
 .rodata.__func__.2
                0x1000b598        0xf CMakeFiles/example1.dir/D_/pico/pico-sdk/lib/tinyusb/src/device/usbd.c.obj
 *fill*         0x1000b5a7        0x1 
 .rodata.__func__.3
                0x1000b5a8        0xf CMakeFiles/example1.dir/D_/pico/pico-sdk/lib/tinyusb/src/device/usbd.c.obj
 *fill*         0x1000b5b7        0x1 
 .rodata.__func__.4
                0x1000b5b8       0x14 CMakeFiles/example1.dir/D_/pico/pico-sdk/lib/tinyusb/src/device/usbd.c.obj
 .rodata.__func__.5
                0x1000b5cc       0x10 CMakeFiles/example1.dir/D_/pico/pico-sdk/lib/tinyusb/src/device/usbd.c.obj
 .rodata.__func__.6
                0x1000b5dc       0x17 CMakeFiles/example1.dir/D_/pico/pico-sdk/lib/tinyusb/src/device/usbd.c.obj
 *fill*         0x1000b5f3        0x1 
 .rodata.__func__.7
                0x1000b5f4       0x13 CMakeFiles/example1.dir/D_/pico/pico-sdk/lib/tinyusb/src/device/usbd.c.obj
 *fill*         0x1000b607        0x1 
 .rodata.__func__.8
                0x1000b608       0x18 CMakeFiles/example1.dir/D_/pico/pico-sdk/lib/tinyusb/src/device/usbd.c.obj
 .rodata.__func__.9
                0x1000b620        0x9 CMakeFiles/example1.dir/D_/pico/pico-sdk/lib/tinyusb/src/device/usbd.c.obj
 *fill*         0x1000b629        0x3 
 .rodata._usbd_driver
                0x1000b62c       0x18 CMakeFiles/example1.dir/D_/pico/pico-sdk/lib/tinyusb/src/device/usbd.c.obj
 .rodata.tud_control_xfer.str1.4
                0x1000b644       0x17 CMakeFiles/example1.dir/D_/pico/pico-sdk/lib/tinyusb/src/device/usbd_control.c.obj
 .rodata.__func__.0
                0x1000b644       0x15 CMakeFiles/example1.dir/D_/pico/pico-sdk/lib/tinyusb/src/device/usbd_control.c.obj
 *fill*         0x1000b659        0x3 
 .rodata.__func__.1
                0x1000b65c       0x11 CMakeFiles/example1.dir/D_/pico/pico-sdk/lib/tinyusb/src/device/usbd_control.c.obj
 .rodata.tud_cdc_n_write_flush.str1.4
                0x1000b66d       0x17 CMakeFiles/example1.dir/D_/pico/pico-sdk/lib/tinyusb/src/class/cdc/cdc_device.c.obj
 *fill*         0x1000b66d        0x3 
 .rodata.__func__.0
                0x1000b670        0xd CMakeFiles/example1.dir/D_/pico/pico-sdk/lib/tinyusb/src/class/cdc/cdc_device.c.obj
 *fill*         0x1000b67d        0x3 
 .rodata.__func__.1
                0x1000b680        0xa CMakeFiles/example1.dir/D_/pico/pico-sdk/lib/tinyusb/src/class/cdc/cdc_device.c.obj
 *fill*         0x1000b68a        0x2 
 .rodata.__func__.2
                0x1000b68c       0x16 CMakeFiles/example1.dir/D_/pico/pico-sdk/lib/tinyusb/src/class/cdc/cdc_device.c.obj
 .rodata.tusb_init.str1.4
                0x1000b6a2       0x17 CMakeFiles/example1.dir/D_/pico/pico-sdk/lib/tinyusb/src/tusb.c.obj
 *fill*         0x1000b6a2        0x2 
 .rodata.__func__.0
                0x1000b6a4       0x11 CMakeFiles/example1.dir/D_/pico/pico-sdk/lib/tinyusb/src/tusb.c.obj
 *fill*         0x1000b6b5        0x3 
 .rodata.__func__.1
                0x1000b6b8        0xa CMakeFiles/example1.dir/D_/pico/pico-sdk/lib/tinyusb/src/tusb.c.obj
 *fill*         0x1000b6c2        0x2 
 .rodata.pico_get_unique_board_id_string.str1.4
                0x1000b6c4       0x43 CMakeFiles/example1.dir/D_/pico/pico-sdk/src/rp2_common/pico_unique_id/unique_id.c.obj
 *fill*         0x1000b707        0x1 
 .rodata.__func__.0
                0x1000b708       0x20 CMakeFiles/example1.dir/D_/pico/pico-sdk/src/rp2_common/pico_unique_id/unique_id.c.obj
 .rodata.str1.4
                0x1000b728      0x14e CMakeFiles/example1.dir/D_/pico/pico-sdk/src/rp2_common/hardware_flash/flash.c.obj
 *fill*         0x1000b876        0x2 
 .rodata.__func__.0
                0x1000b878        0xd CMakeFiles/example1.dir/D_/pico/pico-sdk/src/rp2_common/hardware_flash/flash.c.obj
 .rodata.prvGetTicksToWaitBefore.str1.4
                0x1000b885       0x57 CMakeFiles/example1.dir/D_/pico/pico-FreeRTOS-SMP/Source/portable/ThirdParty/GCC/RP2040/port.c.obj
 *fill*         0x1000b885        0x3 
 .rodata.vPortYield.str1.4
                0x1000b888       0x67 CMakeFiles/example1.dir/D_/pico/pico-FreeRTOS-SMP/Source/portable/ThirdParty/GCC/RP2040/port.c.obj
 *fill*         0x1000b8ef        0x1 
 .rodata.vYieldCore.str1.4
                0x1000b8f0        0xd CMakeFiles/example1.dir/D_/pico/pico-FreeRTOS-SMP/Source/portable/ThirdParty/GCC/RP2040/port.c.obj
 *fill*         0x1000b8fd        0x3 
 .rodata.xPortStartScheduler.str1.4
                0x1000b900       0x1a CMakeFiles/example1.dir/D_/pico/pico-FreeRTOS-SMP/Source/portable/ThirdParty/GCC/RP2040/port.c.obj
 *fill*         0x1000b91a        0x2 
 .rodata.vPortLockInternalSpinUnlockWithWait.str1.4
                0x1000b91c       0x72 CMakeFiles/example1.dir/D_/pico/pico-FreeRTOS-SMP/Source/portable/ThirdParty/GCC/RP2040/port.c.obj
 *fill*         0x1000b98e        0x2 
 .rodata.__func__.0
                0x1000b990       0x15 CMakeFiles/example1.dir/D_/pico/pico-FreeRTOS-SMP/Source/portable/ThirdParty/GCC/RP2040/port.c.obj
 *fill*         0x1000b9a5        0x3 
 .rodata.__func__.1
                0x1000b9a8       0x37 CMakeFiles/example1.dir/D_/pico/pico-FreeRTOS-SMP/Source/portable/ThirdParty/GCC/RP2040/port.c.obj
 *fill*         0x1000b9df        0x1 
 .rodata.__func__.2
                0x1000b9e0       0x24 CMakeFiles/example1.dir/D_/pico/pico-FreeRTOS-SMP/Source/portable/ThirdParty/GCC/RP2040/port.c.obj
 .rodata.__func__.3
                0x1000ba04        0xb CMakeFiles/example1.dir/D_/pico/pico-FreeRTOS-SMP/Source/portable/ThirdParty/GCC/RP2040/port.c.obj
 *fill*         0x1000ba0f        0x1 
 .rodata.__func__.4
                0x1000ba10        0xb CMakeFiles/example1.dir/D_/pico/pico-FreeRTOS-SMP/Source/portable/ThirdParty/GCC/RP2040/port.c.obj
 *fill*         0x1000ba1b        0x1 
 .rodata.__func__.5
                0x1000ba1c       0x14 CMakeFiles/example1.dir/D_/pico/pico-FreeRTOS-SMP/Source/portable/ThirdParty/GCC/RP2040/port.c.obj
 .rodata.xEventGroupWaitBits.str1.4
                0x1000ba30       0xcf CMakeFiles/example1.dir/D_/pico/pico-FreeRTOS-SMP/Source/event_groups.c.obj
 *fill*         0x1000baff        0x1 
 .rodata.xEventGroupSetBits.str1.4
                0x1000bb00       0x24 CMakeFiles/example1.dir/D_/pico/pico-FreeRTOS-SMP/Source/event_groups.c.obj
 .rodata.__func__.1
                0x1000bb24       0x13 CMakeFiles/example1.dir/D_/pico/pico-FreeRTOS-SMP/Source/event_groups.c.obj
 *fill*         0x1000bb37        0x1 
 .rodata.__func__.3
                0x1000bb38       0x14 CMakeFiles/example1.dir/D_/pico/pico-FreeRTOS-SMP/Source/event_groups.c.obj
 .rodata.prvNotifyQueueSetContainer.str1.4
                0x1000bb4c       0xa6 CMakeFiles/example1.dir/D_/pico/pico-FreeRTOS-SMP/Source/queue.c.obj
 *fill*         0x1000bbf2        0x2 
 .rodata.xQueueGenericReset.str1.4
                0x1000bbf4        0x8 CMakeFiles/example1.dir/D_/pico/pico-FreeRTOS-SMP/Source/queue.c.obj
 .rodata.xQueueGenericCreate.str1.4
                0x1000bbfc       0xb2 CMakeFiles/example1.dir/D_/pico/pico-FreeRTOS-SMP/Source/queue.c.obj
 *fill*         0x1000bcae        0x2 
 .rodata.xQueueGenericSend.str1.4
                0x1000bcb0       0xa5 CMakeFiles/example1.dir/D_/pico/pico-FreeRTOS-SMP/Source/queue.c.obj
                                 0xfb (size before relaxing)
 *fill*         0x1000bd55        0x3 
 .rodata.xQueueReceive.str1.4
                0x1000bd58       0x66 CMakeFiles/example1.dir/D_/pico/pico-FreeRTOS-SMP/Source/queue.c.obj
 *fill*         0x1000bdbe        0x2 
 .rodata.uxQueueMessagesWaiting.str1.4
                0x1000bdc0        0x7 CMakeFiles/example1.dir/D_/pico/pico-FreeRTOS-SMP/Source/queue.c.obj
 *fill*         0x1000bdc7        0x1 
 .rodata.vQueueAddToRegistry.str1.4
                0x1000bdc8        0xc CMakeFiles/example1.dir/D_/pico/pico-FreeRTOS-SMP/Source/queue.c.obj
 .rodata.__func__.13
                0x1000bdd4        0xe CMakeFiles/example1.dir/D_/pico/pico-FreeRTOS-SMP/Source/queue.c.obj
 *fill*         0x1000bde2        0x2 
 .rodata.__func__.15
                0x1000bde4       0x19 CMakeFiles/example1.dir/D_/pico/pico-FreeRTOS-SMP/Source/queue.c.obj
 *fill*         0x1000bdfd        0x3 
 .rodata.__func__.16
                0x1000be00       0x1b CMakeFiles/example1.dir/D_/pico/pico-FreeRTOS-SMP/Source/queue.c.obj
 *fill*         0x1000be1b        0x1 
 .rodata.__func__.17
                0x1000be1c       0x12 CMakeFiles/example1.dir/D_/pico/pico-FreeRTOS-SMP/Source/queue.c.obj
 *fill*         0x1000be2e        0x2 
 .rodata.__func__.2
                0x1000be30       0x14 CMakeFiles/example1.dir/D_/pico/pico-FreeRTOS-SMP/Source/queue.c.obj
 .rodata.__func__.23
                0x1000be44       0x14 CMakeFiles/example1.dir/D_/pico/pico-FreeRTOS-SMP/Source/queue.c.obj
 .rodata.__func__.24
                0x1000be58       0x13 CMakeFiles/example1.dir/D_/pico/pico-FreeRTOS-SMP/Source/queue.c.obj
 *fill*         0x1000be6b        0x1 
 .rodata.prvTaskIsTaskSuspended.str1.4
                0x1000be6c       0x31 CMakeFiles/example1.dir/D_/pico/pico-FreeRTOS-SMP/Source/tasks.c.obj
 *fill*         0x1000be9d        0x3 
 .rodata.prvSelectHighestPriorityTask.str1.4
                0x1000bea0      0x124 CMakeFiles/example1.dir/D_/pico/pico-FreeRTOS-SMP/Source/tasks.c.obj
 .rodata.prvYieldForTask.str1.4
                0x1000bfc4       0x34 CMakeFiles/example1.dir/D_/pico/pico-FreeRTOS-SMP/Source/tasks.c.obj
 .rodata.xTaskRemoveFromEventList.str1.4
                0x1000bff8        0xf CMakeFiles/example1.dir/D_/pico/pico-FreeRTOS-SMP/Source/tasks.c.obj
 *fill*         0x1000c007        0x1 
 .rodata.prvCheckForRunStateChange.str1.4
                0x1000c008      0x1e5 CMakeFiles/example1.dir/D_/pico/pico-FreeRTOS-SMP/Source/tasks.c.obj
 *fill*         0x1000c1ed        0x3 
 .rodata.vTaskSwitchContext.str1.4
                0x1000c1f0       0x34 CMakeFiles/example1.dir/D_/pico/pico-FreeRTOS-SMP/Source/tasks.c.obj
 .rodata.vTaskPlaceOnEventList.str1.4
                0x1000c224        0xc CMakeFiles/example1.dir/D_/pico/pico-FreeRTOS-SMP/Source/tasks.c.obj
 .rodata.vTaskPlaceOnUnorderedEventList.str1.4
                0x1000c230       0x1a CMakeFiles/example1.dir/D_/pico/pico-FreeRTOS-SMP/Source/tasks.c.obj
 *fill*         0x1000c24a        0x2 
 .rodata.xTaskPriorityDisinherit.str1.4
                0x1000c24c       0x3d CMakeFiles/example1.dir/D_/pico/pico-FreeRTOS-SMP/Source/tasks.c.obj
 *fill*         0x1000c289        0x3 
 .rodata.prvCreateIdleTasks.str1.4
                0x1000c28c        0x5 CMakeFiles/example1.dir/D_/pico/pico-FreeRTOS-SMP/Source/tasks.c.obj
 *fill*         0x1000c291        0x3 
 .rodata.vTaskStartScheduler.str1.4
                0x1000c294       0x12 CMakeFiles/example1.dir/D_/pico/pico-FreeRTOS-SMP/Source/tasks.c.obj
 *fill*         0x1000c2a6        0x2 
 .rodata.xTaskIncrementTick.str1.4
                0x1000c2a8       0x76 CMakeFiles/example1.dir/D_/pico/pico-FreeRTOS-SMP/Source/tasks.c.obj
 *fill*         0x1000c31e        0x2 
 .rodata.xTaskResumeAll.str1.4
                0x1000c320       0x15 CMakeFiles/example1.dir/D_/pico/pico-FreeRTOS-SMP/Source/tasks.c.obj
 *fill*         0x1000c335        0x3 
 .rodata.xTaskDelayUntil.str1.4
                0x1000c338       0x46 CMakeFiles/example1.dir/D_/pico/pico-FreeRTOS-SMP/Source/tasks.c.obj
 *fill*         0x1000c37e        0x2 
 .rodata.vTaskRemoveFromUnorderedEventList.str1.4
                0x1000c380       0x2d CMakeFiles/example1.dir/D_/pico/pico-FreeRTOS-SMP/Source/tasks.c.obj
 *fill*         0x1000c3ad        0x3 
 .rodata.vTaskSetTimeOutState.str1.4
                0x1000c3b0        0xa CMakeFiles/example1.dir/D_/pico/pico-FreeRTOS-SMP/Source/tasks.c.obj
 *fill*         0x1000c3ba        0x2 
 .rodata.xTaskCheckForTimeOut.str1.4
                0x1000c3bc        0xe CMakeFiles/example1.dir/D_/pico/pico-FreeRTOS-SMP/Source/tasks.c.obj
 *fill*         0x1000c3ca        0x2 
 .rodata.__func__.10
                0x1000c3cc       0x15 CMakeFiles/example1.dir/D_/pico/pico-FreeRTOS-SMP/Source/tasks.c.obj
 *fill*         0x1000c3e1        0x3 
 .rodata.__func__.12
                0x1000c3e4       0x22 CMakeFiles/example1.dir/D_/pico/pico-FreeRTOS-SMP/Source/tasks.c.obj
 *fill*         0x1000c406        0x2 
 .rodata.__func__.13
                0x1000c408       0x19 CMakeFiles/example1.dir/D_/pico/pico-FreeRTOS-SMP/Source/tasks.c.obj
 *fill*         0x1000c421        0x3 
 .rodata.__func__.14
                0x1000c424       0x20 CMakeFiles/example1.dir/D_/pico/pico-FreeRTOS-SMP/Source/tasks.c.obj
 .rodata.__func__.15
                0x1000c444       0x1f CMakeFiles/example1.dir/D_/pico/pico-FreeRTOS-SMP/Source/tasks.c.obj
 *fill*         0x1000c463        0x1 
 .rodata.__func__.16
                0x1000c464       0x16 CMakeFiles/example1.dir/D_/pico/pico-FreeRTOS-SMP/Source/tasks.c.obj
 *fill*         0x1000c47a        0x2 
 .rodata.__func__.17
                0x1000c47c       0x13 CMakeFiles/example1.dir/D_/pico/pico-FreeRTOS-SMP/Source/tasks.c.obj
 *fill*         0x1000c48f        0x1 
 .rodata.__func__.18
                0x1000c490       0x13 CMakeFiles/example1.dir/D_/pico/pico-FreeRTOS-SMP/Source/tasks.c.obj
 *fill*         0x1000c4a3        0x1 
 .rodata.__func__.23
                0x1000c4a4        0xf CMakeFiles/example1.dir/D_/pico/pico-FreeRTOS-SMP/Source/tasks.c.obj
 *fill*         0x1000c4b3        0x1 
 .rodata.__func__.24
                0x1000c4b4       0x1a CMakeFiles/example1.dir/D_/pico/pico-FreeRTOS-SMP/Source/tasks.c.obj
 *fill*         0x1000c4ce        0x2 
 .rodata.__func__.27
                0x1000c4d0       0x13 CMakeFiles/example1.dir/D_/pico/pico-FreeRTOS-SMP/Source/tasks.c.obj
 *fill*         0x1000c4e3        0x1 
 .rodata.__func__.28
                0x1000c4e4       0x14 CMakeFiles/example1.dir/D_/pico/pico-FreeRTOS-SMP/Source/tasks.c.obj
 .rodata.__func__.32
                0x1000c4f8       0x1d CMakeFiles/example1.dir/D_/pico/pico-FreeRTOS-SMP/Source/tasks.c.obj
 *fill*         0x1000c515        0x3 
 .rodata.__func__.36
                0x1000c518        0xb CMakeFiles/example1.dir/D_/pico/pico-FreeRTOS-SMP/Source/tasks.c.obj
 *fill*         0x1000c523        0x1 
 .rodata.__func__.39
                0x1000c524       0x10 CMakeFiles/example1.dir/D_/pico/pico-FreeRTOS-SMP/Source/tasks.c.obj
 .rodata.__func__.6
                0x1000c534       0x12 CMakeFiles/example1.dir/D_/pico/pico-FreeRTOS-SMP/Source/tasks.c.obj
 *fill*         0x1000c546        0x2 
 .rodata.__func__.8
                0x1000c548       0x18 CMakeFiles/example1.dir/D_/pico/pico-FreeRTOS-SMP/Source/tasks.c.obj
 .rodata.prvCheckForValidListAndQueue.str1.4
                0x1000c560        0x5 CMakeFiles/example1.dir/D_/pico/pico-FreeRTOS-SMP/Source/timers.c.obj
 *fill*         0x1000c565        0x3 
 .rodata.prvInitialiseNewTimer.str1.4
                0x1000c568       0x46 CMakeFiles/example1.dir/D_/pico/pico-FreeRTOS-SMP/Source/timers.c.obj
 *fill*         0x1000c5ae        0x2 
 .rodata.xTimerCreateTimerTask.str1.4
                0x1000c5b0       0x10 CMakeFiles/example1.dir/D_/pico/pico-FreeRTOS-SMP/Source/timers.c.obj
 .rodata.xTimerGenericCommandFromTask.str1.4
                0x1000c5c0       0x2a CMakeFiles/example1.dir/D_/pico/pico-FreeRTOS-SMP/Source/timers.c.obj
 *fill*         0x1000c5ea        0x2 
 .rodata.prvSwitchTimerLists.str1.4
                0x1000c5ec        0x8 CMakeFiles/example1.dir/D_/pico/pico-FreeRTOS-SMP/Source/timers.c.obj
 .rodata.prvProcessReceivedCommands.str1.4
                0x1000c5f4       0x25 CMakeFiles/example1.dir/D_/pico/pico-FreeRTOS-SMP/Source/timers.c.obj
 *fill*         0x1000c619        0x3 
 .rodata.prvProcessReceivedCommands
                0x1000c61c       0x28 CMakeFiles/example1.dir/D_/pico/pico-FreeRTOS-SMP/Source/timers.c.obj
 .rodata.__func__.11
                0x1000c644       0x1d CMakeFiles/example1.dir/D_/pico/pico-FreeRTOS-SMP/Source/timers.c.obj
 *fill*         0x1000c661        0x3 
 .rodata.__func__.13
                0x1000c664       0x1b CMakeFiles/example1.dir/D_/pico/pico-FreeRTOS-SMP/Source/timers.c.obj
 *fill*         0x1000c67f        0x1 
 .rodata.__func__.14
                0x1000c680       0x17 CMakeFiles/example1.dir/D_/pico/pico-FreeRTOS-SMP/Source/timers.c.obj
 *fill*         0x1000c697        0x1 
 .rodata.__func__.15
                0x1000c698       0x14 CMakeFiles/example1.dir/D_/pico/pico-FreeRTOS-SMP/Source/timers.c.obj
 .rodata.__func__.17
                0x1000c6ac       0x16 CMakeFiles/example1.dir/D_/pico/pico-FreeRTOS-SMP/Source/timers.c.obj
 *fill*         0x1000c6c2        0x2 
 .rodata.exception_set_exclusive_handler.str1.4
                0x1000c6c4       0x83 CMakeFiles/example1.dir/D_/pico/pico-sdk/src/rp2_common/hardware_exception/exception.c.obj
 *fill*         0x1000c747        0x1 
 .rodata.__func__.1
                0x1000c748       0x20 CMakeFiles/example1.dir/D_/pico/pico-sdk/src/rp2_common/hardware_exception/exception.c.obj
 .rodata.pvPortMalloc.str1.4
                0x1000c768       0xa9 CMakeFiles/example1.dir/D_/pico/pico-FreeRTOS-SMP/Source/portable/MemMang/heap_4.c.obj
 *fill*         0x1000c811        0x3 
 .rodata.vPortFree.str1.4
                0x1000c814       0x5b CMakeFiles/example1.dir/D_/pico/pico-FreeRTOS-SMP/Source/portable/MemMang/heap_4.c.obj
 *fill*         0x1000c86f        0x1 
 .rodata.__func__.0
                0x1000c870        0xa CMakeFiles/example1.dir/D_/pico/pico-FreeRTOS-SMP/Source/portable/MemMang/heap_4.c.obj
 *fill*         0x1000c87a        0x2 
 .rodata.__func__.1
                0x1000c87c        0xd CMakeFiles/example1.dir/D_/pico/pico-FreeRTOS-SMP/Source/portable/MemMang/heap_4.c.obj
                0x1000c88c                . = ALIGN (0x4)
 *fill*         0x1000c889        0x3 
 *(SORT_BY_ALIGNMENT(SORT_BY_NAME(.flashdata*)))
                0x1000c88c                . = ALIGN (0x4)

.rel.dyn        0x1000c88c        0x0
 .rel.iplt      0x1000c88c        0x0 d:/pico/armcc/10 2021.10/bin/../lib/gcc/arm-none-eabi/10.3.1/thumb/v6-m/nofp/crtbegin.o

.ARM.extab
 *(.ARM.extab* .gnu.linkonce.armextab.*)
                0x1000c88c                __exidx_start = .

.ARM.exidx
 *(.ARM.exidx* .gnu.linkonce.armexidx.*)
                0x1000c88c                __exidx_end = .
                0x1000c88c                . = ALIGN (0x4)
                0x1000c88c                __binary_info_start = .

.binary_info    0x1000c88c       0x20
 *(.binary_info.keep.*)
 .binary_info.keep.__bi_ptr22
                0x1000c88c        0x4 CMakeFiles/example1.dir/D_/pico/pico-sdk/src/rp2_common/pico_standard_link/binary_info.c.obj
 .binary_info.keep.__bi_ptr30
                0x1000c890        0x4 CMakeFiles/example1.dir/D_/pico/pico-sdk/src/rp2_common/pico_standard_link/binary_info.c.obj
 .binary_info.keep.__bi_ptr38
                0x1000c894        0x4 CMakeFiles/example1.dir/D_/pico/pico-sdk/src/rp2_common/pico_standard_link/binary_info.c.obj
 .binary_info.keep.__bi_ptr44
                0x1000c898        0x4 CMakeFiles/example1.dir/D_/pico/pico-sdk/src/rp2_common/pico_standard_link/binary_info.c.obj
 .binary_info.keep.__bi_ptr50
                0x1000c89c        0x4 CMakeFiles/example1.dir/D_/pico/pico-sdk/src/rp2_common/pico_standard_link/binary_info.c.obj
 .binary_info.keep.__bi_ptr75
                0x1000c8a0        0x4 CMakeFiles/example1.dir/D_/pico/pico-sdk/src/rp2_common/pico_standard_link/binary_info.c.obj
 .binary_info.keep.__bi_ptr81
                0x1000c8a4        0x4 CMakeFiles/example1.dir/D_/pico/pico-sdk/src/rp2_common/pico_standard_link/binary_info.c.obj
 *(.binary_info.*)
 .binary_info.__bi_ptr118
                0x1000c8a8        0x4 CMakeFiles/example1.dir/D_/pico/pico-sdk/src/rp2_common/pico_stdio_usb/stdio_usb.c.obj
                0x1000c8ac                __binary_info_end = .
                0x1000c8ac                . = ALIGN (0x4)
                0x1000c8ac                __etext = .

.ram_vector_table
                0x20000000       0xc0
 *(.ram_vector_table)
 .ram_vector_table
                0x20000000       0xc0 CMakeFiles/example1.dir/D_/pico/pico-sdk/src/rp2_common/pico_runtime/runtime.c.obj
                0x20000000                ram_vector_table

.data           0x200000c0      0x474 load address 0x1000c8ac
                0x200000c0                __data_start__ = .
 *(vtable)
 *(.time_critical*)
 .time_critical.mutex_enter_blocking
                0x200000c0       0x3c CMakeFiles/example1.dir/D_/pico/pico-sdk/src/common/pico_sync/mutex.c.obj
                0x200000c0                mutex_enter_blocking
 .time_critical.mutex_try_enter
                0x200000fc       0x42 CMakeFiles/example1.dir/D_/pico/pico-sdk/src/common/pico_sync/mutex.c.obj
                0x200000fc                mutex_try_enter
 *fill*         0x2000013e        0x2 
 .time_critical.mutex_enter_block_until
                0x20000140       0x78 CMakeFiles/example1.dir/D_/pico/pico-sdk/src/common/pico_sync/mutex.c.obj
                0x20000140                mutex_enter_block_until
 .time_critical.mutex_enter_timeout_ms
                0x200001b8       0x74 CMakeFiles/example1.dir/D_/pico/pico-sdk/src/common/pico_sync/mutex.c.obj
                0x200001b8                mutex_enter_timeout_ms
 .time_critical.mutex_exit
                0x2000022c       0x40 CMakeFiles/example1.dir/D_/pico/pico-sdk/src/common/pico_sync/mutex.c.obj
                0x2000022c                mutex_exit
 .time_critical.flash_init_boot2_copyout
                0x2000026c       0x30 CMakeFiles/example1.dir/D_/pico/pico-sdk/src/rp2_common/hardware_flash/flash.c.obj
 .time_critical.flash_enable_xip_via_boot2
                0x2000029c       0x10 CMakeFiles/example1.dir/D_/pico/pico-sdk/src/rp2_common/hardware_flash/flash.c.obj
 .time_critical.flash_cs_force
                0x200002ac       0x28 CMakeFiles/example1.dir/D_/pico/pico-sdk/src/rp2_common/hardware_flash/flash.c.obj
 .time_critical.flash_do_cmd
                0x200002d4       0xd8 CMakeFiles/example1.dir/D_/pico/pico-sdk/src/rp2_common/hardware_flash/flash.c.obj
                0x200002d4                flash_do_cmd
 *(.text*)
 .text          0x200003ac        0x4 d:/pico/armcc/10 2021.10/bin/../lib/gcc/arm-none-eabi/10.3.1/thumb/v6-m/nofp\libgcc.a(_dvmd_tls.o)
                0x200003ac                __aeabi_idiv0
                0x200003ac                __aeabi_ldiv0
 .text.__stub   0x200003b0       0x70 linker stubs
                0x20000420                . = ALIGN (0x4)
 *(.rodata*)
                0x20000420                . = ALIGN (0x4)
 *(.data*)
 .data.striped_spin_lock_num
                0x20000420        0x1 CMakeFiles/example1.dir/D_/pico/pico-sdk/src/rp2_common/hardware_sync/sync.c.obj
 *fill*         0x20000421        0x3 
 .data          0x20000424       0x48 CMakeFiles/example1.dir/D_/pico/pico-sdk/src/rp2_common/hardware_irq/irq_handler_chain.S.obj
                0x20000424                irq_handler_chain_slots
                0x20000454                irq_handler_chain_first_slot
                0x2000045e                irq_handler_chain_remove_tail
 .data.default_alarm_pool
                0x2000046c       0x18 CMakeFiles/example1.dir/D_/pico/pico-sdk/src/common/pico_time/time.c.obj
 .data.default_alarm_pool_heap
                0x20000484       0x10 CMakeFiles/example1.dir/D_/pico/pico-sdk/src/common/pico_time/time.c.obj
 *fill*         0x20000494        0xc 
 .data.aeabi_bits_funcs
                0x200004a0       0x10 CMakeFiles/example1.dir/D_/pico/pico-sdk/src/rp2_common/pico_bit_ops/bit_ops_aeabi.S.obj
                0x200004a0                aeabi_bits_funcs
                0x200004b0                aeabi_bits_funcs_end
 .data.aeabi_mem_funcs
                0x200004b0       0x10 CMakeFiles/example1.dir/D_/pico/pico-sdk/src/rp2_common/pico_mem_ops/mem_ops_aeabi.S.obj
                0x200004b0                aeabi_mem_funcs
                0x200004c0                aeabi_mem_funcs_end
 .data.stdio_usb
                0x200004c0       0x14 CMakeFiles/example1.dir/D_/pico/pico-sdk/src/rp2_common/pico_stdio_usb/stdio_usb.c.obj
                0x200004c0                stdio_usb
 .data.ep_dir_string
                0x200004d4        0x8 CMakeFiles/example1.dir/D_/pico/pico-sdk/lib/tinyusb/src/portable/raspberrypi/rp2040/rp2040_usb.c.obj
                0x200004d4                ep_dir_string
 .data._usbd_qdef
                0x200004dc       0x24 CMakeFiles/example1.dir/D_/pico/pico-sdk/lib/tinyusb/src/device/usbd.c.obj
                0x200004dc                _usbd_qdef
 .data.ucPrimaryCoreNum
                0x20000500        0x1 CMakeFiles/example1.dir/D_/pico/pico-FreeRTOS-SMP/Source/portable/ThirdParty/GCC/RP2040/port.c.obj
 *fill*         0x20000501        0x3 
 .data.uxTopUsedPriority
                0x20000504        0x4 CMakeFiles/example1.dir/D_/pico/pico-FreeRTOS-SMP/Source/tasks.c.obj
                0x20000504                uxTopUsedPriority
                0x20000508                . = ALIGN (0x4)
 *(.after_data.*)
                0x20000508                . = ALIGN (0x4)
                0x20000508                PROVIDE (__mutex_array_start = .)
 *(SORT_BY_NAME(.mutex_array.*))
 *(.mutex_array)
 .mutex_array   0x20000508        0x8 CMakeFiles/example1.dir/D_/pico/pico-sdk/src/rp2_common/pico_malloc/pico_malloc.c.obj
 .mutex_array   0x20000510        0x8 CMakeFiles/example1.dir/D_/pico/pico-sdk/src/rp2_common/pico_stdio/stdio.c.obj
                0x20000518                PROVIDE (__mutex_array_end = .)
                0x20000518                . = ALIGN (0x4)
                0x20000518                PROVIDE (__preinit_array_start = .)
 *(SORT_BY_NAME(.preinit_array.*))
 .preinit_array.00001
                0x20000518        0x4 CMakeFiles/example1.dir/D_/pico/pico-sdk/src/rp2_common/pico_mem_ops/mem_ops_aeabi.S.obj
 .preinit_array.00010
                0x2000051c        0x4 CMakeFiles/example1.dir/D_/pico/pico-sdk/src/rp2_common/pico_bit_ops/bit_ops_aeabi.S.obj
 .preinit_array.00020
                0x20000520        0x4 CMakeFiles/example1.dir/D_/pico/pico-sdk/src/rp2_common/pico_double/double_aeabi.S.obj
 .preinit_array.00020
                0x20000524        0x4 CMakeFiles/example1.dir/D_/pico/pico-sdk/src/rp2_common/pico_float/float_aeabi.S.obj
 *(.preinit_array)
                0x20000528                PROVIDE (__preinit_array_end = .)
                0x20000528                . = ALIGN (0x4)
                0x20000528                PROVIDE (__init_array_start = .)
 *(SORT_BY_NAME(.init_array.*))
 *(.init_array)
 .init_array    0x20000528        0x4 d:/pico/armcc/10 2021.10/bin/../lib/gcc/arm-none-eabi/10.3.1/thumb/v6-m/nofp/crtbegin.o
 .init_array    0x2000052c        0x4 CMakeFiles/example1.dir/D_/pico/pico-sdk/src/rp2_common/pico_unique_id/unique_id.c.obj
 .init_array    0x20000530        0x4 CMakeFiles/example1.dir/D_/pico/pico-FreeRTOS-SMP/Source/portable/ThirdParty/GCC/RP2040/port.c.obj
                0x20000534                PROVIDE (__init_array_end = .)
                0x20000534                . = ALIGN (0x4)
                [!provide]                PROVIDE (__fini_array_start = .)
 *(SORT_BY_NAME(.fini_array.*))
 *(.fini_array)
                [!provide]                PROVIDE (__fini_array_end = .)
 *(.jcr)
                0x20000534                . = ALIGN (0x4)
                0x20000534                __data_end__ = .

.igot.plt       0x20000534        0x0 load address 0x1000cd20
 .igot.plt      0x20000534        0x0 d:/pico/armcc/10 2021.10/bin/../lib/gcc/arm-none-eabi/10.3.1/thumb/v6-m/nofp/crtbegin.o

.uninitialized_data
                0x20000534        0x0 load address 0x1000cd20
                0x20000534                . = ALIGN (0x4)
 *(.uninitialized_data*)

.scratch_x      0x20040000        0x0 load address 0x1000cd20
                0x20040000                __scratch_x_start__ = .
 *(.scratch_x.*)
                0x20040000                . = ALIGN (0x4)
                0x20040000                __scratch_x_end__ = .
                0x1000cd20                __scratch_x_source__ = LOADADDR (.scratch_x)

.scratch_y      0x20041000        0x0 load address 0x1000cd20
                0x20041000                __scratch_y_start__ = .
 *(.scratch_y.*)
                0x20041000                . = ALIGN (0x4)
                0x20041000                __scratch_y_end__ = .
                0x1000cd20                __scratch_y_source__ = LOADADDR (.scratch_y)

.bss            0x20000538    0x21160
                0x20000538                . = ALIGN (0x4)
                0x20000538                __bss_start__ = .
 *(SORT_BY_ALIGNMENT(SORT_BY_NAME(.bss*)))
 .bss.default_alarm_pool_entries
                0x20000538      0x100 CMakeFiles/example1.dir/D_/pico/pico-sdk/src/common/pico_time/time.c.obj
 .bss.last_avail_time.3
                0x20000638        0x8 CMakeFiles/example1.dir/D_/pico/pico-sdk/src/rp2_common/pico_stdio_usb/stdio_usb.c.obj
 .bss           0x20000640       0x1c d:/pico/armcc/10 2021.10/bin/../lib/gcc/arm-none-eabi/10.3.1/thumb/v6-m/nofp/crtbegin.o
 .bss._app_driver
                0x2000065c        0x4 CMakeFiles/example1.dir/D_/pico/pico-sdk/lib/tinyusb/src/device/usbd.c.obj
 .bss._cdcd_itf
                0x20000660      0x2d8 CMakeFiles/example1.dir/D_/pico/pico-sdk/lib/tinyusb/src/class/cdc/cdc_device.c.obj
 .bss._ctrl_xfer
                0x20000938       0x14 CMakeFiles/example1.dir/D_/pico/pico-sdk/lib/tinyusb/src/device/usbd_control.c.obj
 .bss._ubsd_mutexdef
                0x2000094c        0x8 CMakeFiles/example1.dir/D_/pico/pico-sdk/lib/tinyusb/src/device/usbd.c.obj
 .bss._usbd_ctrl_buf
                0x20000954       0x40 CMakeFiles/example1.dir/D_/pico/pico-sdk/lib/tinyusb/src/device/usbd_control.c.obj
 .bss._usbd_dev
                0x20000994       0x53 CMakeFiles/example1.dir/D_/pico/pico-sdk/lib/tinyusb/src/device/usbd.c.obj
 *fill*         0x200009e7        0x1 
 .bss._usbd_mutex
                0x200009e8        0x4 CMakeFiles/example1.dir/D_/pico/pico-sdk/lib/tinyusb/src/device/usbd.c.obj
 .bss._usbd_q   0x200009ec        0x4 CMakeFiles/example1.dir/D_/pico/pico-sdk/lib/tinyusb/src/device/usbd.c.obj
 .bss._usbd_qdef_buf
                0x200009f0       0xc0 CMakeFiles/example1.dir/D_/pico/pico-sdk/lib/tinyusb/src/device/usbd.c.obj
                0x200009f0                _usbd_qdef_buf
 .bss.alarm_callbacks
                0x20000ab0       0x10 CMakeFiles/example1.dir/D_/pico/pico-sdk/src/rp2_common/hardware_timer/timer.c.obj
 .bss.boot2_copyout
                0x20000ac0      0x100 CMakeFiles/example1.dir/D_/pico/pico-sdk/src/rp2_common/hardware_flash/flash.c.obj
 .bss.claimed   0x20000bc0        0x4 CMakeFiles/example1.dir/D_/pico/pico-sdk/src/rp2_common/hardware_sync/sync.c.obj
 .bss.configured_freq
                0x20000bc4       0x28 CMakeFiles/example1.dir/D_/pico/pico-sdk/src/rp2_common/hardware_clocks/clocks.c.obj
 .bss.default_alarm_pool_entry_ids_high
                0x20000bec       0x10 CMakeFiles/example1.dir/D_/pico/pico-sdk/src/common/pico_time/time.c.obj
 .bss.default_alarm_pool_heap_nodes
                0x20000bfc       0x30 CMakeFiles/example1.dir/D_/pico/pico-sdk/src/common/pico_time/time.c.obj
 .bss.desc_str.0
                0x20000c2c       0x28 CMakeFiles/example1.dir/D_/pico/pico-sdk/src/rp2_common/pico_stdio_usb/stdio_usb_descriptors.c.obj
 .bss.drivers   0x20000c54        0x4 CMakeFiles/example1.dir/D_/pico/pico-sdk/src/rp2_common/pico_stdio/stdio.c.obj
 .bss.filter    0x20000c58        0x4 CMakeFiles/example1.dir/D_/pico/pico-sdk/src/rp2_common/pico_stdio/stdio.c.obj
 .bss.hw_endpoints
                0x20000c5c      0x400 CMakeFiles/example1.dir/D_/pico/pico-sdk/lib/tinyusb/src/portable/raspberrypi/rp2040/dcd_rp2040.c.obj
 .bss.load_value
                0x2000105c        0x4 CMakeFiles/example1.dir/D_/pico/pico-sdk/src/rp2_common/hardware_watchdog/watchdog.c.obj
 .bss.next_buffer_ptr
                0x20001060        0x4 CMakeFiles/example1.dir/D_/pico/pico-sdk/lib/tinyusb/src/portable/raspberrypi/rp2040/dcd_rp2040.c.obj
 .bss.pools     0x20001064       0x10 CMakeFiles/example1.dir/D_/pico/pico-sdk/src/common/pico_time/time.c.obj
 .bss.pxCrossCoreSpinLock
                0x20001074        0x4 CMakeFiles/example1.dir/D_/pico/pico-FreeRTOS-SMP/Source/portable/ThirdParty/GCC/RP2040/port.c.obj
 .bss.pxCurrentTCBs
                0x20001078        0x4 CMakeFiles/example1.dir/D_/pico/pico-FreeRTOS-SMP/Source/tasks.c.obj
                0x20001078                pxCurrentTCBs
 .bss.pxCurrentTimerList
                0x2000107c        0x4 CMakeFiles/example1.dir/D_/pico/pico-FreeRTOS-SMP/Source/timers.c.obj
 .bss.pxDelayedTaskList
                0x20001080        0x4 CMakeFiles/example1.dir/D_/pico/pico-FreeRTOS-SMP/Source/tasks.c.obj
 .bss.pxEnd     0x20001084        0x4 CMakeFiles/example1.dir/D_/pico/pico-FreeRTOS-SMP/Source/portable/MemMang/heap_4.c.obj
 .bss.pxOverflowDelayedTaskList
                0x20001088        0x4 CMakeFiles/example1.dir/D_/pico/pico-FreeRTOS-SMP/Source/tasks.c.obj
 .bss.pxOverflowTimerList
                0x2000108c        0x4 CMakeFiles/example1.dir/D_/pico/pico-FreeRTOS-SMP/Source/timers.c.obj
 .bss.pxReadyTasksLists
                0x20001090      0x280 CMakeFiles/example1.dir/D_/pico/pico-FreeRTOS-SMP/Source/tasks.c.obj
 .bss.pxYieldSpinLock
                0x20001310        0x4 CMakeFiles/example1.dir/D_/pico/pico-FreeRTOS-SMP/Source/portable/ThirdParty/GCC/RP2040/port.c.obj
 .bss.retrieved_id
                0x20001314        0x8 CMakeFiles/example1.dir/D_/pico/pico-sdk/src/rp2_common/pico_unique_id/unique_id.c.obj
 .bss.sd_table  0x2000131c      0x100 CMakeFiles/example1.dir/D_/pico/pico-sdk/src/rp2_common/pico_double/double_init_rom.c.obj
                0x2000131c                sd_table
 .bss.sf_clz_func
                0x2000141c        0x4 CMakeFiles/example1.dir/D_/pico/pico-sdk/src/rp2_common/pico_double/double_init_rom.c.obj
                0x2000141c                sf_clz_func
 .bss.sf_table  0x20001420      0x100 CMakeFiles/example1.dir/D_/pico/pico-sdk/src/rp2_common/pico_float/float_init_rom.c.obj
                0x20001420                sf_table
 .bss.sleep_notifier
                0x20001520        0x4 CMakeFiles/example1.dir/D_/pico/pico-sdk/src/common/pico_time/time.c.obj
 .bss.stdio_usb_mutex
                0x20001524        0x8 CMakeFiles/example1.dir/D_/pico/pico-sdk/src/rp2_common/pico_stdio_usb/stdio_usb.c.obj
 .bss.target_hi
                0x2000152c       0x10 CMakeFiles/example1.dir/D_/pico/pico-sdk/src/rp2_common/hardware_timer/timer.c.obj
 .bss.ucHeap    0x2000153c    0x20000 CMakeFiles/example1.dir/D_/pico/pico-FreeRTOS-SMP/Source/portable/MemMang/heap_4.c.obj
 .bss.ucOwnedByCore.26
                0x2002153c        0x2 CMakeFiles/example1.dir/D_/pico/pico-FreeRTOS-SMP/Source/tasks.c.obj
 *fill*         0x2002153e        0x2 
 .bss.ucRecursionCountByLock.25
                0x20021540        0x2 CMakeFiles/example1.dir/D_/pico/pico-FreeRTOS-SMP/Source/tasks.c.obj
 *fill*         0x20021542        0x2 
 .bss.ulYieldSpinLockSaveValue
                0x20021544        0x4 CMakeFiles/example1.dir/D_/pico/pico-FreeRTOS-SMP/Source/portable/ThirdParty/GCC/RP2040/port.c.obj
 .bss.usbd_serial_str
                0x20021548       0x11 CMakeFiles/example1.dir/D_/pico/pico-sdk/src/rp2_common/pico_stdio_usb/stdio_usb_descriptors.c.obj
 *fill*         0x20021559        0x3 
 .bss.user_irq_claimed
                0x2002155c        0x2 CMakeFiles/example1.dir/D_/pico/pico-sdk/src/rp2_common/hardware_irq/irq.c.obj
 *fill*         0x2002155e        0x2 
 .bss.uxCrossCoreEventBits
                0x20021560        0x4 CMakeFiles/example1.dir/D_/pico/pico-FreeRTOS-SMP/Source/portable/ThirdParty/GCC/RP2040/port.c.obj
 .bss.uxCurrentNumberOfTasks
                0x20021564        0x4 CMakeFiles/example1.dir/D_/pico/pico-FreeRTOS-SMP/Source/tasks.c.obj
 .bss.uxDeletedTasksWaitingCleanUp
                0x20021568        0x4 CMakeFiles/example1.dir/D_/pico/pico-FreeRTOS-SMP/Source/tasks.c.obj
 .bss.uxSchedulerSuspended
                0x2002156c        0x4 CMakeFiles/example1.dir/D_/pico/pico-FreeRTOS-SMP/Source/tasks.c.obj
 .bss.uxTaskNumber
                0x20021570        0x4 CMakeFiles/example1.dir/D_/pico/pico-FreeRTOS-SMP/Source/tasks.c.obj
 .bss.uxTopReadyPriority
                0x20021574        0x4 CMakeFiles/example1.dir/D_/pico/pico-FreeRTOS-SMP/Source/tasks.c.obj
 .bss.xActiveTimerList1
                0x20021578       0x14 CMakeFiles/example1.dir/D_/pico/pico-FreeRTOS-SMP/Source/timers.c.obj
 .bss.xActiveTimerList2
                0x2002158c       0x14 CMakeFiles/example1.dir/D_/pico/pico-FreeRTOS-SMP/Source/timers.c.obj
 .bss.xBlockAllocatedBit
                0x200215a0        0x4 CMakeFiles/example1.dir/D_/pico/pico-FreeRTOS-SMP/Source/portable/MemMang/heap_4.c.obj
 .bss.xDelayedTaskList1
                0x200215a4       0x14 CMakeFiles/example1.dir/D_/pico/pico-FreeRTOS-SMP/Source/tasks.c.obj
 .bss.xDelayedTaskList2
                0x200215b8       0x14 CMakeFiles/example1.dir/D_/pico/pico-FreeRTOS-SMP/Source/tasks.c.obj
 .bss.xEventGroup
                0x200215cc        0x4 CMakeFiles/example1.dir/D_/pico/pico-FreeRTOS-SMP/Source/portable/ThirdParty/GCC/RP2040/port.c.obj
 .bss.xFreeBytesRemaining
                0x200215d0        0x4 CMakeFiles/example1.dir/D_/pico/pico-FreeRTOS-SMP/Source/portable/MemMang/heap_4.c.obj
 .bss.xIdleTaskHandle
                0x200215d4        0x4 CMakeFiles/example1.dir/D_/pico/pico-FreeRTOS-SMP/Source/tasks.c.obj
 .bss.xLastTime.16
                0x200215d8        0x4 CMakeFiles/example1.dir/D_/pico/pico-FreeRTOS-SMP/Source/timers.c.obj
 .bss.xMinimumEverFreeBytesRemaining
                0x200215dc        0x4 CMakeFiles/example1.dir/D_/pico/pico-FreeRTOS-SMP/Source/portable/MemMang/heap_4.c.obj
 .bss.xNextTaskUnblockTime
                0x200215e0        0x4 CMakeFiles/example1.dir/D_/pico/pico-FreeRTOS-SMP/Source/tasks.c.obj
 .bss.xNumOfOverflows
                0x200215e4        0x4 CMakeFiles/example1.dir/D_/pico/pico-FreeRTOS-SMP/Source/tasks.c.obj
 .bss.xNumberOfSuccessfulAllocations
                0x200215e8        0x4 CMakeFiles/example1.dir/D_/pico/pico-FreeRTOS-SMP/Source/portable/MemMang/heap_4.c.obj
 .bss.xNumberOfSuccessfulFrees
                0x200215ec        0x4 CMakeFiles/example1.dir/D_/pico/pico-FreeRTOS-SMP/Source/portable/MemMang/heap_4.c.obj
 .bss.xPendedTicks
                0x200215f0        0x4 CMakeFiles/example1.dir/D_/pico/pico-FreeRTOS-SMP/Source/tasks.c.obj
 .bss.xPendingReadyList
                0x200215f4       0x14 CMakeFiles/example1.dir/D_/pico/pico-FreeRTOS-SMP/Source/tasks.c.obj
 .bss.xQueueRegistry
                0x20021608       0x40 CMakeFiles/example1.dir/D_/pico/pico-FreeRTOS-SMP/Source/queue.c.obj
                0x20021608                xQueueRegistry
 .bss.xSchedulerRunning
                0x20021648        0x4 CMakeFiles/example1.dir/D_/pico/pico-FreeRTOS-SMP/Source/tasks.c.obj
 .bss.xStart    0x2002164c        0x8 CMakeFiles/example1.dir/D_/pico/pico-FreeRTOS-SMP/Source/portable/MemMang/heap_4.c.obj
 .bss.xSuspendedTaskList
                0x20021654       0x14 CMakeFiles/example1.dir/D_/pico/pico-FreeRTOS-SMP/Source/tasks.c.obj
 .bss.xTasksWaitingTermination
                0x20021668       0x14 CMakeFiles/example1.dir/D_/pico/pico-FreeRTOS-SMP/Source/tasks.c.obj
 .bss.xTickCount
                0x2002167c        0x4 CMakeFiles/example1.dir/D_/pico/pico-FreeRTOS-SMP/Source/tasks.c.obj
 .bss.xTimerQueue
                0x20021680        0x4 CMakeFiles/example1.dir/D_/pico/pico-FreeRTOS-SMP/Source/timers.c.obj
 .bss.xTimerTaskHandle
                0x20021684        0x4 CMakeFiles/example1.dir/D_/pico/pico-FreeRTOS-SMP/Source/timers.c.obj
 .bss.xYieldPendings
                0x20021688        0x4 CMakeFiles/example1.dir/D_/pico/pico-FreeRTOS-SMP/Source/tasks.c.obj
 .bss._app_driver_count
                0x2002168c        0x1 CMakeFiles/example1.dir/D_/pico/pico-sdk/lib/tinyusb/src/device/usbd.c.obj
 .bss._usbd_initialized
                0x2002168d        0x1 CMakeFiles/example1.dir/D_/pico/pico-sdk/lib/tinyusb/src/device/usbd.c.obj
 .bss.boot2_copyout_valid
                0x2002168e        0x1 CMakeFiles/example1.dir/D_/pico/pico-sdk/src/rp2_common/hardware_flash/flash.c.obj
 .bss.claimed   0x2002168f        0x1 CMakeFiles/example1.dir/D_/pico/pico-sdk/src/rp2_common/hardware_timer/timer.c.obj
 .bss.irq_hander_chain_free_slot_head
                0x20021690        0x1 CMakeFiles/example1.dir/D_/pico/pico-sdk/src/rp2_common/hardware_irq/irq.c.obj
 .bss.itf_num   0x20021691        0x1 CMakeFiles/example1.dir/D_/pico/pico-sdk/src/rp2_common/pico_stdio_usb/reset_interface.c.obj
 .bss.low_priority_irq_num
                0x20021692        0x1 CMakeFiles/example1.dir/D_/pico/pico-sdk/src/rp2_common/pico_stdio_usb/stdio_usb.c.obj
 .bss.stdio_usb_core_num
                0x20021693        0x1 CMakeFiles/example1.dir/D_/pico/pico-sdk/src/rp2_common/pico_stdio_usb/stdio_usb.c.obj
 .bss.timer_callbacks_pending
                0x20021694        0x1 CMakeFiles/example1.dir/D_/pico/pico-sdk/src/rp2_common/hardware_timer/timer.c.obj
 *(COMMON)
                0x20021698                . = ALIGN (0x4)
 *fill*         0x20021695        0x3 
                0x20021698                __bss_end__ = .

.heap           0x20021698      0x800
                0x20021698                __end__ = .
                0x20021698                end = __end__
 *(.heap*)
 .heap          0x20021698      0x800 CMakeFiles/example1.dir/D_/pico/pico-sdk/src/rp2_common/pico_standard_link/crt0.S.obj
                0x20021e98                __HeapLimit = .

.stack1_dummy   0x20040000        0x0
 *(.stack1*)

.stack_dummy    0x20041000      0x800
 *(.stack*)
 .stack         0x20041000      0x800 CMakeFiles/example1.dir/D_/pico/pico-sdk/src/rp2_common/pico_standard_link/crt0.S.obj

.flash_end      0x1000cd20        0x0
                0x1000cd20                __flash_binary_end = .
                0x20040000                __StackLimit = (ORIGIN (RAM) + LENGTH (RAM))
                0x20041000                __StackOneTop = (ORIGIN (SCRATCH_X) + LENGTH (SCRATCH_X))
                0x20042000                __StackTop = (ORIGIN (SCRATCH_Y) + LENGTH (SCRATCH_Y))
                0x20041000                __StackOneBottom = (__StackOneTop - SIZEOF (.stack1_dummy))
                0x20041800                __StackBottom = (__StackTop - SIZEOF (.stack_dummy))
                0x20042000                PROVIDE (__stack = __StackTop)
                0x00000001                ASSERT ((__StackLimit >= __HeapLimit), region RAM overflowed)
                0x00000001                ASSERT (((__binary_info_header_end - __logical_binary_start) <= 0x100), Binary info must be in first 256 bytes of the binary)
LOAD CMakeFiles/example1.dir/main.c.obj
LOAD CMakeFiles/example1.dir/ex1_create_task.c.obj
LOAD CMakeFiles/example1.dir/D_/pico/pico-sdk/src/rp2_common/pico_stdlib/stdlib.c.obj
LOAD CMakeFiles/example1.dir/D_/pico/pico-sdk/src/rp2_common/hardware_gpio/gpio.c.obj
LOAD CMakeFiles/example1.dir/D_/pico/pico-sdk/src/rp2_common/hardware_claim/claim.c.obj
LOAD CMakeFiles/example1.dir/D_/pico/pico-sdk/src/rp2_common/pico_platform/platform.c.obj
LOAD CMakeFiles/example1.dir/D_/pico/pico-sdk/src/rp2_common/hardware_sync/sync.c.obj
LOAD CMakeFiles/example1.dir/D_/pico/pico-sdk/src/rp2_common/hardware_irq/irq.c.obj
LOAD CMakeFiles/example1.dir/D_/pico/pico-sdk/src/rp2_common/hardware_irq/irq_handler_chain.S.obj
LOAD CMakeFiles/example1.dir/D_/pico/pico-sdk/src/common/pico_sync/sem.c.obj
LOAD CMakeFiles/example1.dir/D_/pico/pico-sdk/src/common/pico_sync/lock_core.c.obj
LOAD CMakeFiles/example1.dir/D_/pico/pico-sdk/src/common/pico_time/time.c.obj
LOAD CMakeFiles/example1.dir/D_/pico/pico-sdk/src/common/pico_time/timeout_helper.c.obj
LOAD CMakeFiles/example1.dir/D_/pico/pico-sdk/src/rp2_common/hardware_timer/timer.c.obj
LOAD CMakeFiles/example1.dir/D_/pico/pico-sdk/src/common/pico_util/datetime.c.obj
LOAD CMakeFiles/example1.dir/D_/pico/pico-sdk/src/common/pico_util/pheap.c.obj
LOAD CMakeFiles/example1.dir/D_/pico/pico-sdk/src/common/pico_util/queue.c.obj
LOAD CMakeFiles/example1.dir/D_/pico/pico-sdk/src/common/pico_sync/mutex.c.obj
LOAD CMakeFiles/example1.dir/D_/pico/pico-sdk/src/common/pico_sync/critical_section.c.obj
LOAD CMakeFiles/example1.dir/D_/pico/pico-sdk/src/rp2_common/hardware_uart/uart.c.obj
LOAD CMakeFiles/example1.dir/D_/pico/pico-sdk/src/rp2_common/hardware_divider/divider.S.obj
LOAD CMakeFiles/example1.dir/D_/pico/pico-sdk/src/rp2_common/pico_runtime/runtime.c.obj
LOAD CMakeFiles/example1.dir/D_/pico/pico-sdk/src/rp2_common/hardware_clocks/clocks.c.obj
LOAD CMakeFiles/example1.dir/D_/pico/pico-sdk/src/rp2_common/hardware_pll/pll.c.obj
LOAD CMakeFiles/example1.dir/D_/pico/pico-sdk/src/rp2_common/hardware_vreg/vreg.c.obj
LOAD CMakeFiles/example1.dir/D_/pico/pico-sdk/src/rp2_common/hardware_watchdog/watchdog.c.obj
LOAD CMakeFiles/example1.dir/D_/pico/pico-sdk/src/rp2_common/hardware_xosc/xosc.c.obj
LOAD CMakeFiles/example1.dir/D_/pico/pico-sdk/src/rp2_common/pico_printf/printf.c.obj
LOAD CMakeFiles/example1.dir/D_/pico/pico-sdk/src/rp2_common/pico_bit_ops/bit_ops_aeabi.S.obj
LOAD CMakeFiles/example1.dir/D_/pico/pico-sdk/src/rp2_common/pico_bootrom/bootrom.c.obj
LOAD CMakeFiles/example1.dir/D_/pico/pico-sdk/src/rp2_common/pico_divider/divider.S.obj
LOAD CMakeFiles/example1.dir/D_/pico/pico-sdk/src/rp2_common/pico_double/double_aeabi.S.obj
LOAD CMakeFiles/example1.dir/D_/pico/pico-sdk/src/rp2_common/pico_double/double_init_rom.c.obj
LOAD CMakeFiles/example1.dir/D_/pico/pico-sdk/src/rp2_common/pico_double/double_math.c.obj
LOAD CMakeFiles/example1.dir/D_/pico/pico-sdk/src/rp2_common/pico_double/double_v1_rom_shim.S.obj
LOAD CMakeFiles/example1.dir/D_/pico/pico-sdk/src/rp2_common/pico_int64_ops/pico_int64_ops_aeabi.S.obj
LOAD CMakeFiles/example1.dir/D_/pico/pico-sdk/src/rp2_common/pico_float/float_aeabi.S.obj
LOAD CMakeFiles/example1.dir/D_/pico/pico-sdk/src/rp2_common/pico_float/float_init_rom.c.obj
LOAD CMakeFiles/example1.dir/D_/pico/pico-sdk/src/rp2_common/pico_float/float_math.c.obj
LOAD CMakeFiles/example1.dir/D_/pico/pico-sdk/src/rp2_common/pico_float/float_v1_rom_shim.S.obj
LOAD CMakeFiles/example1.dir/D_/pico/pico-sdk/src/rp2_common/pico_malloc/pico_malloc.c.obj
LOAD CMakeFiles/example1.dir/D_/pico/pico-sdk/src/rp2_common/pico_mem_ops/mem_ops_aeabi.S.obj
LOAD CMakeFiles/example1.dir/D_/pico/pico-sdk/src/rp2_common/pico_standard_link/crt0.S.obj
LOAD CMakeFiles/example1.dir/D_/pico/pico-sdk/src/rp2_common/pico_standard_link/new_delete.cpp.obj
LOAD CMakeFiles/example1.dir/D_/pico/pico-sdk/src/rp2_common/pico_standard_link/binary_info.c.obj
LOAD CMakeFiles/example1.dir/D_/pico/pico-sdk/src/rp2_common/pico_stdio/stdio.c.obj
LOAD CMakeFiles/example1.dir/D_/pico/pico-sdk/src/rp2_common/pico_stdio_usb/reset_interface.c.obj
LOAD CMakeFiles/example1.dir/D_/pico/pico-sdk/src/rp2_common/pico_stdio_usb/stdio_usb.c.obj
LOAD CMakeFiles/example1.dir/D_/pico/pico-sdk/src/rp2_common/pico_stdio_usb/stdio_usb_descriptors.c.obj
LOAD CMakeFiles/example1.dir/D_/pico/pico-sdk/lib/tinyusb/src/portable/raspberrypi/rp2040/dcd_rp2040.c.obj
LOAD CMakeFiles/example1.dir/D_/pico/pico-sdk/lib/tinyusb/src/portable/raspberrypi/rp2040/rp2040_usb.c.obj
LOAD CMakeFiles/example1.dir/D_/pico/pico-sdk/lib/tinyusb/src/device/usbd.c.obj
LOAD CMakeFiles/example1.dir/D_/pico/pico-sdk/lib/tinyusb/src/device/usbd_control.c.obj
LOAD CMakeFiles/example1.dir/D_/pico/pico-sdk/lib/tinyusb/src/class/audio/audio_device.c.obj
LOAD CMakeFiles/example1.dir/D_/pico/pico-sdk/lib/tinyusb/src/class/cdc/cdc_device.c.obj
LOAD CMakeFiles/example1.dir/D_/pico/pico-sdk/lib/tinyusb/src/class/dfu/dfu_device.c.obj
LOAD CMakeFiles/example1.dir/D_/pico/pico-sdk/lib/tinyusb/src/class/dfu/dfu_rt_device.c.obj
LOAD CMakeFiles/example1.dir/D_/pico/pico-sdk/lib/tinyusb/src/class/hid/hid_device.c.obj
LOAD CMakeFiles/example1.dir/D_/pico/pico-sdk/lib/tinyusb/src/class/midi/midi_device.c.obj
LOAD CMakeFiles/example1.dir/D_/pico/pico-sdk/lib/tinyusb/src/class/msc/msc_device.c.obj
LOAD CMakeFiles/example1.dir/D_/pico/pico-sdk/lib/tinyusb/src/class/net/ecm_rndis_device.c.obj
LOAD CMakeFiles/example1.dir/D_/pico/pico-sdk/lib/tinyusb/src/class/net/ncm_device.c.obj
LOAD CMakeFiles/example1.dir/D_/pico/pico-sdk/lib/tinyusb/src/class/usbtmc/usbtmc_device.c.obj
LOAD CMakeFiles/example1.dir/D_/pico/pico-sdk/lib/tinyusb/src/class/vendor/vendor_device.c.obj
LOAD CMakeFiles/example1.dir/D_/pico/pico-sdk/lib/tinyusb/src/class/video/video_device.c.obj
LOAD CMakeFiles/example1.dir/D_/pico/pico-sdk/lib/tinyusb/src/tusb.c.obj
LOAD CMakeFiles/example1.dir/D_/pico/pico-sdk/lib/tinyusb/src/common/tusb_fifo.c.obj
LOAD CMakeFiles/example1.dir/D_/pico/pico-sdk/src/rp2_common/pico_fix/rp2040_usb_device_enumeration/rp2040_usb_device_enumeration.c.obj
LOAD CMakeFiles/example1.dir/D_/pico/pico-sdk/src/rp2_common/pico_unique_id/unique_id.c.obj
LOAD CMakeFiles/example1.dir/D_/pico/pico-sdk/src/rp2_common/hardware_flash/flash.c.obj
LOAD CMakeFiles/example1.dir/D_/pico/pico-FreeRTOS-SMP/Source/portable/ThirdParty/GCC/RP2040/port.c.obj
LOAD CMakeFiles/example1.dir/D_/pico/pico-FreeRTOS-SMP/Source/croutine.c.obj
LOAD CMakeFiles/example1.dir/D_/pico/pico-FreeRTOS-SMP/Source/event_groups.c.obj
LOAD CMakeFiles/example1.dir/D_/pico/pico-FreeRTOS-SMP/Source/list.c.obj
LOAD CMakeFiles/example1.dir/D_/pico/pico-FreeRTOS-SMP/Source/queue.c.obj
LOAD CMakeFiles/example1.dir/D_/pico/pico-FreeRTOS-SMP/Source/stream_buffer.c.obj
LOAD CMakeFiles/example1.dir/D_/pico/pico-FreeRTOS-SMP/Source/tasks.c.obj
LOAD CMakeFiles/example1.dir/D_/pico/pico-FreeRTOS-SMP/Source/timers.c.obj
LOAD CMakeFiles/example1.dir/D_/pico/pico-sdk/src/rp2_common/hardware_exception/exception.c.obj
LOAD CMakeFiles/example1.dir/D_/pico/pico-sdk/src/rp2_common/pico_multicore/multicore.c.obj
LOAD CMakeFiles/example1.dir/D_/pico/pico-FreeRTOS-SMP/Source/portable/MemMang/heap_4.c.obj
LOAD C:\Users\ployy\AppData\Local\Temp\ccQVgsae.o
LOAD d:/pico/armcc/10 2021.10/bin/../lib/gcc/arm-none-eabi/10.3.1/../../../../arm-none-eabi/lib/thumb/v6-m/nofp\libstdc++.a
LOAD d:/pico/armcc/10 2021.10/bin/../lib/gcc/arm-none-eabi/10.3.1/../../../../arm-none-eabi/lib/thumb/v6-m/nofp\libm.a
START GROUP
LOAD d:/pico/armcc/10 2021.10/bin/../lib/gcc/arm-none-eabi/10.3.1/thumb/v6-m/nofp\libgcc.a
LOAD d:/pico/armcc/10 2021.10/bin/../lib/gcc/arm-none-eabi/10.3.1/../../../../arm-none-eabi/lib/thumb/v6-m/nofp\libg.a
LOAD d:/pico/armcc/10 2021.10/bin/../lib/gcc/arm-none-eabi/10.3.1/../../../../arm-none-eabi/lib/thumb/v6-m/nofp\libc.a
END GROUP
START GROUP
LOAD d:/pico/armcc/10 2021.10/bin/../lib/gcc/arm-none-eabi/10.3.1/thumb/v6-m/nofp\libgcc.a
LOAD d:/pico/armcc/10 2021.10/bin/../lib/gcc/arm-none-eabi/10.3.1/../../../../arm-none-eabi/lib/thumb/v6-m/nofp\libc.a
LOAD d:/pico/armcc/10 2021.10/bin/../lib/gcc/arm-none-eabi/10.3.1/../../../../arm-none-eabi/lib/thumb/v6-m/nofp\libnosys.a
END GROUP
LOAD d:/pico/armcc/10 2021.10/bin/../lib/gcc/arm-none-eabi/10.3.1/thumb/v6-m/nofp/crtend.o
LOAD d:/pico/armcc/10 2021.10/bin/../lib/gcc/arm-none-eabi/10.3.1/thumb/v6-m/nofp/crtn.o
OUTPUT(example1.elf elf32-littlearm)
LOAD linker stubs

.ARM.attributes
                0x00000000       0x28
 .ARM.attributes
                0x00000000       0x1e d:/pico/armcc/10 2021.10/bin/../lib/gcc/arm-none-eabi/10.3.1/thumb/v6-m/nofp/crti.o
 .ARM.attributes
                0x0000001e       0x2c d:/pico/armcc/10 2021.10/bin/../lib/gcc/arm-none-eabi/10.3.1/thumb/v6-m/nofp/crtbegin.o
 .ARM.attributes
                0x0000004a       0x2c CMakeFiles/example1.dir/main.c.obj
 .ARM.attributes
                0x00000076       0x2c CMakeFiles/example1.dir/ex1_create_task.c.obj
 .ARM.attributes
                0x000000a2       0x2c CMakeFiles/example1.dir/D_/pico/pico-sdk/src/rp2_common/hardware_claim/claim.c.obj
 .ARM.attributes
                0x000000ce       0x2c CMakeFiles/example1.dir/D_/pico/pico-sdk/src/rp2_common/pico_platform/platform.c.obj
 .ARM.attributes
                0x000000fa       0x2c CMakeFiles/example1.dir/D_/pico/pico-sdk/src/rp2_common/hardware_sync/sync.c.obj
 .ARM.attributes
                0x00000126       0x2c CMakeFiles/example1.dir/D_/pico/pico-sdk/src/rp2_common/hardware_irq/irq.c.obj
 .ARM.attributes
                0x00000152       0x22 CMakeFiles/example1.dir/D_/pico/pico-sdk/src/rp2_common/hardware_irq/irq_handler_chain.S.obj
 .ARM.attributes
                0x00000174       0x2c CMakeFiles/example1.dir/D_/pico/pico-sdk/src/common/pico_sync/lock_core.c.obj
 .ARM.attributes
                0x000001a0       0x2c CMakeFiles/example1.dir/D_/pico/pico-sdk/src/common/pico_time/time.c.obj
 .ARM.attributes
                0x000001cc       0x2c CMakeFiles/example1.dir/D_/pico/pico-sdk/src/rp2_common/hardware_timer/timer.c.obj
 .ARM.attributes
                0x000001f8       0x2c CMakeFiles/example1.dir/D_/pico/pico-sdk/src/common/pico_util/pheap.c.obj
 .ARM.attributes
                0x00000224       0x2c CMakeFiles/example1.dir/D_/pico/pico-sdk/src/common/pico_sync/mutex.c.obj
 .ARM.attributes
                0x00000250       0x2c CMakeFiles/example1.dir/D_/pico/pico-sdk/src/common/pico_sync/critical_section.c.obj
 .ARM.attributes
                0x0000027c       0x2c CMakeFiles/example1.dir/D_/pico/pico-sdk/src/rp2_common/pico_runtime/runtime.c.obj
 .ARM.attributes
                0x000002a8       0x2c CMakeFiles/example1.dir/D_/pico/pico-sdk/src/rp2_common/hardware_clocks/clocks.c.obj
 .ARM.attributes
                0x000002d4       0x2c CMakeFiles/example1.dir/D_/pico/pico-sdk/src/rp2_common/hardware_pll/pll.c.obj
 .ARM.attributes
                0x00000300       0x2c CMakeFiles/example1.dir/D_/pico/pico-sdk/src/rp2_common/hardware_watchdog/watchdog.c.obj
 .ARM.attributes
                0x0000032c       0x2c CMakeFiles/example1.dir/D_/pico/pico-sdk/src/rp2_common/hardware_xosc/xosc.c.obj
 .ARM.attributes
                0x00000358       0x2c CMakeFiles/example1.dir/D_/pico/pico-sdk/src/rp2_common/pico_printf/printf.c.obj
 .ARM.attributes
                0x00000384       0x22 CMakeFiles/example1.dir/D_/pico/pico-sdk/src/rp2_common/pico_bit_ops/bit_ops_aeabi.S.obj
 .ARM.attributes
                0x000003a6       0x2c CMakeFiles/example1.dir/D_/pico/pico-sdk/src/rp2_common/pico_bootrom/bootrom.c.obj
 .ARM.attributes
                0x000003d2       0x22 CMakeFiles/example1.dir/D_/pico/pico-sdk/src/rp2_common/pico_divider/divider.S.obj
 .ARM.attributes
                0x000003f4       0x22 CMakeFiles/example1.dir/D_/pico/pico-sdk/src/rp2_common/pico_double/double_aeabi.S.obj
 .ARM.attributes
                0x00000416       0x2c CMakeFiles/example1.dir/D_/pico/pico-sdk/src/rp2_common/pico_double/double_init_rom.c.obj
 .ARM.attributes
                0x00000442       0x22 CMakeFiles/example1.dir/D_/pico/pico-sdk/src/rp2_common/pico_double/double_v1_rom_shim.S.obj
 .ARM.attributes
                0x00000464       0x22 CMakeFiles/example1.dir/D_/pico/pico-sdk/src/rp2_common/pico_int64_ops/pico_int64_ops_aeabi.S.obj
 .ARM.attributes
                0x00000486       0x22 CMakeFiles/example1.dir/D_/pico/pico-sdk/src/rp2_common/pico_float/float_aeabi.S.obj
 .ARM.attributes
                0x000004a8       0x2c CMakeFiles/example1.dir/D_/pico/pico-sdk/src/rp2_common/pico_float/float_init_rom.c.obj
 .ARM.attributes
                0x000004d4       0x22 CMakeFiles/example1.dir/D_/pico/pico-sdk/src/rp2_common/pico_float/float_v1_rom_shim.S.obj
 .ARM.attributes
                0x000004f6       0x2c CMakeFiles/example1.dir/D_/pico/pico-sdk/src/rp2_common/pico_malloc/pico_malloc.c.obj
 .ARM.attributes
                0x00000522       0x22 CMakeFiles/example1.dir/D_/pico/pico-sdk/src/rp2_common/pico_mem_ops/mem_ops_aeabi.S.obj
 .ARM.attributes
                0x00000544       0x22 CMakeFiles/example1.dir/D_/pico/pico-sdk/src/rp2_common/pico_standard_link/crt0.S.obj
 .ARM.attributes
                0x00000566       0x2c CMakeFiles/example1.dir/D_/pico/pico-sdk/src/rp2_common/pico_standard_link/binary_info.c.obj
 .ARM.attributes
                0x00000592       0x2c CMakeFiles/example1.dir/D_/pico/pico-sdk/src/rp2_common/pico_stdio/stdio.c.obj
 .ARM.attributes
                0x000005be       0x2c CMakeFiles/example1.dir/D_/pico/pico-sdk/src/rp2_common/pico_stdio_usb/reset_interface.c.obj
 .ARM.attributes
                0x000005ea       0x2c CMakeFiles/example1.dir/D_/pico/pico-sdk/src/rp2_common/pico_stdio_usb/stdio_usb.c.obj
 .ARM.attributes
                0x00000616       0x2c CMakeFiles/example1.dir/D_/pico/pico-sdk/src/rp2_common/pico_stdio_usb/stdio_usb_descriptors.c.obj
 .ARM.attributes
                0x00000642       0x2c CMakeFiles/example1.dir/D_/pico/pico-sdk/lib/tinyusb/src/portable/raspberrypi/rp2040/dcd_rp2040.c.obj
 .ARM.attributes
                0x0000066e       0x2c CMakeFiles/example1.dir/D_/pico/pico-sdk/lib/tinyusb/src/portable/raspberrypi/rp2040/rp2040_usb.c.obj
 .ARM.attributes
                0x0000069a       0x2c CMakeFiles/example1.dir/D_/pico/pico-sdk/lib/tinyusb/src/device/usbd.c.obj
 .ARM.attributes
                0x000006c6       0x2c CMakeFiles/example1.dir/D_/pico/pico-sdk/lib/tinyusb/src/device/usbd_control.c.obj
 .ARM.attributes
                0x000006f2       0x2c CMakeFiles/example1.dir/D_/pico/pico-sdk/lib/tinyusb/src/class/cdc/cdc_device.c.obj
 .ARM.attributes
                0x0000071e       0x2c CMakeFiles/example1.dir/D_/pico/pico-sdk/lib/tinyusb/src/tusb.c.obj
 .ARM.attributes
                0x0000074a       0x2c CMakeFiles/example1.dir/D_/pico/pico-sdk/lib/tinyusb/src/common/tusb_fifo.c.obj
 .ARM.attributes
                0x00000776       0x2c CMakeFiles/example1.dir/D_/pico/pico-sdk/src/rp2_common/pico_unique_id/unique_id.c.obj
 .ARM.attributes
                0x000007a2       0x2c CMakeFiles/example1.dir/D_/pico/pico-sdk/src/rp2_common/hardware_flash/flash.c.obj
 .ARM.attributes
                0x000007ce       0x2c CMakeFiles/example1.dir/D_/pico/pico-FreeRTOS-SMP/Source/portable/ThirdParty/GCC/RP2040/port.c.obj
 .ARM.attributes
                0x000007fa       0x2c CMakeFiles/example1.dir/D_/pico/pico-FreeRTOS-SMP/Source/event_groups.c.obj
 .ARM.attributes
                0x00000826       0x2c CMakeFiles/example1.dir/D_/pico/pico-FreeRTOS-SMP/Source/list.c.obj
 .ARM.attributes
                0x00000852       0x2c CMakeFiles/example1.dir/D_/pico/pico-FreeRTOS-SMP/Source/queue.c.obj
 .ARM.attributes
                0x0000087e       0x2c CMakeFiles/example1.dir/D_/pico/pico-FreeRTOS-SMP/Source/tasks.c.obj
 .ARM.attributes
                0x000008aa       0x2c CMakeFiles/example1.dir/D_/pico/pico-FreeRTOS-SMP/Source/timers.c.obj
 .ARM.attributes
                0x000008d6       0x2c CMakeFiles/example1.dir/D_/pico/pico-sdk/src/rp2_common/hardware_exception/exception.c.obj
 .ARM.attributes
                0x00000902       0x2c CMakeFiles/example1.dir/D_/pico/pico-FreeRTOS-SMP/Source/portable/MemMang/heap_4.c.obj
 .ARM.attributes
                0x0000092e       0x22 C:\Users\ployy\AppData\Local\Temp\ccQVgsae.o
 .ARM.attributes
                0x00000950       0x1e d:/pico/armcc/10 2021.10/bin/../lib/gcc/arm-none-eabi/10.3.1/thumb/v6-m/nofp\libgcc.a(_dvmd_tls.o)
 .ARM.attributes
                0x0000096e       0x2c d:/pico/armcc/10 2021.10/bin/../lib/gcc/arm-none-eabi/10.3.1/../../../../arm-none-eabi/lib/thumb/v6-m/nofp\libg.a(lib_a-strlen-stub.o)

.comment        0x00000000       0x49
 .comment       0x00000000       0x49 CMakeFiles/example1.dir/main.c.obj
                                 0x4a (size before relaxing)
 .comment       0x00000049       0x4a CMakeFiles/example1.dir/ex1_create_task.c.obj
 .comment       0x00000049       0x4a CMakeFiles/example1.dir/D_/pico/pico-sdk/src/rp2_common/hardware_claim/claim.c.obj
 .comment       0x00000049       0x4a CMakeFiles/example1.dir/D_/pico/pico-sdk/src/rp2_common/pico_platform/platform.c.obj
 .comment       0x00000049       0x4a CMakeFiles/example1.dir/D_/pico/pico-sdk/src/rp2_common/hardware_sync/sync.c.obj
 .comment       0x00000049       0x4a CMakeFiles/example1.dir/D_/pico/pico-sdk/src/rp2_common/hardware_irq/irq.c.obj
 .comment       0x00000049       0x4a CMakeFiles/example1.dir/D_/pico/pico-sdk/src/common/pico_sync/lock_core.c.obj
 .comment       0x00000049       0x4a CMakeFiles/example1.dir/D_/pico/pico-sdk/src/common/pico_time/time.c.obj
 .comment       0x00000049       0x4a CMakeFiles/example1.dir/D_/pico/pico-sdk/src/rp2_common/hardware_timer/timer.c.obj
 .comment       0x00000049       0x4a CMakeFiles/example1.dir/D_/pico/pico-sdk/src/common/pico_util/pheap.c.obj
 .comment       0x00000049       0x4a CMakeFiles/example1.dir/D_/pico/pico-sdk/src/common/pico_sync/mutex.c.obj
 .comment       0x00000049       0x4a CMakeFiles/example1.dir/D_/pico/pico-sdk/src/common/pico_sync/critical_section.c.obj
 .comment       0x00000049       0x4a CMakeFiles/example1.dir/D_/pico/pico-sdk/src/rp2_common/pico_runtime/runtime.c.obj
 .comment       0x00000049       0x4a CMakeFiles/example1.dir/D_/pico/pico-sdk/src/rp2_common/hardware_clocks/clocks.c.obj
 .comment       0x00000049       0x4a CMakeFiles/example1.dir/D_/pico/pico-sdk/src/rp2_common/hardware_pll/pll.c.obj
 .comment       0x00000049       0x4a CMakeFiles/example1.dir/D_/pico/pico-sdk/src/rp2_common/hardware_watchdog/watchdog.c.obj
 .comment       0x00000049       0x4a CMakeFiles/example1.dir/D_/pico/pico-sdk/src/rp2_common/hardware_xosc/xosc.c.obj
 .comment       0x00000049       0x4a CMakeFiles/example1.dir/D_/pico/pico-sdk/src/rp2_common/pico_printf/printf.c.obj
 .comment       0x00000049       0x4a CMakeFiles/example1.dir/D_/pico/pico-sdk/src/rp2_common/pico_bootrom/bootrom.c.obj
 .comment       0x00000049       0x4a CMakeFiles/example1.dir/D_/pico/pico-sdk/src/rp2_common/pico_double/double_init_rom.c.obj
 .comment       0x00000049       0x4a CMakeFiles/example1.dir/D_/pico/pico-sdk/src/rp2_common/pico_float/float_init_rom.c.obj
 .comment       0x00000049       0x4a CMakeFiles/example1.dir/D_/pico/pico-sdk/src/rp2_common/pico_malloc/pico_malloc.c.obj
 .comment       0x00000049       0x4a CMakeFiles/example1.dir/D_/pico/pico-sdk/src/rp2_common/pico_standard_link/binary_info.c.obj
 .comment       0x00000049       0x4a CMakeFiles/example1.dir/D_/pico/pico-sdk/src/rp2_common/pico_stdio/stdio.c.obj
 .comment       0x00000049       0x4a CMakeFiles/example1.dir/D_/pico/pico-sdk/src/rp2_common/pico_stdio_usb/reset_interface.c.obj
 .comment       0x00000049       0x4a CMakeFiles/example1.dir/D_/pico/pico-sdk/src/rp2_common/pico_stdio_usb/stdio_usb.c.obj
 .comment       0x00000049       0x4a CMakeFiles/example1.dir/D_/pico/pico-sdk/src/rp2_common/pico_stdio_usb/stdio_usb_descriptors.c.obj
 .comment       0x00000049       0x4a CMakeFiles/example1.dir/D_/pico/pico-sdk/lib/tinyusb/src/portable/raspberrypi/rp2040/dcd_rp2040.c.obj
 .comment       0x00000049       0x4a CMakeFiles/example1.dir/D_/pico/pico-sdk/lib/tinyusb/src/portable/raspberrypi/rp2040/rp2040_usb.c.obj
 .comment       0x00000049       0x4a CMakeFiles/example1.dir/D_/pico/pico-sdk/lib/tinyusb/src/device/usbd.c.obj
 .comment       0x00000049       0x4a CMakeFiles/example1.dir/D_/pico/pico-sdk/lib/tinyusb/src/device/usbd_control.c.obj
 .comment       0x00000049       0x4a CMakeFiles/example1.dir/D_/pico/pico-sdk/lib/tinyusb/src/class/cdc/cdc_device.c.obj
 .comment       0x00000049       0x4a CMakeFiles/example1.dir/D_/pico/pico-sdk/lib/tinyusb/src/tusb.c.obj
 .comment       0x00000049       0x4a CMakeFiles/example1.dir/D_/pico/pico-sdk/lib/tinyusb/src/common/tusb_fifo.c.obj
 .comment       0x00000049       0x4a CMakeFiles/example1.dir/D_/pico/pico-sdk/src/rp2_common/pico_unique_id/unique_id.c.obj
 .comment       0x00000049       0x4a CMakeFiles/example1.dir/D_/pico/pico-sdk/src/rp2_common/hardware_flash/flash.c.obj
 .comment       0x00000049       0x4a CMakeFiles/example1.dir/D_/pico/pico-FreeRTOS-SMP/Source/portable/ThirdParty/GCC/RP2040/port.c.obj
 .comment       0x00000049       0x4a CMakeFiles/example1.dir/D_/pico/pico-FreeRTOS-SMP/Source/event_groups.c.obj
 .comment       0x00000049       0x4a CMakeFiles/example1.dir/D_/pico/pico-FreeRTOS-SMP/Source/list.c.obj
 .comment       0x00000049       0x4a CMakeFiles/example1.dir/D_/pico/pico-FreeRTOS-SMP/Source/queue.c.obj
 .comment       0x00000049       0x4a CMakeFiles/example1.dir/D_/pico/pico-FreeRTOS-SMP/Source/tasks.c.obj
 .comment       0x00000049       0x4a CMakeFiles/example1.dir/D_/pico/pico-FreeRTOS-SMP/Source/timers.c.obj
 .comment       0x00000049       0x4a CMakeFiles/example1.dir/D_/pico/pico-sdk/src/rp2_common/hardware_exception/exception.c.obj
 .comment       0x00000049       0x4a CMakeFiles/example1.dir/D_/pico/pico-FreeRTOS-SMP/Source/portable/MemMang/heap_4.c.obj

.debug_info     0x00000000    0x2e4e9
 .debug_info    0x00000000      0x286 CMakeFiles/example1.dir/main.c.obj
 .debug_info    0x00000286      0x275 CMakeFiles/example1.dir/ex1_create_task.c.obj
 .debug_info    0x000004fb      0x6bb CMakeFiles/example1.dir/D_/pico/pico-sdk/src/rp2_common/hardware_claim/claim.c.obj
 .debug_info    0x00000bb6      0x1e3 CMakeFiles/example1.dir/D_/pico/pico-sdk/src/rp2_common/pico_platform/platform.c.obj
 .debug_info    0x00000d99      0x58e CMakeFiles/example1.dir/D_/pico/pico-sdk/src/rp2_common/hardware_sync/sync.c.obj
 .debug_info    0x00001327     0x1c49 CMakeFiles/example1.dir/D_/pico/pico-sdk/src/rp2_common/hardware_irq/irq.c.obj
 .debug_info    0x00002f70      0x1a4 CMakeFiles/example1.dir/D_/pico/pico-sdk/src/common/pico_sync/lock_core.c.obj
 .debug_info    0x00003114     0x39f6 CMakeFiles/example1.dir/D_/pico/pico-sdk/src/common/pico_time/time.c.obj
 .debug_info    0x00006b0a     0x1134 CMakeFiles/example1.dir/D_/pico/pico-sdk/src/rp2_common/hardware_timer/timer.c.obj
 .debug_info    0x00007c3e     0x120c CMakeFiles/example1.dir/D_/pico/pico-sdk/src/common/pico_util/pheap.c.obj
 .debug_info    0x00008e4a     0x1c21 CMakeFiles/example1.dir/D_/pico/pico-sdk/src/common/pico_sync/mutex.c.obj
 .debug_info    0x0000aa6b      0x2d1 CMakeFiles/example1.dir/D_/pico/pico-sdk/src/common/pico_sync/critical_section.c.obj
 .debug_info    0x0000ad3c      0xa6f CMakeFiles/example1.dir/D_/pico/pico-sdk/src/rp2_common/pico_runtime/runtime.c.obj
 .debug_info    0x0000b7ab      0xf63 CMakeFiles/example1.dir/D_/pico/pico-sdk/src/rp2_common/hardware_clocks/clocks.c.obj
 .debug_info    0x0000c70e      0x54a CMakeFiles/example1.dir/D_/pico/pico-sdk/src/rp2_common/hardware_pll/pll.c.obj
 .debug_info    0x0000cc58      0x4ee CMakeFiles/example1.dir/D_/pico/pico-sdk/src/rp2_common/hardware_watchdog/watchdog.c.obj
 .debug_info    0x0000d146      0x1d8 CMakeFiles/example1.dir/D_/pico/pico-sdk/src/rp2_common/hardware_xosc/xosc.c.obj
 .debug_info    0x0000d31e     0x1a5f CMakeFiles/example1.dir/D_/pico/pico-sdk/src/rp2_common/pico_printf/printf.c.obj
 .debug_info    0x0000ed7d       0x22 CMakeFiles/example1.dir/D_/pico/pico-sdk/src/rp2_common/pico_bit_ops/bit_ops_aeabi.S.obj
 .debug_info    0x0000ed9f      0x27c CMakeFiles/example1.dir/D_/pico/pico-sdk/src/rp2_common/pico_bootrom/bootrom.c.obj
 .debug_info    0x0000f01b       0x22 CMakeFiles/example1.dir/D_/pico/pico-sdk/src/rp2_common/pico_divider/divider.S.obj
 .debug_info    0x0000f03d       0x22 CMakeFiles/example1.dir/D_/pico/pico-sdk/src/rp2_common/pico_double/double_aeabi.S.obj
 .debug_info    0x0000f05f      0x2d1 CMakeFiles/example1.dir/D_/pico/pico-sdk/src/rp2_common/pico_double/double_init_rom.c.obj
 .debug_info    0x0000f330       0x22 CMakeFiles/example1.dir/D_/pico/pico-sdk/src/rp2_common/pico_double/double_v1_rom_shim.S.obj
 .debug_info    0x0000f352       0x26 CMakeFiles/example1.dir/D_/pico/pico-sdk/src/rp2_common/pico_int64_ops/pico_int64_ops_aeabi.S.obj
 .debug_info    0x0000f378       0x22 CMakeFiles/example1.dir/D_/pico/pico-sdk/src/rp2_common/pico_float/float_aeabi.S.obj
 .debug_info    0x0000f39a      0x2eb CMakeFiles/example1.dir/D_/pico/pico-sdk/src/rp2_common/pico_float/float_init_rom.c.obj
 .debug_info    0x0000f685       0x22 CMakeFiles/example1.dir/D_/pico/pico-sdk/src/rp2_common/pico_float/float_v1_rom_shim.S.obj
 .debug_info    0x0000f6a7      0x48e CMakeFiles/example1.dir/D_/pico/pico-sdk/src/rp2_common/pico_malloc/pico_malloc.c.obj
 .debug_info    0x0000fb35       0x22 CMakeFiles/example1.dir/D_/pico/pico-sdk/src/rp2_common/pico_mem_ops/mem_ops_aeabi.S.obj
 .debug_info    0x0000fb57       0x22 CMakeFiles/example1.dir/D_/pico/pico-sdk/src/rp2_common/pico_standard_link/crt0.S.obj
 .debug_info    0x0000fb79      0x2f6 CMakeFiles/example1.dir/D_/pico/pico-sdk/src/rp2_common/pico_standard_link/binary_info.c.obj
 .debug_info    0x0000fe6f     0x12bc CMakeFiles/example1.dir/D_/pico/pico-sdk/src/rp2_common/pico_stdio/stdio.c.obj
 .debug_info    0x0001112b      0x7ce CMakeFiles/example1.dir/D_/pico/pico-sdk/src/rp2_common/pico_stdio_usb/reset_interface.c.obj
 .debug_info    0x000118f9      0xfe6 CMakeFiles/example1.dir/D_/pico/pico-sdk/src/rp2_common/pico_stdio_usb/stdio_usb.c.obj
 .debug_info    0x000128df      0x653 CMakeFiles/example1.dir/D_/pico/pico-sdk/src/rp2_common/pico_stdio_usb/stdio_usb_descriptors.c.obj
 .debug_info    0x00012f32     0x187a CMakeFiles/example1.dir/D_/pico/pico-sdk/lib/tinyusb/src/portable/raspberrypi/rp2040/dcd_rp2040.c.obj
 .debug_info    0x000147ac      0xde5 CMakeFiles/example1.dir/D_/pico/pico-sdk/lib/tinyusb/src/portable/raspberrypi/rp2040/rp2040_usb.c.obj
 .debug_info    0x00015591     0x439e CMakeFiles/example1.dir/D_/pico/pico-sdk/lib/tinyusb/src/device/usbd.c.obj
 .debug_info    0x0001992f      0xa40 CMakeFiles/example1.dir/D_/pico/pico-sdk/lib/tinyusb/src/device/usbd_control.c.obj
 .debug_info    0x0001a36f     0x1b6b CMakeFiles/example1.dir/D_/pico/pico-sdk/lib/tinyusb/src/class/cdc/cdc_device.c.obj
 .debug_info    0x0001beda      0xcbe CMakeFiles/example1.dir/D_/pico/pico-sdk/lib/tinyusb/src/tusb.c.obj
 .debug_info    0x0001cb98     0x297b CMakeFiles/example1.dir/D_/pico/pico-sdk/lib/tinyusb/src/common/tusb_fifo.c.obj
 .debug_info    0x0001f513      0x257 CMakeFiles/example1.dir/D_/pico/pico-sdk/src/rp2_common/pico_unique_id/unique_id.c.obj
 .debug_info    0x0001f76a      0xf22 CMakeFiles/example1.dir/D_/pico/pico-sdk/src/rp2_common/hardware_flash/flash.c.obj
 .debug_info    0x0002068c     0x1d44 CMakeFiles/example1.dir/D_/pico/pico-FreeRTOS-SMP/Source/portable/ThirdParty/GCC/RP2040/port.c.obj
 .debug_info    0x000223d0      0xf19 CMakeFiles/example1.dir/D_/pico/pico-FreeRTOS-SMP/Source/event_groups.c.obj
 .debug_info    0x000232e9      0x2e0 CMakeFiles/example1.dir/D_/pico/pico-FreeRTOS-SMP/Source/list.c.obj
 .debug_info    0x000235c9     0x2eb7 CMakeFiles/example1.dir/D_/pico/pico-FreeRTOS-SMP/Source/queue.c.obj
 .debug_info    0x00026480     0x5ace CMakeFiles/example1.dir/D_/pico/pico-FreeRTOS-SMP/Source/tasks.c.obj
 .debug_info    0x0002bf4e     0x19bc CMakeFiles/example1.dir/D_/pico/pico-FreeRTOS-SMP/Source/timers.c.obj
 .debug_info    0x0002d90a      0x54a CMakeFiles/example1.dir/D_/pico/pico-sdk/src/rp2_common/hardware_exception/exception.c.obj
 .debug_info    0x0002de54      0x695 CMakeFiles/example1.dir/D_/pico/pico-FreeRTOS-SMP/Source/portable/MemMang/heap_4.c.obj

.debug_abbrev   0x00000000     0x7610
 .debug_abbrev  0x00000000      0x140 CMakeFiles/example1.dir/main.c.obj
 .debug_abbrev  0x00000140      0x104 CMakeFiles/example1.dir/ex1_create_task.c.obj
 .debug_abbrev  0x00000244      0x2e9 CMakeFiles/example1.dir/D_/pico/pico-sdk/src/rp2_common/hardware_claim/claim.c.obj
 .debug_abbrev  0x0000052d       0xeb CMakeFiles/example1.dir/D_/pico/pico-sdk/src/rp2_common/pico_platform/platform.c.obj
 .debug_abbrev  0x00000618      0x21b CMakeFiles/example1.dir/D_/pico/pico-sdk/src/rp2_common/hardware_sync/sync.c.obj
 .debug_abbrev  0x00000833      0x4fc CMakeFiles/example1.dir/D_/pico/pico-sdk/src/rp2_common/hardware_irq/irq.c.obj
 .debug_abbrev  0x00000d2f      0x116 CMakeFiles/example1.dir/D_/pico/pico-sdk/src/common/pico_sync/lock_core.c.obj
 .debug_abbrev  0x00000e45      0x54d CMakeFiles/example1.dir/D_/pico/pico-sdk/src/common/pico_time/time.c.obj
 .debug_abbrev  0x00001392      0x3a2 CMakeFiles/example1.dir/D_/pico/pico-sdk/src/rp2_common/hardware_timer/timer.c.obj
 .debug_abbrev  0x00001734      0x297 CMakeFiles/example1.dir/D_/pico/pico-sdk/src/common/pico_util/pheap.c.obj
 .debug_abbrev  0x000019cb      0x351 CMakeFiles/example1.dir/D_/pico/pico-sdk/src/common/pico_sync/mutex.c.obj
 .debug_abbrev  0x00001d1c      0x1aa CMakeFiles/example1.dir/D_/pico/pico-sdk/src/common/pico_sync/critical_section.c.obj
 .debug_abbrev  0x00001ec6      0x3aa CMakeFiles/example1.dir/D_/pico/pico-sdk/src/rp2_common/pico_runtime/runtime.c.obj
 .debug_abbrev  0x00002270      0x3a5 CMakeFiles/example1.dir/D_/pico/pico-sdk/src/rp2_common/hardware_clocks/clocks.c.obj
 .debug_abbrev  0x00002615      0x1ea CMakeFiles/example1.dir/D_/pico/pico-sdk/src/rp2_common/hardware_pll/pll.c.obj
 .debug_abbrev  0x000027ff      0x1a8 CMakeFiles/example1.dir/D_/pico/pico-sdk/src/rp2_common/hardware_watchdog/watchdog.c.obj
 .debug_abbrev  0x000029a7      0x109 CMakeFiles/example1.dir/D_/pico/pico-sdk/src/rp2_common/hardware_xosc/xosc.c.obj
 .debug_abbrev  0x00002ab0      0x384 CMakeFiles/example1.dir/D_/pico/pico-sdk/src/rp2_common/pico_printf/printf.c.obj
 .debug_abbrev  0x00002e34       0x12 CMakeFiles/example1.dir/D_/pico/pico-sdk/src/rp2_common/pico_bit_ops/bit_ops_aeabi.S.obj
 .debug_abbrev  0x00002e46      0x13b CMakeFiles/example1.dir/D_/pico/pico-sdk/src/rp2_common/pico_bootrom/bootrom.c.obj
 .debug_abbrev  0x00002f81       0x12 CMakeFiles/example1.dir/D_/pico/pico-sdk/src/rp2_common/pico_divider/divider.S.obj
 .debug_abbrev  0x00002f93       0x12 CMakeFiles/example1.dir/D_/pico/pico-sdk/src/rp2_common/pico_double/double_aeabi.S.obj
 .debug_abbrev  0x00002fa5      0x179 CMakeFiles/example1.dir/D_/pico/pico-sdk/src/rp2_common/pico_double/double_init_rom.c.obj
 .debug_abbrev  0x0000311e       0x12 CMakeFiles/example1.dir/D_/pico/pico-sdk/src/rp2_common/pico_double/double_v1_rom_shim.S.obj
 .debug_abbrev  0x00003130       0x14 CMakeFiles/example1.dir/D_/pico/pico-sdk/src/rp2_common/pico_int64_ops/pico_int64_ops_aeabi.S.obj
 .debug_abbrev  0x00003144       0x12 CMakeFiles/example1.dir/D_/pico/pico-sdk/src/rp2_common/pico_float/float_aeabi.S.obj
 .debug_abbrev  0x00003156      0x18c CMakeFiles/example1.dir/D_/pico/pico-sdk/src/rp2_common/pico_float/float_init_rom.c.obj
 .debug_abbrev  0x000032e2       0x12 CMakeFiles/example1.dir/D_/pico/pico-sdk/src/rp2_common/pico_float/float_v1_rom_shim.S.obj
 .debug_abbrev  0x000032f4      0x1cf CMakeFiles/example1.dir/D_/pico/pico-sdk/src/rp2_common/pico_malloc/pico_malloc.c.obj
 .debug_abbrev  0x000034c3       0x12 CMakeFiles/example1.dir/D_/pico/pico-sdk/src/rp2_common/pico_mem_ops/mem_ops_aeabi.S.obj
 .debug_abbrev  0x000034d5       0x12 CMakeFiles/example1.dir/D_/pico/pico-sdk/src/rp2_common/pico_standard_link/crt0.S.obj
 .debug_abbrev  0x000034e7       0xad CMakeFiles/example1.dir/D_/pico/pico-sdk/src/rp2_common/pico_standard_link/binary_info.c.obj
 .debug_abbrev  0x00003594      0x480 CMakeFiles/example1.dir/D_/pico/pico-sdk/src/rp2_common/pico_stdio/stdio.c.obj
 .debug_abbrev  0x00003a14      0x2b2 CMakeFiles/example1.dir/D_/pico/pico-sdk/src/rp2_common/pico_stdio_usb/reset_interface.c.obj
 .debug_abbrev  0x00003cc6      0x40d CMakeFiles/example1.dir/D_/pico/pico-sdk/src/rp2_common/pico_stdio_usb/stdio_usb.c.obj
 .debug_abbrev  0x000040d3      0x14e CMakeFiles/example1.dir/D_/pico/pico-sdk/src/rp2_common/pico_stdio_usb/stdio_usb_descriptors.c.obj
 .debug_abbrev  0x00004221      0x3d1 CMakeFiles/example1.dir/D_/pico/pico-sdk/lib/tinyusb/src/portable/raspberrypi/rp2040/dcd_rp2040.c.obj
 .debug_abbrev  0x000045f2      0x36e CMakeFiles/example1.dir/D_/pico/pico-sdk/lib/tinyusb/src/portable/raspberrypi/rp2040/rp2040_usb.c.obj
 .debug_abbrev  0x00004960      0x569 CMakeFiles/example1.dir/D_/pico/pico-sdk/lib/tinyusb/src/device/usbd.c.obj
 .debug_abbrev  0x00004ec9      0x316 CMakeFiles/example1.dir/D_/pico/pico-sdk/lib/tinyusb/src/device/usbd_control.c.obj
 .debug_abbrev  0x000051df      0x457 CMakeFiles/example1.dir/D_/pico/pico-sdk/lib/tinyusb/src/class/cdc/cdc_device.c.obj
 .debug_abbrev  0x00005636      0x2b4 CMakeFiles/example1.dir/D_/pico/pico-sdk/lib/tinyusb/src/tusb.c.obj
 .debug_abbrev  0x000058ea      0x3b4 CMakeFiles/example1.dir/D_/pico/pico-sdk/lib/tinyusb/src/common/tusb_fifo.c.obj
 .debug_abbrev  0x00005c9e      0x163 CMakeFiles/example1.dir/D_/pico/pico-sdk/src/rp2_common/pico_unique_id/unique_id.c.obj
 .debug_abbrev  0x00005e01      0x2b6 CMakeFiles/example1.dir/D_/pico/pico-sdk/src/rp2_common/hardware_flash/flash.c.obj
 .debug_abbrev  0x000060b7      0x53f CMakeFiles/example1.dir/D_/pico/pico-FreeRTOS-SMP/Source/portable/ThirdParty/GCC/RP2040/port.c.obj
 .debug_abbrev  0x000065f6      0x1d6 CMakeFiles/example1.dir/D_/pico/pico-FreeRTOS-SMP/Source/event_groups.c.obj
 .debug_abbrev  0x000067cc      0x106 CMakeFiles/example1.dir/D_/pico/pico-FreeRTOS-SMP/Source/list.c.obj
 .debug_abbrev  0x000068d2      0x255 CMakeFiles/example1.dir/D_/pico/pico-FreeRTOS-SMP/Source/queue.c.obj
 .debug_abbrev  0x00006b27      0x3aa CMakeFiles/example1.dir/D_/pico/pico-FreeRTOS-SMP/Source/tasks.c.obj
 .debug_abbrev  0x00006ed1      0x262 CMakeFiles/example1.dir/D_/pico/pico-FreeRTOS-SMP/Source/timers.c.obj
 .debug_abbrev  0x00007133      0x2ac CMakeFiles/example1.dir/D_/pico/pico-sdk/src/rp2_common/hardware_exception/exception.c.obj
 .debug_abbrev  0x000073df      0x231 CMakeFiles/example1.dir/D_/pico/pico-FreeRTOS-SMP/Source/portable/MemMang/heap_4.c.obj

.debug_loc      0x00000000    0x20a5f
 .debug_loc     0x00000000       0x4a CMakeFiles/example1.dir/main.c.obj
 .debug_loc     0x0000004a       0x4a CMakeFiles/example1.dir/ex1_create_task.c.obj
 .debug_loc     0x00000094      0x45f CMakeFiles/example1.dir/D_/pico/pico-sdk/src/rp2_common/hardware_claim/claim.c.obj
 .debug_loc     0x000004f3       0xe9 CMakeFiles/example1.dir/D_/pico/pico-sdk/src/rp2_common/pico_platform/platform.c.obj
 .debug_loc     0x000005dc      0x233 CMakeFiles/example1.dir/D_/pico/pico-sdk/src/rp2_common/hardware_sync/sync.c.obj
 .debug_loc     0x0000080f     0x1365 CMakeFiles/example1.dir/D_/pico/pico-sdk/src/rp2_common/hardware_irq/irq.c.obj
 .debug_loc     0x00001b74       0x60 CMakeFiles/example1.dir/D_/pico/pico-sdk/src/common/pico_sync/lock_core.c.obj
 .debug_loc     0x00001bd4     0x2d82 CMakeFiles/example1.dir/D_/pico/pico-sdk/src/common/pico_time/time.c.obj
 .debug_loc     0x00004956      0x952 CMakeFiles/example1.dir/D_/pico/pico-sdk/src/rp2_common/hardware_timer/timer.c.obj
 .debug_loc     0x000052a8     0x1439 CMakeFiles/example1.dir/D_/pico/pico-sdk/src/common/pico_util/pheap.c.obj
 .debug_loc     0x000066e1     0x13a2 CMakeFiles/example1.dir/D_/pico/pico-sdk/src/common/pico_sync/mutex.c.obj
 .debug_loc     0x00007a83       0xf5 CMakeFiles/example1.dir/D_/pico/pico-sdk/src/common/pico_sync/critical_section.c.obj
 .debug_loc     0x00007b78      0x3ff CMakeFiles/example1.dir/D_/pico/pico-sdk/src/rp2_common/pico_runtime/runtime.c.obj
 .debug_loc     0x00007f77      0x7eb CMakeFiles/example1.dir/D_/pico/pico-sdk/src/rp2_common/hardware_clocks/clocks.c.obj
 .debug_loc     0x00008762      0x32f CMakeFiles/example1.dir/D_/pico/pico-sdk/src/rp2_common/hardware_pll/pll.c.obj
 .debug_loc     0x00008a91      0x2ec CMakeFiles/example1.dir/D_/pico/pico-sdk/src/rp2_common/hardware_watchdog/watchdog.c.obj
 .debug_loc     0x00008d7d       0x71 CMakeFiles/example1.dir/D_/pico/pico-sdk/src/rp2_common/hardware_xosc/xosc.c.obj
 .debug_loc     0x00008dee     0x2095 CMakeFiles/example1.dir/D_/pico/pico-sdk/src/rp2_common/pico_printf/printf.c.obj
 .debug_loc     0x0000ae83      0x1a1 CMakeFiles/example1.dir/D_/pico/pico-sdk/src/rp2_common/pico_bootrom/bootrom.c.obj
 .debug_loc     0x0000b024       0x59 CMakeFiles/example1.dir/D_/pico/pico-sdk/src/rp2_common/pico_double/double_init_rom.c.obj
 .debug_loc     0x0000b07d       0x73 CMakeFiles/example1.dir/D_/pico/pico-sdk/src/rp2_common/pico_float/float_init_rom.c.obj
 .debug_loc     0x0000b0f0      0x2dc CMakeFiles/example1.dir/D_/pico/pico-sdk/src/rp2_common/pico_malloc/pico_malloc.c.obj
 .debug_loc     0x0000b3cc      0xb88 CMakeFiles/example1.dir/D_/pico/pico-sdk/src/rp2_common/pico_stdio/stdio.c.obj
 .debug_loc     0x0000bf54      0x398 CMakeFiles/example1.dir/D_/pico/pico-sdk/src/rp2_common/pico_stdio_usb/reset_interface.c.obj
 .debug_loc     0x0000c2ec      0x5a2 CMakeFiles/example1.dir/D_/pico/pico-sdk/src/rp2_common/pico_stdio_usb/stdio_usb.c.obj
 .debug_loc     0x0000c88e      0x109 CMakeFiles/example1.dir/D_/pico/pico-sdk/src/rp2_common/pico_stdio_usb/stdio_usb_descriptors.c.obj
 .debug_loc     0x0000c997      0xa8c CMakeFiles/example1.dir/D_/pico/pico-sdk/lib/tinyusb/src/portable/raspberrypi/rp2040/dcd_rp2040.c.obj
 .debug_loc     0x0000d423      0x694 CMakeFiles/example1.dir/D_/pico/pico-sdk/lib/tinyusb/src/portable/raspberrypi/rp2040/rp2040_usb.c.obj
 .debug_loc     0x0000dab7     0x279c CMakeFiles/example1.dir/D_/pico/pico-sdk/lib/tinyusb/src/device/usbd.c.obj
 .debug_loc     0x00010253      0x5b9 CMakeFiles/example1.dir/D_/pico/pico-sdk/lib/tinyusb/src/device/usbd_control.c.obj
 .debug_loc     0x0001080c     0x1124 CMakeFiles/example1.dir/D_/pico/pico-sdk/lib/tinyusb/src/class/cdc/cdc_device.c.obj
 .debug_loc     0x00011930      0x879 CMakeFiles/example1.dir/D_/pico/pico-sdk/lib/tinyusb/src/tusb.c.obj
 .debug_loc     0x000121a9     0x28ee CMakeFiles/example1.dir/D_/pico/pico-sdk/lib/tinyusb/src/common/tusb_fifo.c.obj
 .debug_loc     0x00014a97       0xff CMakeFiles/example1.dir/D_/pico/pico-sdk/src/rp2_common/pico_unique_id/unique_id.c.obj
 .debug_loc     0x00014b96      0x909 CMakeFiles/example1.dir/D_/pico/pico-sdk/src/rp2_common/hardware_flash/flash.c.obj
 .debug_loc     0x0001549f      0xb52 CMakeFiles/example1.dir/D_/pico/pico-FreeRTOS-SMP/Source/portable/ThirdParty/GCC/RP2040/port.c.obj
 .debug_loc     0x00015ff1     0x1048 CMakeFiles/example1.dir/D_/pico/pico-FreeRTOS-SMP/Source/event_groups.c.obj
 .debug_loc     0x00017039       0xad CMakeFiles/example1.dir/D_/pico/pico-FreeRTOS-SMP/Source/list.c.obj
 .debug_loc     0x000170e6     0x2ff9 CMakeFiles/example1.dir/D_/pico/pico-FreeRTOS-SMP/Source/queue.c.obj
 .debug_loc     0x0001a0df     0x4edc CMakeFiles/example1.dir/D_/pico/pico-FreeRTOS-SMP/Source/tasks.c.obj
 .debug_loc     0x0001efbb     0x13e2 CMakeFiles/example1.dir/D_/pico/pico-FreeRTOS-SMP/Source/timers.c.obj
 .debug_loc     0x0002039d      0x223 CMakeFiles/example1.dir/D_/pico/pico-sdk/src/rp2_common/hardware_exception/exception.c.obj
 .debug_loc     0x000205c0      0x49f CMakeFiles/example1.dir/D_/pico/pico-FreeRTOS-SMP/Source/portable/MemMang/heap_4.c.obj

.debug_aranges  0x00000000     0x1a08
 .debug_aranges
                0x00000000       0x50 CMakeFiles/example1.dir/main.c.obj
 .debug_aranges
                0x00000050       0x30 CMakeFiles/example1.dir/ex1_create_task.c.obj
 .debug_aranges
                0x00000080       0x48 CMakeFiles/example1.dir/D_/pico/pico-sdk/src/rp2_common/hardware_claim/claim.c.obj
 .debug_aranges
                0x000000c8       0x28 CMakeFiles/example1.dir/D_/pico/pico-sdk/src/rp2_common/pico_platform/platform.c.obj
 .debug_aranges
                0x000000f0       0x58 CMakeFiles/example1.dir/D_/pico/pico-sdk/src/rp2_common/hardware_sync/sync.c.obj
 .debug_aranges
                0x00000148       0xc8 CMakeFiles/example1.dir/D_/pico/pico-sdk/src/rp2_common/hardware_irq/irq.c.obj
 .debug_aranges
                0x00000210       0x20 CMakeFiles/example1.dir/D_/pico/pico-sdk/src/common/pico_sync/lock_core.c.obj
 .debug_aranges
                0x00000230       0xd0 CMakeFiles/example1.dir/D_/pico/pico-sdk/src/common/pico_time/time.c.obj
 .debug_aranges
                0x00000300       0x78 CMakeFiles/example1.dir/D_/pico/pico-sdk/src/rp2_common/hardware_timer/timer.c.obj
 .debug_aranges
                0x00000378       0x78 CMakeFiles/example1.dir/D_/pico/pico-sdk/src/common/pico_util/pheap.c.obj
 .debug_aranges
                0x000003f0       0x88 CMakeFiles/example1.dir/D_/pico/pico-sdk/src/common/pico_sync/mutex.c.obj
 .debug_aranges
                0x00000478       0x30 CMakeFiles/example1.dir/D_/pico/pico-sdk/src/common/pico_sync/critical_section.c.obj
 .debug_aranges
                0x000004a8       0x60 CMakeFiles/example1.dir/D_/pico/pico-sdk/src/rp2_common/pico_runtime/runtime.c.obj
 .debug_aranges
                0x00000508       0x70 CMakeFiles/example1.dir/D_/pico/pico-sdk/src/rp2_common/hardware_clocks/clocks.c.obj
 .debug_aranges
                0x00000578       0x28 CMakeFiles/example1.dir/D_/pico/pico-sdk/src/rp2_common/hardware_pll/pll.c.obj
 .debug_aranges
                0x000005a0       0x58 CMakeFiles/example1.dir/D_/pico/pico-sdk/src/rp2_common/hardware_watchdog/watchdog.c.obj
 .debug_aranges
                0x000005f8       0x30 CMakeFiles/example1.dir/D_/pico/pico-sdk/src/rp2_common/hardware_xosc/xosc.c.obj
 .debug_aranges
                0x00000628       0x90 CMakeFiles/example1.dir/D_/pico/pico-sdk/src/rp2_common/pico_printf/printf.c.obj
 .debug_aranges
                0x000006b8       0x68 CMakeFiles/example1.dir/D_/pico/pico-sdk/src/rp2_common/pico_bit_ops/bit_ops_aeabi.S.obj
 .debug_aranges
                0x00000720       0x30 CMakeFiles/example1.dir/D_/pico/pico-sdk/src/rp2_common/pico_bootrom/bootrom.c.obj
 .debug_aranges
                0x00000750       0x40 CMakeFiles/example1.dir/D_/pico/pico-sdk/src/rp2_common/pico_divider/divider.S.obj
 .debug_aranges
                0x00000790      0x140 CMakeFiles/example1.dir/D_/pico/pico-sdk/src/rp2_common/pico_double/double_aeabi.S.obj
 .debug_aranges
                0x000008d0       0x20 CMakeFiles/example1.dir/D_/pico/pico-sdk/src/rp2_common/pico_double/double_init_rom.c.obj
 .debug_aranges
                0x000008f0       0xc8 CMakeFiles/example1.dir/D_/pico/pico-sdk/src/rp2_common/pico_double/double_v1_rom_shim.S.obj
 .debug_aranges
                0x000009b8       0x20 CMakeFiles/example1.dir/D_/pico/pico-sdk/src/rp2_common/pico_int64_ops/pico_int64_ops_aeabi.S.obj
 .debug_aranges
                0x000009d8      0x130 CMakeFiles/example1.dir/D_/pico/pico-sdk/src/rp2_common/pico_float/float_aeabi.S.obj
 .debug_aranges
                0x00000b08       0x20 CMakeFiles/example1.dir/D_/pico/pico-sdk/src/rp2_common/pico_float/float_init_rom.c.obj
 .debug_aranges
                0x00000b28       0x50 CMakeFiles/example1.dir/D_/pico/pico-sdk/src/rp2_common/pico_float/float_v1_rom_shim.S.obj
 .debug_aranges
                0x00000b78       0x38 CMakeFiles/example1.dir/D_/pico/pico-sdk/src/rp2_common/pico_malloc/pico_malloc.c.obj
 .debug_aranges
                0x00000bb0       0x38 CMakeFiles/example1.dir/D_/pico/pico-sdk/src/rp2_common/pico_mem_ops/mem_ops_aeabi.S.obj
 .debug_aranges
                0x00000be8       0x28 CMakeFiles/example1.dir/D_/pico/pico-sdk/src/rp2_common/pico_standard_link/crt0.S.obj
 .debug_aranges
                0x00000c10       0x18 CMakeFiles/example1.dir/D_/pico/pico-sdk/src/rp2_common/pico_standard_link/binary_info.c.obj
 .debug_aranges
                0x00000c28       0xd0 CMakeFiles/example1.dir/D_/pico/pico-sdk/src/rp2_common/pico_stdio/stdio.c.obj
 .debug_aranges
                0x00000cf8       0x58 CMakeFiles/example1.dir/D_/pico/pico-sdk/src/rp2_common/pico_stdio_usb/reset_interface.c.obj
 .debug_aranges
                0x00000d50       0x50 CMakeFiles/example1.dir/D_/pico/pico-sdk/src/rp2_common/pico_stdio_usb/stdio_usb.c.obj
 .debug_aranges
                0x00000da0       0x30 CMakeFiles/example1.dir/D_/pico/pico-sdk/src/rp2_common/pico_stdio_usb/stdio_usb_descriptors.c.obj
 .debug_aranges
                0x00000dd0       0xd0 CMakeFiles/example1.dir/D_/pico/pico-sdk/lib/tinyusb/src/portable/raspberrypi/rp2040/dcd_rp2040.c.obj
 .debug_aranges
                0x00000ea0       0x60 CMakeFiles/example1.dir/D_/pico/pico-sdk/lib/tinyusb/src/portable/raspberrypi/rp2040/rp2040_usb.c.obj
 .debug_aranges
                0x00000f00      0x128 CMakeFiles/example1.dir/D_/pico/pico-sdk/lib/tinyusb/src/device/usbd.c.obj
 .debug_aranges
                0x00001028       0x50 CMakeFiles/example1.dir/D_/pico/pico-sdk/lib/tinyusb/src/device/usbd_control.c.obj
 .debug_aranges
                0x00001078       0xa8 CMakeFiles/example1.dir/D_/pico/pico-sdk/lib/tinyusb/src/class/cdc/cdc_device.c.obj
 .debug_aranges
                0x00001120       0x50 CMakeFiles/example1.dir/D_/pico/pico-sdk/lib/tinyusb/src/tusb.c.obj
 .debug_aranges
                0x00001170      0x118 CMakeFiles/example1.dir/D_/pico/pico-sdk/lib/tinyusb/src/common/tusb_fifo.c.obj
 .debug_aranges
                0x00001288       0x30 CMakeFiles/example1.dir/D_/pico/pico-sdk/src/rp2_common/pico_unique_id/unique_id.c.obj
 .debug_aranges
                0x000012b8       0x50 CMakeFiles/example1.dir/D_/pico/pico-sdk/src/rp2_common/hardware_flash/flash.c.obj
 .debug_aranges
                0x00001308       0xc0 CMakeFiles/example1.dir/D_/pico/pico-FreeRTOS-SMP/Source/portable/ThirdParty/GCC/RP2040/port.c.obj
 .debug_aranges
                0x000013c8       0x88 CMakeFiles/example1.dir/D_/pico/pico-FreeRTOS-SMP/Source/event_groups.c.obj
 .debug_aranges
                0x00001450       0x40 CMakeFiles/example1.dir/D_/pico/pico-FreeRTOS-SMP/Source/list.c.obj
 .debug_aranges
                0x00001490      0x170 CMakeFiles/example1.dir/D_/pico/pico-FreeRTOS-SMP/Source/queue.c.obj
 .debug_aranges
                0x00001600      0x280 CMakeFiles/example1.dir/D_/pico/pico-FreeRTOS-SMP/Source/tasks.c.obj
 .debug_aranges
                0x00001880       0xf0 CMakeFiles/example1.dir/D_/pico/pico-FreeRTOS-SMP/Source/timers.c.obj
 .debug_aranges
                0x00001970       0x40 CMakeFiles/example1.dir/D_/pico/pico-sdk/src/rp2_common/hardware_exception/exception.c.obj
 .debug_aranges
                0x000019b0       0x58 CMakeFiles/example1.dir/D_/pico/pico-FreeRTOS-SMP/Source/portable/MemMang/heap_4.c.obj

.debug_ranges   0x00000000     0x4ba0
 .debug_ranges  0x00000000       0x40 CMakeFiles/example1.dir/main.c.obj
 .debug_ranges  0x00000040       0x20 CMakeFiles/example1.dir/ex1_create_task.c.obj
 .debug_ranges  0x00000060       0xd8 CMakeFiles/example1.dir/D_/pico/pico-sdk/src/rp2_common/hardware_claim/claim.c.obj
 .debug_ranges  0x00000138       0x18 CMakeFiles/example1.dir/D_/pico/pico-sdk/src/rp2_common/pico_platform/platform.c.obj
 .debug_ranges  0x00000150       0xf0 CMakeFiles/example1.dir/D_/pico/pico-sdk/src/rp2_common/hardware_sync/sync.c.obj
 .debug_ranges  0x00000240      0x400 CMakeFiles/example1.dir/D_/pico/pico-sdk/src/rp2_common/hardware_irq/irq.c.obj
 .debug_ranges  0x00000640       0x10 CMakeFiles/example1.dir/D_/pico/pico-sdk/src/common/pico_sync/lock_core.c.obj
 .debug_ranges  0x00000650      0xad8 CMakeFiles/example1.dir/D_/pico/pico-sdk/src/common/pico_time/time.c.obj
 .debug_ranges  0x00001128      0x320 CMakeFiles/example1.dir/D_/pico/pico-sdk/src/rp2_common/hardware_timer/timer.c.obj
 .debug_ranges  0x00001448      0x248 CMakeFiles/example1.dir/D_/pico/pico-sdk/src/common/pico_util/pheap.c.obj
 .debug_ranges  0x00001690      0x850 CMakeFiles/example1.dir/D_/pico/pico-sdk/src/common/pico_sync/mutex.c.obj
 .debug_ranges  0x00001ee0       0x38 CMakeFiles/example1.dir/D_/pico/pico-sdk/src/common/pico_sync/critical_section.c.obj
 .debug_ranges  0x00001f18       0x80 CMakeFiles/example1.dir/D_/pico/pico-sdk/src/rp2_common/pico_runtime/runtime.c.obj
 .debug_ranges  0x00001f98       0x60 CMakeFiles/example1.dir/D_/pico/pico-sdk/src/rp2_common/hardware_clocks/clocks.c.obj
 .debug_ranges  0x00001ff8       0x30 CMakeFiles/example1.dir/D_/pico/pico-sdk/src/rp2_common/hardware_pll/pll.c.obj
 .debug_ranges  0x00002028       0x48 CMakeFiles/example1.dir/D_/pico/pico-sdk/src/rp2_common/hardware_watchdog/watchdog.c.obj
 .debug_ranges  0x00002070       0x20 CMakeFiles/example1.dir/D_/pico/pico-sdk/src/rp2_common/hardware_xosc/xosc.c.obj
 .debug_ranges  0x00002090      0x108 CMakeFiles/example1.dir/D_/pico/pico-sdk/src/rp2_common/pico_printf/printf.c.obj
 .debug_ranges  0x00002198       0x60 CMakeFiles/example1.dir/D_/pico/pico-sdk/src/rp2_common/pico_bit_ops/bit_ops_aeabi.S.obj
 .debug_ranges  0x000021f8       0x38 CMakeFiles/example1.dir/D_/pico/pico-sdk/src/rp2_common/pico_bootrom/bootrom.c.obj
 .debug_ranges  0x00002230       0x38 CMakeFiles/example1.dir/D_/pico/pico-sdk/src/rp2_common/pico_divider/divider.S.obj
 .debug_ranges  0x00002268      0x138 CMakeFiles/example1.dir/D_/pico/pico-sdk/src/rp2_common/pico_double/double_aeabi.S.obj
 .debug_ranges  0x000023a0       0x30 CMakeFiles/example1.dir/D_/pico/pico-sdk/src/rp2_common/pico_double/double_init_rom.c.obj
 .debug_ranges  0x000023d0       0xc0 CMakeFiles/example1.dir/D_/pico/pico-sdk/src/rp2_common/pico_double/double_v1_rom_shim.S.obj
 .debug_ranges  0x00002490      0x128 CMakeFiles/example1.dir/D_/pico/pico-sdk/src/rp2_common/pico_float/float_aeabi.S.obj
 .debug_ranges  0x000025b8       0x28 CMakeFiles/example1.dir/D_/pico/pico-sdk/src/rp2_common/pico_float/float_init_rom.c.obj
 .debug_ranges  0x000025e0       0x48 CMakeFiles/example1.dir/D_/pico/pico-sdk/src/rp2_common/pico_float/float_v1_rom_shim.S.obj
 .debug_ranges  0x00002628       0x70 CMakeFiles/example1.dir/D_/pico/pico-sdk/src/rp2_common/pico_malloc/pico_malloc.c.obj
 .debug_ranges  0x00002698       0x30 CMakeFiles/example1.dir/D_/pico/pico-sdk/src/rp2_common/pico_mem_ops/mem_ops_aeabi.S.obj
 .debug_ranges  0x000026c8       0x20 CMakeFiles/example1.dir/D_/pico/pico-sdk/src/rp2_common/pico_standard_link/crt0.S.obj
 .debug_ranges  0x000026e8      0x1b0 CMakeFiles/example1.dir/D_/pico/pico-sdk/src/rp2_common/pico_stdio/stdio.c.obj
 .debug_ranges  0x00002898       0x48 CMakeFiles/example1.dir/D_/pico/pico-sdk/src/rp2_common/pico_stdio_usb/reset_interface.c.obj
 .debug_ranges  0x000028e0       0xe8 CMakeFiles/example1.dir/D_/pico/pico-sdk/src/rp2_common/pico_stdio_usb/stdio_usb.c.obj
 .debug_ranges  0x000029c8       0x20 CMakeFiles/example1.dir/D_/pico/pico-sdk/src/rp2_common/pico_stdio_usb/stdio_usb_descriptors.c.obj
 .debug_ranges  0x000029e8       0xf0 CMakeFiles/example1.dir/D_/pico/pico-sdk/lib/tinyusb/src/portable/raspberrypi/rp2040/dcd_rp2040.c.obj
 .debug_ranges  0x00002ad8       0x68 CMakeFiles/example1.dir/D_/pico/pico-sdk/lib/tinyusb/src/portable/raspberrypi/rp2040/rp2040_usb.c.obj
 .debug_ranges  0x00002b40      0xb48 CMakeFiles/example1.dir/D_/pico/pico-sdk/lib/tinyusb/src/device/usbd.c.obj
 .debug_ranges  0x00003688       0x88 CMakeFiles/example1.dir/D_/pico/pico-sdk/lib/tinyusb/src/device/usbd_control.c.obj
 .debug_ranges  0x00003710      0x110 CMakeFiles/example1.dir/D_/pico/pico-sdk/lib/tinyusb/src/class/cdc/cdc_device.c.obj
 .debug_ranges  0x00003820       0xd0 CMakeFiles/example1.dir/D_/pico/pico-sdk/lib/tinyusb/src/tusb.c.obj
 .debug_ranges  0x000038f0      0x138 CMakeFiles/example1.dir/D_/pico/pico-sdk/lib/tinyusb/src/common/tusb_fifo.c.obj
 .debug_ranges  0x00003a28       0x38 CMakeFiles/example1.dir/D_/pico/pico-sdk/src/rp2_common/pico_unique_id/unique_id.c.obj
 .debug_ranges  0x00003a60       0x58 CMakeFiles/example1.dir/D_/pico/pico-sdk/src/rp2_common/hardware_flash/flash.c.obj
 .debug_ranges  0x00003ab8      0x418 CMakeFiles/example1.dir/D_/pico/pico-FreeRTOS-SMP/Source/portable/ThirdParty/GCC/RP2040/port.c.obj
 .debug_ranges  0x00003ed0       0x98 CMakeFiles/example1.dir/D_/pico/pico-FreeRTOS-SMP/Source/event_groups.c.obj
 .debug_ranges  0x00003f68       0x30 CMakeFiles/example1.dir/D_/pico/pico-FreeRTOS-SMP/Source/list.c.obj
 .debug_ranges  0x00003f98      0x268 CMakeFiles/example1.dir/D_/pico/pico-FreeRTOS-SMP/Source/queue.c.obj
 .debug_ranges  0x00004200      0x848 CMakeFiles/example1.dir/D_/pico/pico-FreeRTOS-SMP/Source/tasks.c.obj
 .debug_ranges  0x00004a48       0xe0 CMakeFiles/example1.dir/D_/pico/pico-FreeRTOS-SMP/Source/timers.c.obj
 .debug_ranges  0x00004b28       0x30 CMakeFiles/example1.dir/D_/pico/pico-sdk/src/rp2_common/hardware_exception/exception.c.obj
 .debug_ranges  0x00004b58       0x48 CMakeFiles/example1.dir/D_/pico/pico-FreeRTOS-SMP/Source/portable/MemMang/heap_4.c.obj

.debug_line     0x00000000    0x1baf0
 .debug_line    0x00000000      0x224 CMakeFiles/example1.dir/main.c.obj
 .debug_line    0x00000224      0x2e3 CMakeFiles/example1.dir/ex1_create_task.c.obj
 .debug_line    0x00000507      0x41b CMakeFiles/example1.dir/D_/pico/pico-sdk/src/rp2_common/hardware_claim/claim.c.obj
 .debug_line    0x00000922      0x234 CMakeFiles/example1.dir/D_/pico/pico-sdk/src/rp2_common/pico_platform/platform.c.obj
 .debug_line    0x00000b56      0x417 CMakeFiles/example1.dir/D_/pico/pico-sdk/src/rp2_common/hardware_sync/sync.c.obj
 .debug_line    0x00000f6d      0xfae CMakeFiles/example1.dir/D_/pico/pico-sdk/src/rp2_common/hardware_irq/irq.c.obj
 .debug_line    0x00001f1b      0x1d6 CMakeFiles/example1.dir/D_/pico/pico-sdk/src/common/pico_sync/lock_core.c.obj
 .debug_line    0x000020f1     0x1837 CMakeFiles/example1.dir/D_/pico/pico-sdk/src/common/pico_time/time.c.obj
 .debug_line    0x00003928      0xa5a CMakeFiles/example1.dir/D_/pico/pico-sdk/src/rp2_common/hardware_timer/timer.c.obj
 .debug_line    0x00004382      0x850 CMakeFiles/example1.dir/D_/pico/pico-sdk/src/common/pico_util/pheap.c.obj
 .debug_line    0x00004bd2      0xdcc CMakeFiles/example1.dir/D_/pico/pico-sdk/src/common/pico_sync/mutex.c.obj
 .debug_line    0x0000599e      0x261 CMakeFiles/example1.dir/D_/pico/pico-sdk/src/common/pico_sync/critical_section.c.obj
 .debug_line    0x00005bff      0x783 CMakeFiles/example1.dir/D_/pico/pico-sdk/src/rp2_common/pico_runtime/runtime.c.obj
 .debug_line    0x00006382      0x906 CMakeFiles/example1.dir/D_/pico/pico-sdk/src/rp2_common/hardware_clocks/clocks.c.obj
 .debug_line    0x00006c88      0x4e2 CMakeFiles/example1.dir/D_/pico/pico-sdk/src/rp2_common/hardware_pll/pll.c.obj
 .debug_line    0x0000716a      0x3c9 CMakeFiles/example1.dir/D_/pico/pico-sdk/src/rp2_common/hardware_watchdog/watchdog.c.obj
 .debug_line    0x00007533      0x26d CMakeFiles/example1.dir/D_/pico/pico-sdk/src/rp2_common/hardware_xosc/xosc.c.obj
 .debug_line    0x000077a0     0x11ee CMakeFiles/example1.dir/D_/pico/pico-sdk/src/rp2_common/pico_printf/printf.c.obj
 .debug_line    0x0000898e      0x13d CMakeFiles/example1.dir/D_/pico/pico-sdk/src/rp2_common/pico_bit_ops/bit_ops_aeabi.S.obj
 .debug_line    0x00008acb      0x1ff CMakeFiles/example1.dir/D_/pico/pico-sdk/src/rp2_common/pico_bootrom/bootrom.c.obj
 .debug_line    0x00008cca      0x2c6 CMakeFiles/example1.dir/D_/pico/pico-sdk/src/rp2_common/pico_divider/divider.S.obj
 .debug_line    0x00008f90      0x41b CMakeFiles/example1.dir/D_/pico/pico-sdk/src/rp2_common/pico_double/double_aeabi.S.obj
 .debug_line    0x000093ab      0x2f4 CMakeFiles/example1.dir/D_/pico/pico-sdk/src/rp2_common/pico_double/double_init_rom.c.obj
 .debug_line    0x0000969f      0x693 CMakeFiles/example1.dir/D_/pico/pico-sdk/src/rp2_common/pico_double/double_v1_rom_shim.S.obj
 .debug_line    0x00009d32       0x8d CMakeFiles/example1.dir/D_/pico/pico-sdk/src/rp2_common/pico_int64_ops/pico_int64_ops_aeabi.S.obj
 .debug_line    0x00009dbf      0x3d1 CMakeFiles/example1.dir/D_/pico/pico-sdk/src/rp2_common/pico_float/float_aeabi.S.obj
 .debug_line    0x0000a190      0x2e6 CMakeFiles/example1.dir/D_/pico/pico-sdk/src/rp2_common/pico_float/float_init_rom.c.obj
 .debug_line    0x0000a476      0x1bd CMakeFiles/example1.dir/D_/pico/pico-sdk/src/rp2_common/pico_float/float_v1_rom_shim.S.obj
 .debug_line    0x0000a633      0x30b CMakeFiles/example1.dir/D_/pico/pico-sdk/src/rp2_common/pico_malloc/pico_malloc.c.obj
 .debug_line    0x0000a93e       0xb7 CMakeFiles/example1.dir/D_/pico/pico-sdk/src/rp2_common/pico_mem_ops/mem_ops_aeabi.S.obj
 .debug_line    0x0000a9f5       0xc8 CMakeFiles/example1.dir/D_/pico/pico-sdk/src/rp2_common/pico_standard_link/crt0.S.obj
 .debug_line    0x0000aabd      0x17f CMakeFiles/example1.dir/D_/pico/pico-sdk/src/rp2_common/pico_standard_link/binary_info.c.obj
 .debug_line    0x0000ac3c      0xc79 CMakeFiles/example1.dir/D_/pico/pico-sdk/src/rp2_common/pico_stdio/stdio.c.obj
 .debug_line    0x0000b8b5      0x3f5 CMakeFiles/example1.dir/D_/pico/pico-sdk/src/rp2_common/pico_stdio_usb/reset_interface.c.obj
 .debug_line    0x0000bcaa      0x8e8 CMakeFiles/example1.dir/D_/pico/pico-sdk/src/rp2_common/pico_stdio_usb/stdio_usb.c.obj
 .debug_line    0x0000c592      0x2a3 CMakeFiles/example1.dir/D_/pico/pico-sdk/src/rp2_common/pico_stdio_usb/stdio_usb_descriptors.c.obj
 .debug_line    0x0000c835      0xaf8 CMakeFiles/example1.dir/D_/pico/pico-sdk/lib/tinyusb/src/portable/raspberrypi/rp2040/dcd_rp2040.c.obj
 .debug_line    0x0000d32d      0x844 CMakeFiles/example1.dir/D_/pico/pico-sdk/lib/tinyusb/src/portable/raspberrypi/rp2040/rp2040_usb.c.obj
 .debug_line    0x0000db71     0x22a5 CMakeFiles/example1.dir/D_/pico/pico-sdk/lib/tinyusb/src/device/usbd.c.obj
 .debug_line    0x0000fe16      0x569 CMakeFiles/example1.dir/D_/pico/pico-sdk/lib/tinyusb/src/device/usbd_control.c.obj
 .debug_line    0x0001037f      0xe81 CMakeFiles/example1.dir/D_/pico/pico-sdk/lib/tinyusb/src/class/cdc/cdc_device.c.obj
 .debug_line    0x00011200      0x6f9 CMakeFiles/example1.dir/D_/pico/pico-sdk/lib/tinyusb/src/tusb.c.obj
 .debug_line    0x000118f9     0x144d CMakeFiles/example1.dir/D_/pico/pico-sdk/lib/tinyusb/src/common/tusb_fifo.c.obj
 .debug_line    0x00012d46      0x338 CMakeFiles/example1.dir/D_/pico/pico-sdk/src/rp2_common/pico_unique_id/unique_id.c.obj
 .debug_line    0x0001307e      0x765 CMakeFiles/example1.dir/D_/pico/pico-sdk/src/rp2_common/hardware_flash/flash.c.obj
 .debug_line    0x000137e3      0xff7 CMakeFiles/example1.dir/D_/pico/pico-FreeRTOS-SMP/Source/portable/ThirdParty/GCC/RP2040/port.c.obj
 .debug_line    0x000147da      0x7a3 CMakeFiles/example1.dir/D_/pico/pico-FreeRTOS-SMP/Source/event_groups.c.obj
 .debug_line    0x00014f7d      0x318 CMakeFiles/example1.dir/D_/pico/pico-FreeRTOS-SMP/Source/list.c.obj
 .debug_line    0x00015295     0x18e6 CMakeFiles/example1.dir/D_/pico/pico-FreeRTOS-SMP/Source/queue.c.obj
 .debug_line    0x00016b7b     0x39a7 CMakeFiles/example1.dir/D_/pico/pico-FreeRTOS-SMP/Source/tasks.c.obj
 .debug_line    0x0001a522      0xb3e CMakeFiles/example1.dir/D_/pico/pico-FreeRTOS-SMP/Source/timers.c.obj
 .debug_line    0x0001b060      0x3b7 CMakeFiles/example1.dir/D_/pico/pico-sdk/src/rp2_common/hardware_exception/exception.c.obj
 .debug_line    0x0001b417      0x6d9 CMakeFiles/example1.dir/D_/pico/pico-FreeRTOS-SMP/Source/portable/MemMang/heap_4.c.obj

.debug_str      0x00000000     0x8db7
 .debug_str     0x00000000      0x26f CMakeFiles/example1.dir/main.c.obj
                                0x2ad (size before relaxing)
 .debug_str     0x0000026f       0xc0 CMakeFiles/example1.dir/ex1_create_task.c.obj
                                0x23c (size before relaxing)
 .debug_str     0x0000032f      0x1a9 CMakeFiles/example1.dir/D_/pico/pico-sdk/src/rp2_common/hardware_claim/claim.c.obj
                                0x36e (size before relaxing)
 .debug_str     0x000004d8       0x80 CMakeFiles/example1.dir/D_/pico/pico-sdk/src/rp2_common/pico_platform/platform.c.obj
                                0x22a (size before relaxing)
 .debug_str     0x00000558       0xe2 CMakeFiles/example1.dir/D_/pico/pico-sdk/src/rp2_common/hardware_sync/sync.c.obj
                                0x355 (size before relaxing)
 .debug_str     0x0000063a      0x447 CMakeFiles/example1.dir/D_/pico/pico-sdk/src/rp2_common/hardware_irq/irq.c.obj
                                0x7cb (size before relaxing)
 .debug_str     0x00000a81       0x52 CMakeFiles/example1.dir/D_/pico/pico-sdk/src/common/pico_sync/lock_core.c.obj
                                0x20b (size before relaxing)
 .debug_str     0x00000ad3      0x797 CMakeFiles/example1.dir/D_/pico/pico-sdk/src/common/pico_time/time.c.obj
                                0xbe4 (size before relaxing)
 .debug_str     0x0000126a      0x152 CMakeFiles/example1.dir/D_/pico/pico-sdk/src/rp2_common/hardware_timer/timer.c.obj
                                0x6a3 (size before relaxing)
 .debug_str     0x000013bc       0xdc CMakeFiles/example1.dir/D_/pico/pico-sdk/src/common/pico_util/pheap.c.obj
                                0x3f4 (size before relaxing)
 .debug_str     0x00001498      0x1ae CMakeFiles/example1.dir/D_/pico/pico-sdk/src/common/pico_sync/mutex.c.obj
                                0x628 (size before relaxing)
 .debug_str     0x00001646       0xca CMakeFiles/example1.dir/D_/pico/pico-sdk/src/common/pico_sync/critical_section.c.obj
                                0x2cb (size before relaxing)
 .debug_str     0x00001710      0x2ab CMakeFiles/example1.dir/D_/pico/pico-sdk/src/rp2_common/pico_runtime/runtime.c.obj
                                0x5fd (size before relaxing)
 .debug_str     0x000019bb      0x35e CMakeFiles/example1.dir/D_/pico/pico-sdk/src/rp2_common/hardware_clocks/clocks.c.obj
                                0x681 (size before relaxing)
 .debug_str     0x00001d19       0x85 CMakeFiles/example1.dir/D_/pico/pico-sdk/src/rp2_common/hardware_pll/pll.c.obj
                                0x2e5 (size before relaxing)
 .debug_str     0x00001d9e      0x117 CMakeFiles/example1.dir/D_/pico/pico-sdk/src/rp2_common/hardware_watchdog/watchdog.c.obj
                                0x32c (size before relaxing)
 .debug_str     0x00001eb5       0x67 CMakeFiles/example1.dir/D_/pico/pico-sdk/src/rp2_common/hardware_xosc/xosc.c.obj
                                0x229 (size before relaxing)
 .debug_str     0x00001f1c      0x25c CMakeFiles/example1.dir/D_/pico/pico-sdk/src/rp2_common/pico_printf/printf.c.obj
                                0x48a (size before relaxing)
 .debug_str     0x00002178       0x4b CMakeFiles/example1.dir/D_/pico/pico-sdk/src/rp2_common/pico_bit_ops/bit_ops_aeabi.S.obj
                                 0x7b (size before relaxing)
 .debug_str     0x000021c3       0xba CMakeFiles/example1.dir/D_/pico/pico-sdk/src/rp2_common/pico_bootrom/bootrom.c.obj
                                0x264 (size before relaxing)
 .debug_str     0x0000227d       0x37 CMakeFiles/example1.dir/D_/pico/pico-sdk/src/rp2_common/pico_divider/divider.S.obj
                                 0x75 (size before relaxing)
 .debug_str     0x000022b4       0x3b CMakeFiles/example1.dir/D_/pico/pico-sdk/src/rp2_common/pico_double/double_aeabi.S.obj
                                 0x79 (size before relaxing)
 .debug_str     0x000022ef       0x93 CMakeFiles/example1.dir/D_/pico/pico-sdk/src/rp2_common/pico_double/double_init_rom.c.obj
                                0x2a3 (size before relaxing)
 .debug_str     0x00002382       0x41 CMakeFiles/example1.dir/D_/pico/pico-sdk/src/rp2_common/pico_double/double_v1_rom_shim.S.obj
                                 0x7f (size before relaxing)
 .debug_str     0x000023c3       0x46 CMakeFiles/example1.dir/D_/pico/pico-sdk/src/rp2_common/pico_int64_ops/pico_int64_ops_aeabi.S.obj
                                 0x84 (size before relaxing)
 .debug_str     0x00002409       0x39 CMakeFiles/example1.dir/D_/pico/pico-sdk/src/rp2_common/pico_float/float_aeabi.S.obj
                                 0x77 (size before relaxing)
 .debug_str     0x00002442       0x77 CMakeFiles/example1.dir/D_/pico/pico-sdk/src/rp2_common/pico_float/float_init_rom.c.obj
                                0x2bf (size before relaxing)
 .debug_str     0x000024b9       0x3f CMakeFiles/example1.dir/D_/pico/pico-sdk/src/rp2_common/pico_float/float_v1_rom_shim.S.obj
                                 0x7d (size before relaxing)
 .debug_str     0x000024f8       0xc1 CMakeFiles/example1.dir/D_/pico/pico-sdk/src/rp2_common/pico_malloc/pico_malloc.c.obj
                                0x2c4 (size before relaxing)
 .debug_str     0x000025b9       0x3d CMakeFiles/example1.dir/D_/pico/pico-sdk/src/rp2_common/pico_mem_ops/mem_ops_aeabi.S.obj
                                 0x7b (size before relaxing)
 .debug_str     0x000025f6       0x3a CMakeFiles/example1.dir/D_/pico/pico-sdk/src/rp2_common/pico_standard_link/crt0.S.obj
                                 0x78 (size before relaxing)
 .debug_str     0x00002630      0x23a CMakeFiles/example1.dir/D_/pico/pico-sdk/src/rp2_common/pico_standard_link/binary_info.c.obj
                                0x3ec (size before relaxing)
 .debug_str     0x0000286a      0x34f CMakeFiles/example1.dir/D_/pico/pico-sdk/src/rp2_common/pico_stdio/stdio.c.obj
                                0x7bb (size before relaxing)
 .debug_str     0x00002bb9      0x660 CMakeFiles/example1.dir/D_/pico/pico-sdk/src/rp2_common/pico_stdio_usb/reset_interface.c.obj
                                0x86d (size before relaxing)
 .debug_str     0x00003219      0x24e CMakeFiles/example1.dir/D_/pico/pico-sdk/src/rp2_common/pico_stdio_usb/stdio_usb.c.obj
                                0x91c (size before relaxing)
 .debug_str     0x00003467      0xad8 CMakeFiles/example1.dir/D_/pico/pico-sdk/src/rp2_common/pico_stdio_usb/stdio_usb_descriptors.c.obj
                                0xf93 (size before relaxing)
 .debug_str     0x00003f3f      0x90c CMakeFiles/example1.dir/D_/pico/pico-sdk/lib/tinyusb/src/portable/raspberrypi/rp2040/dcd_rp2040.c.obj
                                0xdfb (size before relaxing)
 .debug_str     0x0000484b      0x130 CMakeFiles/example1.dir/D_/pico/pico-sdk/lib/tinyusb/src/portable/raspberrypi/rp2040/rp2040_usb.c.obj
                                0x85a (size before relaxing)
 .debug_str     0x0000497b      0x9bf CMakeFiles/example1.dir/D_/pico/pico-sdk/lib/tinyusb/src/device/usbd.c.obj
                               0x1848 (size before relaxing)
 .debug_str     0x0000533a       0xe1 CMakeFiles/example1.dir/D_/pico/pico-sdk/lib/tinyusb/src/device/usbd_control.c.obj
                                0x632 (size before relaxing)
 .debug_str     0x0000541b      0x719 CMakeFiles/example1.dir/D_/pico/pico-sdk/lib/tinyusb/src/class/cdc/cdc_device.c.obj
                               0x165f (size before relaxing)
 .debug_str     0x00005b34       0xca CMakeFiles/example1.dir/D_/pico/pico-sdk/lib/tinyusb/src/tusb.c.obj
                                0x8cb (size before relaxing)
 .debug_str     0x00005bfe      0x381 CMakeFiles/example1.dir/D_/pico/pico-sdk/lib/tinyusb/src/common/tusb_fifo.c.obj
                                0x77f (size before relaxing)
 .debug_str     0x00005f7f       0xb6 CMakeFiles/example1.dir/D_/pico/pico-sdk/src/rp2_common/pico_unique_id/unique_id.c.obj
                                0x27d (size before relaxing)
 .debug_str     0x00006035      0x304 CMakeFiles/example1.dir/D_/pico/pico-sdk/src/rp2_common/hardware_flash/flash.c.obj
                                0x5ec (size before relaxing)
 .debug_str     0x00006339      0x627 CMakeFiles/example1.dir/D_/pico/pico-FreeRTOS-SMP/Source/portable/ThirdParty/GCC/RP2040/port.c.obj
                                0xcbd (size before relaxing)
 .debug_str     0x00006960      0x420 CMakeFiles/example1.dir/D_/pico/pico-FreeRTOS-SMP/Source/event_groups.c.obj
                                0x6d1 (size before relaxing)
 .debug_str     0x00006d80       0xa5 CMakeFiles/example1.dir/D_/pico/pico-FreeRTOS-SMP/Source/list.c.obj
                                0x2d5 (size before relaxing)
 .debug_str     0x00006e25      0x855 CMakeFiles/example1.dir/D_/pico/pico-FreeRTOS-SMP/Source/queue.c.obj
                                0xc77 (size before relaxing)
 .debug_str     0x0000767a      0xe44 CMakeFiles/example1.dir/D_/pico/pico-FreeRTOS-SMP/Source/tasks.c.obj
                               0x15f4 (size before relaxing)
 .debug_str     0x000084be      0x52a CMakeFiles/example1.dir/D_/pico/pico-FreeRTOS-SMP/Source/timers.c.obj
                                0x9df (size before relaxing)
 .debug_str     0x000089e8      0x12c CMakeFiles/example1.dir/D_/pico/pico-sdk/src/rp2_common/hardware_exception/exception.c.obj
                                0x3e5 (size before relaxing)
 .debug_str     0x00008b14      0x2a3 CMakeFiles/example1.dir/D_/pico/pico-FreeRTOS-SMP/Source/portable/MemMang/heap_4.c.obj
                                0x4f8 (size before relaxing)

.debug_frame    0x00000000     0x3a70
 .debug_frame   0x00000000       0xb0 CMakeFiles/example1.dir/main.c.obj
 .debug_frame   0x000000b0       0x60 CMakeFiles/example1.dir/ex1_create_task.c.obj
 .debug_frame   0x00000110       0x9c CMakeFiles/example1.dir/D_/pico/pico-sdk/src/rp2_common/hardware_claim/claim.c.obj
 .debug_frame   0x000001ac       0x38 CMakeFiles/example1.dir/D_/pico/pico-sdk/src/rp2_common/pico_platform/platform.c.obj
 .debug_frame   0x000001e4       0xc4 CMakeFiles/example1.dir/D_/pico/pico-sdk/src/rp2_common/hardware_sync/sync.c.obj
 .debug_frame   0x000002a8      0x20c CMakeFiles/example1.dir/D_/pico/pico-sdk/src/rp2_common/hardware_irq/irq.c.obj
 .debug_frame   0x000004b4       0x20 CMakeFiles/example1.dir/D_/pico/pico-sdk/src/common/pico_sync/lock_core.c.obj
 .debug_frame   0x000004d4      0x29c CMakeFiles/example1.dir/D_/pico/pico-sdk/src/common/pico_time/time.c.obj
 .debug_frame   0x00000770      0x134 CMakeFiles/example1.dir/D_/pico/pico-sdk/src/rp2_common/hardware_timer/timer.c.obj
 .debug_frame   0x000008a4      0x164 CMakeFiles/example1.dir/D_/pico/pico-sdk/src/common/pico_util/pheap.c.obj
 .debug_frame   0x00000a08      0x1b8 CMakeFiles/example1.dir/D_/pico/pico-sdk/src/common/pico_sync/mutex.c.obj
 .debug_frame   0x00000bc0       0x50 CMakeFiles/example1.dir/D_/pico/pico-sdk/src/common/pico_sync/critical_section.c.obj
 .debug_frame   0x00000c10       0xdc CMakeFiles/example1.dir/D_/pico/pico-sdk/src/rp2_common/pico_runtime/runtime.c.obj
 .debug_frame   0x00000cec      0x12c CMakeFiles/example1.dir/D_/pico/pico-sdk/src/rp2_common/hardware_clocks/clocks.c.obj
 .debug_frame   0x00000e18       0x44 CMakeFiles/example1.dir/D_/pico/pico-sdk/src/rp2_common/hardware_pll/pll.c.obj
 .debug_frame   0x00000e5c       0xa8 CMakeFiles/example1.dir/D_/pico/pico-sdk/src/rp2_common/hardware_watchdog/watchdog.c.obj
 .debug_frame   0x00000f04       0x40 CMakeFiles/example1.dir/D_/pico/pico-sdk/src/rp2_common/hardware_xosc/xosc.c.obj
 .debug_frame   0x00000f44      0x1f8 CMakeFiles/example1.dir/D_/pico/pico-sdk/src/rp2_common/pico_printf/printf.c.obj
 .debug_frame   0x0000113c       0x64 CMakeFiles/example1.dir/D_/pico/pico-sdk/src/rp2_common/pico_bootrom/bootrom.c.obj
 .debug_frame   0x000011a0       0x2c CMakeFiles/example1.dir/D_/pico/pico-sdk/src/rp2_common/pico_double/double_init_rom.c.obj
 .debug_frame   0x000011cc       0x2c CMakeFiles/example1.dir/D_/pico/pico-sdk/src/rp2_common/pico_float/float_init_rom.c.obj
 .debug_frame   0x000011f8       0x80 CMakeFiles/example1.dir/D_/pico/pico-sdk/src/rp2_common/pico_malloc/pico_malloc.c.obj
 .debug_frame   0x00001278      0x26c CMakeFiles/example1.dir/D_/pico/pico-sdk/src/rp2_common/pico_stdio/stdio.c.obj
 .debug_frame   0x000014e4       0xac CMakeFiles/example1.dir/D_/pico/pico-sdk/src/rp2_common/pico_stdio_usb/reset_interface.c.obj
 .debug_frame   0x00001590       0xd4 CMakeFiles/example1.dir/D_/pico/pico-sdk/src/rp2_common/pico_stdio_usb/stdio_usb.c.obj
 .debug_frame   0x00001664       0x48 CMakeFiles/example1.dir/D_/pico/pico-sdk/src/rp2_common/pico_stdio_usb/stdio_usb_descriptors.c.obj
 .debug_frame   0x000016ac      0x238 CMakeFiles/example1.dir/D_/pico/pico-sdk/lib/tinyusb/src/portable/raspberrypi/rp2040/dcd_rp2040.c.obj
 .debug_frame   0x000018e4       0xf8 CMakeFiles/example1.dir/D_/pico/pico-sdk/lib/tinyusb/src/portable/raspberrypi/rp2040/rp2040_usb.c.obj
 .debug_frame   0x000019dc      0x3bc CMakeFiles/example1.dir/D_/pico/pico-sdk/lib/tinyusb/src/device/usbd.c.obj
 .debug_frame   0x00001d98       0xcc CMakeFiles/example1.dir/D_/pico/pico-sdk/lib/tinyusb/src/device/usbd_control.c.obj
 .debug_frame   0x00001e64      0x1f4 CMakeFiles/example1.dir/D_/pico/pico-sdk/lib/tinyusb/src/class/cdc/cdc_device.c.obj
 .debug_frame   0x00002058       0xd4 CMakeFiles/example1.dir/D_/pico/pico-sdk/lib/tinyusb/src/tusb.c.obj
 .debug_frame   0x0000212c      0x398 CMakeFiles/example1.dir/D_/pico/pico-sdk/lib/tinyusb/src/common/tusb_fifo.c.obj
 .debug_frame   0x000024c4       0x58 CMakeFiles/example1.dir/D_/pico/pico-sdk/src/rp2_common/pico_unique_id/unique_id.c.obj
 .debug_frame   0x0000251c       0xe4 CMakeFiles/example1.dir/D_/pico/pico-sdk/src/rp2_common/hardware_flash/flash.c.obj
 .debug_frame   0x00002600      0x1fc CMakeFiles/example1.dir/D_/pico/pico-FreeRTOS-SMP/Source/portable/ThirdParty/GCC/RP2040/port.c.obj
 .debug_frame   0x000027fc      0x178 CMakeFiles/example1.dir/D_/pico/pico-FreeRTOS-SMP/Source/event_groups.c.obj
 .debug_frame   0x00002974       0x6c CMakeFiles/example1.dir/D_/pico/pico-FreeRTOS-SMP/Source/list.c.obj
 .debug_frame   0x000029e0      0x474 CMakeFiles/example1.dir/D_/pico/pico-FreeRTOS-SMP/Source/queue.c.obj
 .debug_frame   0x00002e54      0x7f0 CMakeFiles/example1.dir/D_/pico/pico-FreeRTOS-SMP/Source/tasks.c.obj
 .debug_frame   0x00003644      0x2c8 CMakeFiles/example1.dir/D_/pico/pico-FreeRTOS-SMP/Source/timers.c.obj
 .debug_frame   0x0000390c       0x7c CMakeFiles/example1.dir/D_/pico/pico-sdk/src/rp2_common/hardware_exception/exception.c.obj
 .debug_frame   0x00003988       0xc0 CMakeFiles/example1.dir/D_/pico/pico-FreeRTOS-SMP/Source/portable/MemMang/heap_4.c.obj
 .debug_frame   0x00003a48       0x28 d:/pico/armcc/10 2021.10/bin/../lib/gcc/arm-none-eabi/10.3.1/../../../../arm-none-eabi/lib/thumb/v6-m/nofp\libg.a(lib_a-strlen-stub.o)
